---
triple:          'arm64-apple-darwin'
binary-path:     'test/unit/math/mix/fun/simplex_row_constrain_test'
relocations:
  - { offsetInCU: 0x3C, offset: 0x3C, size: 0x8, addend: 0x0, symName: __ZN5EigenL4lastE, symObjAddr: 0x15C1FA8, symBinAddr: 0x100078178, symSize: 0x0 }
  - { offsetInCU: 0x2C149, offset: 0x2C149, size: 0x8, addend: 0x0, symName: __ZN5Eigen8internal17set_from_tripletsINSt3__111__wrap_iterIPNS_7TripletIdiEEEENS_12SparseMatrixIdLi0EiEENS0_13scalar_sum_opIddEEEEvRKT_SE_RT0_T1_, symObjAddr: 0x8A0C, symBinAddr: 0x10000947C, symSize: 0x2F4 }
  - { offsetInCU: 0x2CAC6, offset: 0x2CAC6, size: 0x8, addend: 0x0, symName: __ZN5Eigen8internal28conditional_aligned_new_autoIdLb1EEEPT_m, symObjAddr: 0x7AA8, symBinAddr: 0x100008518, symSize: 0x6C }
  - { offsetInCU: 0x2CE63, offset: 0x2CE63, size: 0x8, addend: 0x0, symName: __ZN5Eigen8internal28conditional_aligned_new_autoIiLb1EEEPT_m, symObjAddr: 0x932C, symBinAddr: 0x100009D9C, symSize: 0x6C }
  - { offsetInCU: 0x2EB2A, offset: 0x2EB2A, size: 0x8, addend: 0x0, symName: __ZN5Eigen8internal28conditional_aligned_new_autoIN4stan4math9var_valueIdvEELb1EEEPT_m, symObjAddr: 0xDC78, symBinAddr: 0x10000E6E8, symSize: 0x6C }
  - { offsetInCU: 0x2EC18, offset: 0x2EC18, size: 0x8, addend: 0x0, symName: __ZN5Eigen8internal28conditional_aligned_new_autoIN4stan4math4fvarIdEELb1EEEPT_m, symObjAddr: 0xF8C0, symBinAddr: 0x100010330, symSize: 0x84 }
  - { offsetInCU: 0x2ED5A, offset: 0x2ED5A, size: 0x8, addend: 0x0, symName: __ZN5Eigen8internal28conditional_aligned_new_autoIN4stan4math4fvarINS4_IdEEEELb1EEEPT_m, symObjAddr: 0x10628, symBinAddr: 0x100011098, symSize: 0x84 }
  - { offsetInCU: 0x2EEC6, offset: 0x2EEC6, size: 0x8, addend: 0x0, symName: __ZN5Eigen8internal28conditional_aligned_new_autoIN4stan4math4fvarINS3_9var_valueIdvEEEELb1EEEPT_m, symObjAddr: 0x11668, symBinAddr: 0x1000120D8, symSize: 0xDC }
  - { offsetInCU: 0x2F030, offset: 0x2F030, size: 0x8, addend: 0x0, symName: __ZN5Eigen8internal28conditional_aligned_new_autoIN4stan4math4fvarINS4_INS3_9var_valueIdvEEEEEELb1EEEPT_m, symObjAddr: 0x12F54, symBinAddr: 0x1000139C4, symSize: 0x104 }
  - { offsetInCU: 0x2F1E8, offset: 0x2F1E8, size: 0x8, addend: 0x0, symName: __ZN5Eigen8internal12print_matrixINS_6MatrixIdLin1ELi1ELi0ELin1ELi1EEEEERNSt3__113basic_ostreamIcNS4_11char_traitsIcEEEES9_RKT_RKNS_8IOFormatE, symObjAddr: 0xD45C, symBinAddr: 0x10000DECC, symSize: 0x530 }
  - { offsetInCU: 0x31F01, offset: 0x31F01, size: 0x8, addend: 0x0, symName: __ZN5Eigen8internal17resize_if_allowedINS_6MatrixIN4stan4math9var_valueIdvEELin1ELin1ELi0ELin1ELin1EEENS_3MapIS7_Li0ENS_6StrideILi0ELi0EEEEES6_S6_EEvRT_RKT0_RKNS0_9assign_opIT1_T2_EE, symObjAddr: 0xF7F0, symBinAddr: 0x100010260, symSize: 0xD0 }
  - { offsetInCU: 0x32553, offset: 0x32553, size: 0x8, addend: 0x0, symName: __ZN5Eigen8internal17resize_if_allowedINS_6MatrixIN4stan4math9var_valueIdvEELin1ELin1ELi0ELin1ELin1EEENS_3MapINS2_IdLin1ELin1ELi0ELin1ELin1EEELi0ENS_6StrideILi0ELi0EEEEES6_dEEvRT_RKT0_RKNS0_9assign_opIT1_T2_EE, symObjAddr: 0xF3CC, symBinAddr: 0x10000FE3C, symSize: 0xD0 }
  - { offsetInCU: 0x3A2E8, offset: 0x3A2E8, size: 0x8, addend: 0x0, symName: __ZN5Eigen8internal26call_dense_assignment_loopINS_12ArrayWrapperINS_5BlockINS_6MatrixIN4stan4math4fvarINS7_INS6_9var_valueIdvEEEEEELin1ELin1ELi0ELin1ELin1EEELin1ELi1ELb1EEEEENS_13CwiseBinaryOpINS0_17scalar_product_opISB_SB_EEKNS_5ArrayISB_Lin1ELi1ELi0ELin1ELi1EEEKNS_12CwiseUnaryOpIZNS6_18apply_scalar_unaryINS6_13inv_logit_funENSF_INS0_20scalar_difference_opISB_dEEKNS2_IKNS3_IKSC_Lin1ELi1ELb1EEEEEKNS_14CwiseNullaryOpINS0_18scalar_constant_opIdEEKNSI_IdLin1ELi1ELi0ELin1ELi1EEEEEEEvE5applyERKS12_EUlOT_E_S14_EEEENS0_9assign_opISB_SB_EEEEvRS16_RKT0_RKT1_, symObjAddr: 0x13D9C, symBinAddr: 0x10001480C, symSize: 0x114 }
  - { offsetInCU: 0x3ABC7, offset: 0x3ABC7, size: 0x8, addend: 0x0, symName: __ZNK5Eigen8internal15unary_evaluatorINS_12CwiseUnaryOpIZN4stan4math18apply_scalar_unaryINS4_13inv_logit_funENS_13CwiseBinaryOpINS0_20scalar_difference_opINS4_4fvarINS9_INS4_9var_valueIdvEEEEEEdEEKNS_12ArrayWrapperIKNS_5BlockIKNS_6MatrixISD_Lin1ELin1ELi0ELin1ELin1EEELin1ELi1ELb1EEEEEKNS_14CwiseNullaryOpINS0_18scalar_constant_opIdEEKNS_5ArrayIdLin1ELi1ELi0ELin1ELi1EEEEEEEvE5applyERKSW_EUlOT_E_SY_EENS0_10IndexBasedESD_E5coeffEl, symObjAddr: 0x13EB0, symBinAddr: 0x100014920, symSize: 0x124 }
  - { offsetInCU: 0x3BF39, offset: 0x3BF39, size: 0x8, addend: 0x0, symName: __ZN5Eigen8internal26call_dense_assignment_loopINS_6MatrixIN4stan4math9var_valueIdvEELin1ELi1ELi0ELin1ELi1EEENS2_IdLin1ELi1ELi0ELin1ELi1EEENS0_9assign_opIS6_dEEEEvRT_RKT0_RKT1_, symObjAddr: 0x16458, symBinAddr: 0x100016EC8, symSize: 0xE0 }
  - { offsetInCU: 0x3D87D, offset: 0x3D87D, size: 0x8, addend: 0x0, symName: __ZN5Eigen8internal17resize_if_allowedINS_6MatrixIdLin1ELin1ELi0ELin1ELin1EEENS_14CwiseNullaryOpINS0_18scalar_constant_opIdEES3_EEddEEvRT_RKT0_RKNS0_9assign_opIT1_T2_EE, symObjAddr: 0x19CB4, symBinAddr: 0x10001A724, symSize: 0xD0 }
  - { offsetInCU: 0x3DAD7, offset: 0x3DAD7, size: 0x8, addend: 0x0, symName: __ZN5Eigen8internal17resize_if_allowedINS_6MatrixIdLin1ELin1ELi0ELin1ELin1EEENS_12CwiseUnaryOpINS0_18scalar_opposite_opIdEEKS3_EEddEEvRT_RKT0_RKNS0_9assign_opIT1_T2_EE, symObjAddr: 0x19D84, symBinAddr: 0x10001A7F4, symSize: 0xD4 }
  - { offsetInCU: 0x3E2A5, offset: 0x3E2A5, size: 0x8, addend: 0x0, symName: __ZN5Eigen8internal17resize_if_allowedINS_6MatrixIN4stan4math9var_valueIdvEELin1ELin1ELi0ELin1ELin1EEENS2_IdLin1ELin1ELi0ELin1ELin1EEES6_dEEvRT_RKT0_RKNS0_9assign_opIT1_T2_EE, symObjAddr: 0x1AA00, symBinAddr: 0x10001B470, symSize: 0xD0 }
  - { offsetInCU: 0x3F751, offset: 0x3F751, size: 0x8, addend: 0x0, symName: __ZN5Eigen8internal17resize_if_allowedINS_6MatrixIdLin1ELin1ELi0ELin1ELin1EEENS_3MapIS3_Li0ENS_6StrideILi0ELi0EEEEEddEEvRT_RKT0_RKNS0_9assign_opIT1_T2_EE, symObjAddr: 0x1C970, symBinAddr: 0x10001D3E0, symSize: 0xD0 }
  - { offsetInCU: 0x3F9AD, offset: 0x3F9AD, size: 0x8, addend: 0x0, symName: __ZN5Eigen8internal17resize_if_allowedINS_6MatrixIdLin1ELin1ELi0ELin1ELin1EEENS_12CwiseUnaryOpIZZN4stan4math8value_ofIRNS2_INS6_9var_valueIdvEELin1ELin1ELi0ELin1ELin1EEELPv0ELSC_0EEEDaOT_ENKUlRSE_E_clISA_EESD_SG_EUlRKSE_E_KSA_EEddEEvSG_RKT0_RKNS0_9assign_opIT1_T2_EE, symObjAddr: 0x1CA40, symBinAddr: 0x10001D4B0, symSize: 0xD4 }
  - { offsetInCU: 0x40138, offset: 0x40138, size: 0x8, addend: 0x0, symName: __ZN5Eigen8internal17resize_if_allowedINS_6MatrixIdLin1ELin1ELi0ELin1ELin1EEENS_12CwiseUnaryOpINS_10MatrixBaseINS2_IN4stan4math9var_valueIdvEELin1ELin1ELi0ELin1ELin1EEEE6val_OpEKSA_EEddEEvRT_RKT0_RKNS0_9assign_opIT1_T2_EE, symObjAddr: 0x1E884, symBinAddr: 0x10001F2F4, symSize: 0xD4 }
  - { offsetInCU: 0x408C3, offset: 0x408C3, size: 0x8, addend: 0x0, symName: __ZN5Eigen8internal17resize_if_allowedINS_6MatrixIdLin1ELin1ELi0ELin1ELin1EEENS_12CwiseUnaryOpINS_10MatrixBaseINS2_IN4stan4math9var_valueIdvEELin1ELin1ELi0ELin1ELin1EEEE6adj_OpEKSA_EEddEEvRT_RKT0_RKNS0_9assign_opIT1_T2_EE, symObjAddr: 0x1E958, symBinAddr: 0x10001F3C8, symSize: 0xD4 }
  - { offsetInCU: 0x43FCD, offset: 0x43FCD, size: 0x8, addend: 0x0, symName: __ZN5Eigen8internal26call_dense_assignment_loopINS_5ArrayIN4stan4math4fvarIdEELin1ELi1ELi0ELin1ELi1EEENS_12CwiseUnaryOpIZNS4_18apply_scalar_unaryINS4_13log1p_exp_funENS8_INS0_18scalar_opposite_opIS6_EEKS7_EEvE5applyERKSE_EUlOT_E_SG_EENS0_9assign_opIS6_S6_EEEEvRSI_RKT0_RKT1_, symObjAddr: 0x23970, symBinAddr: 0x10002423C, symSize: 0x1C0 }
  - { offsetInCU: 0x445C3, offset: 0x445C3, size: 0x8, addend: 0x0, symName: __ZN5Eigen3RefIKNS_5ArrayIN4stan4math4fvarIdEELin1ELi1ELi0ELin1ELi1EEELi0ENS_11InnerStrideILi1EEEE9constructINS_12CwiseUnaryOpIZNS3_18apply_scalar_unaryINS3_13log1p_exp_funES6_vE5applyERS7_EUlOT_E_S7_EEEEvRKSH_NS_8internal10false_typeE, symObjAddr: 0x23B30, symBinAddr: 0x1000243FC, symSize: 0xD8 }
  - { offsetInCU: 0x46B3E, offset: 0x46B3E, size: 0x8, addend: 0x0, symName: __ZN5Eigen8internal26call_dense_assignment_loopINS_5ArrayIN4stan4math4fvarINS5_IdEEEELin1ELi1ELi0ELin1ELi1EEENS_12CwiseUnaryOpIZNS4_18apply_scalar_unaryINS4_13log1p_exp_funENS9_INS0_18scalar_opposite_opIS7_EEKS8_EEvE5applyERKSF_EUlOT_E_SH_EENS0_9assign_opIS7_S7_EEEEvRSJ_RKT0_RKT1_, symObjAddr: 0x24B4C, symBinAddr: 0x100025418, symSize: 0xD0 }
  - { offsetInCU: 0x470C4, offset: 0x470C4, size: 0x8, addend: 0x0, symName: __ZN4stan4math9log1p_expINS0_4fvarIdEEEENS2_IT_EERKS5_, symObjAddr: 0x24C1C, symBinAddr: 0x1000254E8, symSize: 0x238 }
  - { offsetInCU: 0x490A3, offset: 0x490A3, size: 0x8, addend: 0x0, symName: __ZN5Eigen8internal26call_dense_assignment_loopINS_5ArrayIN4stan4math4fvarINS4_9var_valueIdvEEEELin1ELi1ELi0ELin1ELi1EEENS_13CwiseBinaryOpINS0_13scalar_sum_opIS8_dEEKNS_12ArrayWrapperIKNS_5BlockIKNS_6MatrixIS8_Lin1ELin1ELi0ELin1ELin1EEELin1ELi1ELb1EEEEEKNS_14CwiseNullaryOpINS0_18scalar_constant_opIdEEKNS2_IdLin1ELi1ELi0ELin1ELi1EEEEEEENS0_9assign_opIS8_S8_EEEEvRT_RKT0_RKT1_, symObjAddr: 0x258AC, symBinAddr: 0x100026178, symSize: 0x124 }
  - { offsetInCU: 0x4CCC9, offset: 0x4CCC9, size: 0x8, addend: 0x0, symName: __ZN5Eigen8internal26call_dense_assignment_loopINS_5ArrayIN4stan4math4fvarINS5_INS4_9var_valueIdvEEEEEELin1ELi1ELi0ELin1ELi1EEENS_13CwiseBinaryOpINS0_13scalar_sum_opIS9_dEEKNS_12ArrayWrapperIKNS_5BlockIKNS_6MatrixIS9_Lin1ELin1ELi0ELin1ELin1EEELin1ELi1ELb1EEEEEKNS_14CwiseNullaryOpINS0_18scalar_constant_opIdEEKNS2_IdLin1ELi1ELi0ELin1ELi1EEEEEEENS0_9assign_opIS9_S9_EEEEvRT_RKT0_RKT1_, symObjAddr: 0x27084, symBinAddr: 0x100027950, symSize: 0x13C }
  - { offsetInCU: 0x4D46E, offset: 0x4D46E, size: 0x8, addend: 0x0, symName: __ZN5Eigen8internal26call_dense_assignment_loopINS_5ArrayIN4stan4math4fvarINS5_INS4_9var_valueIdvEEEEEELin1ELi1ELi0ELin1ELi1EEENS_12CwiseUnaryOpIZNS4_18apply_scalar_unaryINS4_7log_funESA_vE5applyERKSA_EUlOT_E_SF_EENS0_9assign_opIS9_S9_EEEEvRSH_RKT0_RKT1_, symObjAddr: 0x27408, symBinAddr: 0x100027CD4, symSize: 0x10C }
  - { offsetInCU: 0x4DA6A, offset: 0x4DA6A, size: 0x8, addend: 0x0, symName: __ZN4stan4mathdvINS0_9var_valueIdvEEEENS0_4fvarIT_EERKS6_S8_, symObjAddr: 0x27514, symBinAddr: 0x100027DE0, symSize: 0x280 }
  - { offsetInCU: 0x4DB94, offset: 0x4DB94, size: 0x8, addend: 0x0, symName: __ZN5Eigen8internal26call_dense_assignment_loopINS_5ArrayIN4stan4math4fvarINS5_INS4_9var_valueIdvEEEEEELin1ELi1ELi0ELin1ELi1EEENS_12CwiseUnaryOpIZNS4_18apply_scalar_unaryINS4_13log1p_exp_funENSB_INS0_18scalar_opposite_opIS9_EEKSA_EEvE5applyERKSH_EUlOT_E_SJ_EENS0_9assign_opIS9_S9_EEEEvRSL_RKT0_RKT1_, symObjAddr: 0x278F4, symBinAddr: 0x1000281C0, symSize: 0xF4 }
  - { offsetInCU: 0x4E1C8, offset: 0x4E1C8, size: 0x8, addend: 0x0, symName: __ZN5Eigen8internal26call_dense_assignment_loopINS_5ArrayIN4stan4math4fvarINS5_INS4_9var_valueIdvEEEEEELin1ELi1ELi0ELin1ELi1EEENS_12CwiseUnaryOpIZNS4_18apply_scalar_unaryINS4_13log1p_exp_funESA_vE5applyERKSA_EUlOT_E_SF_EENS0_9assign_opIS9_S9_EEEEvRSH_RKT0_RKT1_, symObjAddr: 0x279E8, symBinAddr: 0x1000282B4, symSize: 0xD0 }
  - { offsetInCU: 0x4E2F2, offset: 0x4E2F2, size: 0x8, addend: 0x0, symName: __ZN5Eigen8internal26call_dense_assignment_loopINS_5ArrayIN4stan4math4fvarINS5_INS4_9var_valueIdvEEEEEELin1ELi1ELi0ELin1ELi1EEENS_12CwiseUnaryOpIZNS4_18apply_scalar_unaryINS4_13log1p_exp_funESA_vE5applyERKSA_EUlOT_E_SF_EENS0_9assign_opIS9_S9_EEEEvRSH_RKT0_RKT1_, symObjAddr: 0x279E8, symBinAddr: 0x1000282B4, symSize: 0xD0 }
  - { offsetInCU: 0x4E7BA, offset: 0x4E7BA, size: 0x8, addend: 0x0, symName: __ZN4stan4test8internal13test_gradientIZZNS1_16expect_ad_helperIZN26simplex_row_constrain_test24expect_simplex_transformIN5Eigen6MatrixIdLin1ELin1ELi0ELin1ELin1EEEEEvRKT_EUlSB_E0_ZNS1_11expect_ad_vISC_S8_EEvRKNS0_13ad_tolerancesESB_RKT0_EUlSB_E_JS8_EEEvSG_SB_SJ_RKNS7_IdLin1ELi1ELi0ELin1ELi1EEEDpT1_ENKUliE_clEiEUlSB_E_EEvSG_SB_SN_db, symObjAddr: 0x27AB8, symBinAddr: 0x100028384, symSize: 0x214 }
  - { offsetInCU: 0x50AB3, offset: 0x50AB3, size: 0x8, addend: 0x0, symName: __ZN5EigenL6lastp1E, symObjAddr: 0x15C1FAA, symBinAddr: 0x10007817A, symSize: 0x0 }
  - { offsetInCU: 0x50ACC, offset: 0x50ACC, size: 0x8, addend: 0x0, symName: __ZN5EigenL3allE, symObjAddr: 0x15C1FAC, symBinAddr: 0x10007817C, symSize: 0x0 }
  - { offsetInCU: 0x208616, offset: 0x208616, size: 0x8, addend: 0x0, symName: __ZN5EigenlsINS_6MatrixIdLin1ELi1ELi0ELin1ELi1EEEEERNSt3__113basic_ostreamIcNS3_11char_traitsIcEEEES8_RKNS_9DenseBaseIT_EE, symObjAddr: 0xD1C8, symBinAddr: 0x10000DC38, symSize: 0x294 }
  - { offsetInCU: 0x21ED4E, offset: 0x21ED4E, size: 0x8, addend: 0x0, symName: __ZNSt3__124__put_character_sequenceB7v160006IcNS_11char_traitsIcEEEERNS_13basic_ostreamIT_T0_EES7_PKS4_m, symObjAddr: 0x33F0, symBinAddr: 0x100003E68, symSize: 0x164 }
  - { offsetInCU: 0x2345CD, offset: 0x2345CD, size: 0x8, addend: 0x0, symName: __ZNSt3__14endlB7v160006IcNS_11char_traitsIcEEEERNS_13basic_ostreamIT_T0_EES7_, symObjAddr: 0x32D8, symBinAddr: 0x100003D50, symSize: 0x90 }
  - { offsetInCU: 0x234B33, offset: 0x234B33, size: 0x8, addend: 0x0, symName: __ZNSt3__116__pad_and_outputB7v160006IcNS_11char_traitsIcEEEENS_19ostreambuf_iteratorIT_T0_EES6_PKS4_S8_S8_RNS_8ios_baseES4_, symObjAddr: 0x3554, symBinAddr: 0x100003FCC, symSize: 0x19C }
  - { offsetInCU: 0x235330, offset: 0x235330, size: 0x8, addend: 0x0, symName: __ZNSt3__120__throw_length_errorB7v160006EPKc, symObjAddr: 0x3704, symBinAddr: 0x10000417C, symSize: 0x50 }
  - { offsetInCU: 0x23A611, offset: 0x23A611, size: 0x8, addend: 0x0, symName: __ZSt28__throw_bad_array_new_lengthB7v160006v, symObjAddr: 0x2B90, symBinAddr: 0x100003608, symSize: 0x28 }
  - { offsetInCU: 0x23A681, offset: 0x23A681, size: 0x8, addend: 0x0, symName: __ZN4stan4math12_GLOBAL__N_115global_observerE, symObjAddr: 0x15C1FB0, symBinAddr: 0x100078180, symSize: 0x0 }
  - { offsetInCU: 0x23AA9B, offset: 0x23AA9B, size: 0x8, addend: 0x0, symName: __ZN4stan4mathL6LOG_PIE, symObjAddr: 0x15C2038, symBinAddr: 0x100078208, symSize: 0x0 }
  - { offsetInCU: 0x23AAB4, offset: 0x23AAB4, size: 0x8, addend: 0x0, symName: __ZN4stan4mathL11LOG_SQRT_PIE, symObjAddr: 0x15C2040, symBinAddr: 0x100078210, symSize: 0x0 }
  - { offsetInCU: 0x23AACD, offset: 0x23AACD, size: 0x8, addend: 0x0, symName: __ZN4stan4mathL16POISSON_MAX_RATEE, symObjAddr: 0x15C2048, symBinAddr: 0x100078218, symSize: 0x0 }
  - { offsetInCU: 0x23AAE6, offset: 0x23AAE6, size: 0x8, addend: 0x0, symName: __ZN4stan4mathL13MAJOR_VERSIONE, symObjAddr: 0x15C2058, symBinAddr: 0x100078228, symSize: 0x0 }
  - { offsetInCU: 0x23AAFF, offset: 0x23AAFF, size: 0x8, addend: 0x0, symName: __ZN4stan4mathL13MINOR_VERSIONE, symObjAddr: 0x15C2070, symBinAddr: 0x100078240, symSize: 0x0 }
  - { offsetInCU: 0x23AB18, offset: 0x23AB18, size: 0x8, addend: 0x0, symName: __ZN4stan4mathL13PATCH_VERSIONE, symObjAddr: 0x15C2088, symBinAddr: 0x100078258, symSize: 0x0 }
  - { offsetInCU: 0x23AB2C, offset: 0x23AB2C, size: 0x8, addend: 0x0, symName: __ZN4stan4math22AutodiffStackSingletonINS0_9vari_baseENS0_15chainable_allocEE9instance_E, symObjAddr: 0x3A7A0, symBinAddr: 0x100078148, symSize: 0x0 }
  - { offsetInCU: 0x23AB59, offset: 0x23AB59, size: 0x8, addend: 0x0, symName: __ZN4stan4mathL11LOG_EPSILONE, symObjAddr: 0x15C20E0, symBinAddr: 0x1000782B0, symSize: 0x0 }
  - { offsetInCU: 0x23AB72, offset: 0x23AB72, size: 0x8, addend: 0x0, symName: __ZN4stan4mathL12NOT_A_NUMBERE, symObjAddr: 0x385C8, symBinAddr: 0x10006C5F0, symSize: 0x0 }
  - { offsetInCU: 0x23C5A2, offset: 0x23C5A2, size: 0x8, addend: 0x0, symName: __ZN4stan4math8internal25eight_byte_aligned_mallocEm, symObjAddr: 0x30B0, symBinAddr: 0x100003B28, symSize: 0xFC }
  - { offsetInCU: 0x23CC19, offset: 0x23CC19, size: 0x8, addend: 0x0, symName: __ZN4stan4math8internal24finite_diff_hessian_autoIZZNS_4test8internal16expect_ad_helperIZN26simplex_row_constrain_test24expect_simplex_transformIN5Eigen6MatrixIdLin1ELin1ELi0ELin1ELin1EEEEEvRKT_EUlSD_E_ZNS4_11expect_ad_vISE_SA_EEvRKNS3_13ad_tolerancesESD_RKT0_EUlSD_E_JSA_EEEvSI_SD_SL_RKNS9_IdLin1ELi1ELi0ELin1ELi1EEEDpT1_ENKUliE_clEiEUlSD_E_EEvSD_SP_RdRSN_RSA_, symObjAddr: 0x17180, symBinAddr: 0x100017BF0, symSize: 0x650 }
  - { offsetInCU: 0x23EFE4, offset: 0x23EFE4, size: 0x8, addend: 0x0, symName: __ZN4stan4math8internal24finite_diff_hessian_autoIZZNS_4test8internal16expect_ad_helperIZN26simplex_row_constrain_test24expect_simplex_transformIN5Eigen6MatrixIdLin1ELin1ELi0ELin1ELin1EEEEEvRKT_EUlSD_E0_ZNS4_11expect_ad_vISE_SA_EEvRKNS3_13ad_tolerancesESD_RKT0_EUlSD_E_JSA_EEEvSI_SD_SL_RKNS9_IdLin1ELi1ELi0ELin1ELi1EEEDpT1_ENKUliE_clEiEUlSD_E_EEvSD_SP_RdRSN_RSA_, symObjAddr: 0x29558, symBinAddr: 0x100029E24, symSize: 0x650 }
  - { offsetInCU: 0x240EEE, offset: 0x240EEE, size: 0x8, addend: 0x0, symName: __ZN4stan4math8internal24finite_diff_hessian_autoIZZNS_4test8internal16expect_ad_helperIZN26simplex_row_constrain_test24expect_simplex_transformIN5Eigen6MatrixIdLin1ELin1ELi0ELin1ELin1EEEEEvRKT_EUlSD_E1_ZNS4_11expect_ad_vISE_SA_EEvRKNS3_13ad_tolerancesESD_RKT0_EUlSD_E_JSA_EEEvSI_SD_SL_RKNS9_IdLin1ELi1ELi0ELin1ELi1EEEDpT1_ENKUliE_clEiEUlSD_E_EEvSD_SP_RdRSN_RSA_, symObjAddr: 0x300B4, symBinAddr: 0x100030980, symSize: 0x650 }
  - { offsetInCU: 0x242D9E, offset: 0x242D9E, size: 0x8, addend: 0x0, symName: __ZN4stan4math14serialize_argsIJN5Eigen6MatrixIdLin1ELin1ELi0ELin1ELin1EEEEEENS3_IdLin1ELi1ELi0ELin1ELi1EEEDpKT_, symObjAddr: 0x9E54, symBinAddr: 0x10000A8C4, symSize: 0xE8 }
  - { offsetInCU: 0x243566, offset: 0x243566, size: 0x8, addend: 0x0, symName: __ZN4stan4math21simplex_row_constrainIN5Eigen6MatrixIdLin1ELin1ELi0ELin1ELin1EEELPv0ELS5_0EEEDaRKT_, symObjAddr: 0xA9A8, symBinAddr: 0x10000B418, symSize: 0x558 }
  - { offsetInCU: 0x244851, offset: 0x244851, size: 0x8, addend: 0x0, symName: __ZN4stan4math9serializeIdJN5Eigen6MatrixIdLin1ELin1ELi0ELin1ELin1EEEEEENSt3__16vectorIT_NS5_9allocatorIS7_EEEEDpKT0_, symObjAddr: 0xA224, symBinAddr: 0x10000AC94, symSize: 0x144 }
  - { offsetInCU: 0x245113, offset: 0x245113, size: 0x8, addend: 0x0, symName: __ZN4stan4math11to_array_1dIN5Eigen6MatrixIdLin1ELi1ELi0ELin1ELi1EEELPv0EEENSt3__16vectorINS_10value_typeIT_vE4typeENS6_9allocatorISB_EEEERKS9_, symObjAddr: 0xB148, symBinAddr: 0x10000BBB8, symSize: 0x17C }
  - { offsetInCU: 0x245D05, offset: 0x245D05, size: 0x8, addend: 0x0, symName: __ZN4stan4math11to_array_1dIN5Eigen6MatrixINS0_9var_valueIdvEELin1ELi1ELi0ELin1ELi1EEELPv0EEENSt3__16vectorINS_10value_typeIT_vE4typeENS8_9allocatorISD_EEEERKSB_, symObjAddr: 0xE440, symBinAddr: 0x10000EEB0, symSize: 0xEC }
  - { offsetInCU: 0x2461D8, offset: 0x2461D8, size: 0x8, addend: 0x0, symName: __ZN4stan4math21simplex_row_constrainIN5Eigen6MatrixINS0_9var_valueIdvEELin1ELin1ELi0ELin1ELin1EEELPv0EEEDaRKT_, symObjAddr: 0xEA38, symBinAddr: 0x10000F4A8, symSize: 0x7D0 }
  - { offsetInCU: 0x248881, offset: 0x248881, size: 0x8, addend: 0x0, symName: __ZN4stan4math9serializeINS0_9var_valueIdvEEJN5Eigen6MatrixIS3_Lin1ELin1ELi0ELin1ELin1EEEEEENSt3__16vectorIT_NS7_9allocatorIS9_EEEEDpKT0_, symObjAddr: 0xE634, symBinAddr: 0x10000F0A4, symSize: 0x144 }
  - { offsetInCU: 0x24929E, offset: 0x24929E, size: 0x8, addend: 0x0, symName: __ZN4stan4math11to_array_1dIN5Eigen6MatrixINS0_4fvarIdEELin1ELi1ELi0ELin1ELi1EEELPv0EEENSt3__16vectorINS_10value_typeIT_vE4typeENS8_9allocatorISD_EEEERKSB_, symObjAddr: 0xFB8C, symBinAddr: 0x1000105FC, symSize: 0xEC }
  - { offsetInCU: 0x249772, offset: 0x249772, size: 0x8, addend: 0x0, symName: __ZN4stan4math21simplex_row_constrainIN5Eigen6MatrixINS0_4fvarIdEELin1ELin1ELi0ELin1ELin1EEELPv0ELS7_0EEEDaRKT_, symObjAddr: 0xFFD8, symBinAddr: 0x100010A48, symSize: 0x52C }
  - { offsetInCU: 0x24A814, offset: 0x24A814, size: 0x8, addend: 0x0, symName: __ZN4stan4math9serializeINS0_4fvarIdEEJN5Eigen6MatrixIS3_Lin1ELin1ELi0ELin1ELin1EEEEEENSt3__16vectorIT_NS7_9allocatorIS9_EEEEDpKT0_, symObjAddr: 0xFD80, symBinAddr: 0x1000107F0, symSize: 0x144 }
  - { offsetInCU: 0x24B2EF, offset: 0x24B2EF, size: 0x8, addend: 0x0, symName: __ZN4stan4math11to_array_1dIN5Eigen6MatrixINS0_4fvarINS4_IdEEEELin1ELi1ELi0ELin1ELi1EEELPv0EEENSt3__16vectorINS_10value_typeIT_vE4typeENS9_9allocatorISE_EEEERKSC_, symObjAddr: 0x108FC, symBinAddr: 0x10001136C, symSize: 0xEC }
  - { offsetInCU: 0x24B7EE, offset: 0x24B7EE, size: 0x8, addend: 0x0, symName: __ZN4stan4math21simplex_row_constrainIN5Eigen6MatrixINS0_4fvarINS4_IdEEEELin1ELin1ELi0ELin1ELin1EEELPv0ELS8_0EEEDaRKT_, symObjAddr: 0x10D48, symBinAddr: 0x1000117B8, symSize: 0x4B0 }
  - { offsetInCU: 0x24C8A3, offset: 0x24C8A3, size: 0x8, addend: 0x0, symName: __ZN4stan4math9serializeINS0_4fvarINS2_IdEEEEJN5Eigen6MatrixIS4_Lin1ELin1ELi0ELin1ELin1EEEEEENSt3__16vectorIT_NS8_9allocatorISA_EEEEDpKT0_, symObjAddr: 0x10AF0, symBinAddr: 0x100011560, symSize: 0x144 }
  - { offsetInCU: 0x24D2BA, offset: 0x24D2BA, size: 0x8, addend: 0x0, symName: __ZN4stan4math9inv_logitINS0_4fvarIdEEEENS2_IT_EERKS5_, symObjAddr: 0x11328, symBinAddr: 0x100011D98, symSize: 0x340 }
  - { offsetInCU: 0x24D8F0, offset: 0x24D8F0, size: 0x8, addend: 0x0, symName: __ZN4stan4math11to_array_1dIN5Eigen6MatrixINS0_4fvarINS0_9var_valueIdvEEEELin1ELi1ELi0ELin1ELi1EEELPv0EEENSt3__16vectorINS_10value_typeIT_vE4typeENSA_9allocatorISF_EEEERKSD_, symObjAddr: 0x11AF8, symBinAddr: 0x100012568, symSize: 0xFC }
  - { offsetInCU: 0x24DE18, offset: 0x24DE18, size: 0x8, addend: 0x0, symName: __ZN4stan4math21simplex_row_constrainIN5Eigen6MatrixINS0_4fvarINS0_9var_valueIdvEEEELin1ELin1ELi0ELin1ELin1EEELPv0ELS9_0EEEDaRKT_, symObjAddr: 0x12008, symBinAddr: 0x100012A78, symSize: 0x51C }
  - { offsetInCU: 0x24FA5B, offset: 0x24FA5B, size: 0x8, addend: 0x0, symName: __ZN4stan4math9serializeINS0_4fvarINS0_9var_valueIdvEEEEJN5Eigen6MatrixIS5_Lin1ELin1ELi0ELin1ELin1EEEEEENSt3__16vectorIT_NS9_9allocatorISB_EEEEDpKT0_, symObjAddr: 0x11CFC, symBinAddr: 0x10001276C, symSize: 0x144 }
  - { offsetInCU: 0x2504B8, offset: 0x2504B8, size: 0x8, addend: 0x0, symName: __ZN4stan4math9inv_logitINS0_9var_valueIdvEEEENS0_4fvarIT_EERKS6_, symObjAddr: 0x12A98, symBinAddr: 0x100013508, symSize: 0x344 }
  - { offsetInCU: 0x250C1B, offset: 0x250C1B, size: 0x8, addend: 0x0, symName: __ZN4stan4mathmlINS0_9var_valueIdvEEEENS0_4fvarIT_EERKS6_S8_, symObjAddr: 0x12764, symBinAddr: 0x1000131D4, symSize: 0x1CC }
  - { offsetInCU: 0x2514AB, offset: 0x2514AB, size: 0x8, addend: 0x0, symName: __ZN4stan4math21simplex_row_constrainIN5Eigen6MatrixINS0_4fvarINS4_INS0_9var_valueIdvEEEEEELin1ELin1ELi0ELin1ELin1EEELPv0ELSA_0EEEDaRKT_, symObjAddr: 0x1373C, symBinAddr: 0x1000141AC, symSize: 0x52C }
  - { offsetInCU: 0x252A38, offset: 0x252A38, size: 0x8, addend: 0x0, symName: __ZN4stan4math9serializeINS0_4fvarINS2_INS0_9var_valueIdvEEEEEEJN5Eigen6MatrixIS6_Lin1ELin1ELi0ELin1ELin1EEEEEENSt3__16vectorIT_NSA_9allocatorISC_EEEEDpKT0_, symObjAddr: 0x134E4, symBinAddr: 0x100013F54, symSize: 0x144 }
  - { offsetInCU: 0x2533A2, offset: 0x2533A2, size: 0x8, addend: 0x0, symName: __ZN4stan4mathplINS0_9var_valueIdvEEEENS0_4fvarIT_EERKS6_S8_, symObjAddr: 0x13FD4, symBinAddr: 0x100014A44, symSize: 0x114 }
  - { offsetInCU: 0x25363C, offset: 0x25363C, size: 0x8, addend: 0x0, symName: __ZN4stan4mathmiINS0_9var_valueIdvEEEENS0_4fvarIT_EEdRKS6_, symObjAddr: 0x140E8, symBinAddr: 0x100014B58, symSize: 0x100 }
  - { offsetInCU: 0x2539C1, offset: 0x2539C1, size: 0x8, addend: 0x0, symName: __ZN4stan4math8gradientIZZNS_4test8internal16expect_ad_helperIZN26simplex_row_constrain_test24expect_simplex_transformIN5Eigen6MatrixIdLin1ELin1ELi0ELin1ELin1EEEEEvRKT_EUlSC_E_ZNS3_11expect_ad_vISD_S9_EEvRKNS2_13ad_tolerancesESC_RKT0_EUlSC_E_JS9_EEEvSH_SC_SK_RKNS8_IdLin1ELi1ELi0ELin1ELi1EEEDpT1_ENKUliE_clEiEUlSC_E_EEvSC_SO_RdRSM_, symObjAddr: 0x14F98, symBinAddr: 0x100015A08, symSize: 0x224 }
  - { offsetInCU: 0x254543, offset: 0x254543, size: 0x8, addend: 0x0, symName: __ZN4stan4math25finite_diff_gradient_autoIZZNS_4test8internal16expect_ad_helperIZN26simplex_row_constrain_test24expect_simplex_transformIN5Eigen6MatrixIdLin1ELin1ELi0ELin1ELin1EEEEEvRKT_EUlSC_E_ZNS3_11expect_ad_vISD_S9_EEvRKNS2_13ad_tolerancesESC_RKT0_EUlSC_E_JS9_EEEvSH_SC_SK_RKNS8_IdLin1ELi1ELi0ELin1ELi1EEEDpT1_ENKUliE_clEiEUlSC_E_SM_dEEvSC_SK_RT1_RSI_, symObjAddr: 0x151BC, symBinAddr: 0x100015C2C, symSize: 0x480 }
  - { offsetInCU: 0x256B3B, offset: 0x256B3B, size: 0x8, addend: 0x0, symName: __ZN4stan4math8gradientIdZZNS_4test8internal16expect_ad_helperIZN26simplex_row_constrain_test24expect_simplex_transformIN5Eigen6MatrixIdLin1ELin1ELi0ELin1ELin1EEEEEvRKT_EUlSC_E_ZNS3_11expect_ad_vISD_S9_EEvRKNS2_13ad_tolerancesESC_RKT0_EUlSC_E_JS9_EEEvSH_SC_SK_RKNS8_IdLin1ELi1ELi0ELin1ELi1EEEDpT1_ENKUliE_clEiEUlSC_E_EEvSK_RKNS8_ISA_Lin1ELi1ELi0ELin1ELi1EEERSA_RST_, symObjAddr: 0x16B04, symBinAddr: 0x100017574, symSize: 0x248 }
  - { offsetInCU: 0x25762E, offset: 0x25762E, size: 0x8, addend: 0x0, symName: __ZN4stan4math7hessianIZZNS_4test8internal16expect_ad_helperIZN26simplex_row_constrain_test24expect_simplex_transformIN5Eigen6MatrixIdLin1ELin1ELi0ELin1ELin1EEEEEvRKT_EUlSC_E_ZNS3_11expect_ad_vISD_S9_EEvRKNS2_13ad_tolerancesESC_RKT0_EUlSC_E_JS9_EEEvSH_SC_SK_RKNS8_IdLin1ELi1ELi0ELin1ELi1EEEDpT1_ENKUliE_clEiEUlSC_E_EEvSC_SO_RdRSM_RS9_, symObjAddr: 0x16D4C, symBinAddr: 0x1000177BC, symSize: 0x434 }
  - { offsetInCU: 0x25874E, offset: 0x25874E, size: 0x8, addend: 0x0, symName: __ZN4stan4math7hessianIdZZNS_4test8internal16expect_ad_helperIZN26simplex_row_constrain_test24expect_simplex_transformIN5Eigen6MatrixIdLin1ELin1ELi0ELin1ELin1EEEEEvRKT_EUlSC_E_ZNS3_11expect_ad_vISD_S9_EEvRKNS2_13ad_tolerancesESC_RKT0_EUlSC_E_JS9_EEEvSH_SC_SK_RKNS8_IdLin1ELi1ELi0ELin1ELi1EEEDpT1_ENKUliE_clEiEUlSC_E_EEvSK_RKNS8_ISA_Lin1ELi1ELi0ELin1ELi1EEERSA_RST_RNS8_ISA_Lin1ELin1ELi0ELin1ELin1EEE, symObjAddr: 0x186F4, symBinAddr: 0x100019164, symSize: 0x394 }
  - { offsetInCU: 0x259865, offset: 0x259865, size: 0x8, addend: 0x0, symName: __ZN4stan4math12grad_hessianIZZNS_4test8internal16expect_ad_helperIZN26simplex_row_constrain_test24expect_simplex_transformIN5Eigen6MatrixIdLin1ELin1ELi0ELin1ELin1EEEEEvRKT_EUlSC_E_ZNS3_11expect_ad_vISD_S9_EEvRKNS2_13ad_tolerancesESC_RKT0_EUlSC_E_JS9_EEEvSH_SC_SK_RKNS8_IdLin1ELi1ELi0ELin1ELi1EEEDpT1_ENKUliE_clEiEUlSC_E_EEvSC_SO_RdRS9_RNSt3__16vectorIS9_NSV_9allocatorIS9_EEEE, symObjAddr: 0x18A88, symBinAddr: 0x1000194F8, symSize: 0x534 }
  - { offsetInCU: 0x25B169, offset: 0x25B169, size: 0x8, addend: 0x0, symName: __ZN4stan4math29finite_diff_grad_hessian_autoIZZNS_4test8internal16expect_ad_helperIZN26simplex_row_constrain_test24expect_simplex_transformIN5Eigen6MatrixIdLin1ELin1ELi0ELin1ELin1EEEEEvRKT_EUlSC_E_ZNS3_11expect_ad_vISD_S9_EEvRKNS2_13ad_tolerancesESC_RKT0_EUlSC_E_JS9_EEEvSH_SC_SK_RKNS8_IdLin1ELi1ELi0ELin1ELi1EEEDpT1_ENKUliE_clEiEUlSC_E_EEvSC_SO_RdRS9_RNSt3__16vectorIS9_NSV_9allocatorIS9_EEEE, symObjAddr: 0x18FBC, symBinAddr: 0x100019A2C, symSize: 0x8F4 }
  - { offsetInCU: 0x25EE8C, offset: 0x25EE8C, size: 0x8, addend: 0x0, symName: __ZN4stan4math21simplex_row_constrainINS0_9var_valueIN5Eigen6MatrixIdLin1ELin1ELi0ELin1ELin1EEEvEELPv0EEEDaRKT_, symObjAddr: 0x1AFF0, symBinAddr: 0x10001BA60, symSize: 0x724 }
  - { offsetInCU: 0x260CF8, offset: 0x260CF8, size: 0x8, addend: 0x0, symName: __ZN4stan4math5applyIRKZN26simplex_row_constrain_test24expect_simplex_transformIN5Eigen6MatrixIdLin1ELin1ELi0ELin1ELin1EEEEEvRKT_EUlS9_E_RNSt3__15tupleIJNS5_INS0_9var_valueIdvEELin1ELin1ELi0ELin1ELin1EEEEEEEEDcOS7_OT0_, symObjAddr: 0x1A6A8, symBinAddr: 0x10001B118, symSize: 0x6C }
  - { offsetInCU: 0x260E85, offset: 0x260E85, size: 0x8, addend: 0x0, symName: __ZN4stan4math5applyIRKZN26simplex_row_constrain_test24expect_simplex_transformIN5Eigen6MatrixIdLin1ELin1ELi0ELin1ELin1EEEEEvRKT_EUlS9_E_RNSt3__15tupleIJNS0_9var_valueIS6_vEEEEEEEDcOS7_OT0_, symObjAddr: 0x1A714, symBinAddr: 0x10001B184, symSize: 0x64 }
  - { offsetInCU: 0x2611B9, offset: 0x2611B9, size: 0x8, addend: 0x0, symName: __ZN4stan4math21simplex_row_constrainIN5Eigen6MatrixIdLin1ELin1ELi0ELin1ELin1EEELPv0ELS5_0EEEDaRKT_RNS_10value_typeIS7_vE4typeE, symObjAddr: 0x1F1AC, symBinAddr: 0x10001FC1C, symSize: 0x714 }
  - { offsetInCU: 0x263BA0, offset: 0x263BA0, size: 0x8, addend: 0x0, symName: __ZN4stan4math18throw_domain_errorIdEEvPKcS3_RKT_S3_S3_, symObjAddr: 0x205F4, symBinAddr: 0x100020EC0, symSize: 0x24C }
  - { offsetInCU: 0x2642C0, offset: 0x2642C0, size: 0x8, addend: 0x0, symName: __ZN4stan4math21simplex_row_constrainIN5Eigen6MatrixINS0_9var_valueIdvEELin1ELin1ELi0ELin1ELin1EEELPv0EEEDaRKT_RNS_11scalar_typeIS9_vE4typeE, symObjAddr: 0x21DC4, symBinAddr: 0x100022690, symSize: 0xADC }
  - { offsetInCU: 0x267CD4, offset: 0x267CD4, size: 0x8, addend: 0x0, symName: __ZN4stan4math21simplex_row_constrainIN5Eigen6MatrixINS0_4fvarIdEELin1ELin1ELi0ELin1ELin1EEELPv0ELS7_0EEEDaRKT_RNS_10value_typeIS9_vE4typeE, symObjAddr: 0x22ED8, symBinAddr: 0x1000237A4, symSize: 0x5EC }
  - { offsetInCU: 0x2693CC, offset: 0x2693CC, size: 0x8, addend: 0x0, symName: __ZN4stan4math3sumIN5Eigen12CwiseUnaryOpIZNS0_18apply_scalar_unaryINS0_7log_funENS2_5ArrayINS0_4fvarIdEELin1ELi1ELi0ELin1ELi1EEEvE5applyERKS9_EUlOT_E_SB_EELPv0EEENS_10value_typeISD_vE4typeERKSD_, symObjAddr: 0x234C4, symBinAddr: 0x100023D90, symSize: 0x134 }
  - { offsetInCU: 0x269CB9, offset: 0x269CB9, size: 0x8, addend: 0x0, symName: __ZN4stan4math3sumIN5Eigen12CwiseUnaryOpIZNS0_18apply_scalar_unaryINS0_13log1p_exp_funENS3_INS2_8internal18scalar_opposite_opINS0_4fvarIdEEEEKNS2_5ArrayIS9_Lin1ELi1ELi0ELin1ELi1EEEEEvE5applyERKSE_EUlOT_E_SG_EELPv0EEENS_10value_typeISI_vE4typeERKSI_, symObjAddr: 0x235F8, symBinAddr: 0x100023EC4, symSize: 0x160 }
  - { offsetInCU: 0x26A4DC, offset: 0x26A4DC, size: 0x8, addend: 0x0, symName: __ZN4stan4math3sumIN5Eigen12CwiseUnaryOpIZNS0_18apply_scalar_unaryINS0_13log1p_exp_funENS2_5ArrayINS0_4fvarIdEELin1ELi1ELi0ELin1ELi1EEEvE5applyERKS9_EUlOT_E_SB_EELPv0EEENS_10value_typeISD_vE4typeERKSD_, symObjAddr: 0x23758, symBinAddr: 0x100024024, symSize: 0x134 }
  - { offsetInCU: 0x26AF7C, offset: 0x26AF7C, size: 0x8, addend: 0x0, symName: __ZN4stan4math21simplex_row_constrainIN5Eigen6MatrixINS0_4fvarINS4_IdEEEELin1ELin1ELi0ELin1ELin1EEELPv0ELS8_0EEEDaRKT_RNS_10value_typeISA_vE4typeE, symObjAddr: 0x23E90, symBinAddr: 0x10002475C, symSize: 0x60C }
  - { offsetInCU: 0x26CBD7, offset: 0x26CBD7, size: 0x8, addend: 0x0, symName: __ZN4stan4math3sumIN5Eigen12CwiseUnaryOpIZNS0_18apply_scalar_unaryINS0_7log_funENS2_5ArrayINS0_4fvarINS7_IdEEEELin1ELi1ELi0ELin1ELi1EEEvE5applyERKSA_EUlOT_E_SC_EELPv0EEENS_10value_typeISE_vE4typeERKSE_, symObjAddr: 0x2449C, symBinAddr: 0x100024D68, symSize: 0x1E8 }
  - { offsetInCU: 0x26D527, offset: 0x26D527, size: 0x8, addend: 0x0, symName: __ZN4stan4math3sumIN5Eigen12CwiseUnaryOpIZNS0_18apply_scalar_unaryINS0_13log1p_exp_funENS3_INS2_8internal18scalar_opposite_opINS0_4fvarINS8_IdEEEEEEKNS2_5ArrayISA_Lin1ELi1ELi0ELin1ELi1EEEEEvE5applyERKSF_EUlOT_E_SH_EELPv0EEENS_10value_typeISJ_vE4typeERKSJ_, symObjAddr: 0x24684, symBinAddr: 0x100024F50, symSize: 0x100 }
  - { offsetInCU: 0x26DBA2, offset: 0x26DBA2, size: 0x8, addend: 0x0, symName: __ZN4stan4math3sumIN5Eigen12CwiseUnaryOpINS2_9ArrayBaseINS2_3RefIKNS2_5ArrayINS0_4fvarINS7_IdEEEELin1ELi1ELi0ELin1ELi1EEELi0ENS2_11InnerStrideILi1EEEEEE6val_OpEKSE_EELPv0EEENS_10value_typeIT_vE4typeERKSL_, symObjAddr: 0x24784, symBinAddr: 0x100025050, symSize: 0x134 }
  - { offsetInCU: 0x26E491, offset: 0x26E491, size: 0x8, addend: 0x0, symName: __ZN4stan4math3sumIN5Eigen12CwiseUnaryOpINS2_9ArrayBaseINS2_3RefIKNS2_5ArrayINS0_4fvarINS7_IdEEEELin1ELi1ELi0ELin1ELi1EEELi0ENS2_11InnerStrideILi1EEEEEE4d_OpEKSE_EELPv0EEENS_10value_typeIT_vE4typeERKSL_, symObjAddr: 0x248B8, symBinAddr: 0x100025184, symSize: 0x134 }
  - { offsetInCU: 0x26EECA, offset: 0x26EECA, size: 0x8, addend: 0x0, symName: __ZN4stan4math9log1p_expINS0_4fvarIdEEEENS2_IT_EERKS5_, symObjAddr: 0x24C1C, symBinAddr: 0x1000254E8, symSize: 0x238 }
  - { offsetInCU: 0x26F213, offset: 0x26F213, size: 0x8, addend: 0x0, symName: __ZN4stan4math21simplex_row_constrainIN5Eigen6MatrixINS0_4fvarINS0_9var_valueIdvEEEELin1ELin1ELi0ELin1ELin1EEELPv0ELS9_0EEEDaRKT_RNS_10value_typeISB_vE4typeE, symObjAddr: 0x25044, symBinAddr: 0x100025910, symSize: 0x4A0 }
  - { offsetInCU: 0x270712, offset: 0x270712, size: 0x8, addend: 0x0, symName: __ZN4stan4math3sumIN5Eigen12CwiseUnaryOpIZNS0_18apply_scalar_unaryINS0_7log_funENS2_5ArrayINS0_4fvarINS0_9var_valueIdvEEEELin1ELi1ELi0ELin1ELi1EEEvE5applyERKSB_EUlOT_E_SD_EELPv0EEENS_10value_typeISF_vE4typeERKSF_, symObjAddr: 0x254E4, symBinAddr: 0x100025DB0, symSize: 0xA4 }
  - { offsetInCU: 0x270C1E, offset: 0x270C1E, size: 0x8, addend: 0x0, symName: __ZN4stan4math3sumIN5Eigen12CwiseUnaryOpIZNS0_18apply_scalar_unaryINS0_13log1p_exp_funENS3_INS2_8internal18scalar_opposite_opINS0_4fvarINS0_9var_valueIdvEEEEEEKNS2_5ArrayISB_Lin1ELi1ELi0ELin1ELi1EEEEEvE5applyERKSG_EUlOT_E_SI_EELPv0EEENS_10value_typeISK_vE4typeERKSK_, symObjAddr: 0x25684, symBinAddr: 0x100025F50, symSize: 0x184 }
  - { offsetInCU: 0x271699, offset: 0x271699, size: 0x8, addend: 0x0, symName: __ZN4stan4math3sumIN5Eigen12CwiseUnaryOpIZNS0_18apply_scalar_unaryINS0_13log1p_exp_funENS2_5ArrayINS0_4fvarINS0_9var_valueIdvEEEELin1ELi1ELi0ELin1ELi1EEEvE5applyERKSB_EUlOT_E_SD_EELPv0EEENS_10value_typeISF_vE4typeERKSF_, symObjAddr: 0x25808, symBinAddr: 0x1000260D4, symSize: 0xA4 }
  - { offsetInCU: 0x271BA5, offset: 0x271BA5, size: 0x8, addend: 0x0, symName: __ZN4stan4math3sumIN5Eigen12CwiseUnaryOpINS2_9ArrayBaseINS2_3RefIKNS2_5ArrayINS0_4fvarINS0_9var_valueIdvEEEELin1ELi1ELi0ELin1ELi1EEELi0ENS2_11InnerStrideILi1EEEEEE6val_OpEKSF_EELPv0EEES9_RKT_, symObjAddr: 0x259D0, symBinAddr: 0x10002629C, symSize: 0x138 }
  - { offsetInCU: 0x2722E7, offset: 0x2722E7, size: 0x8, addend: 0x0, symName: __ZN4stan4math3sumIN5Eigen12CwiseUnaryOpINS2_9ArrayBaseINS2_3RefIKNS2_5ArrayINS0_4fvarINS0_9var_valueIdvEEEELin1ELi1ELi0ELin1ELi1EEELi0ENS2_11InnerStrideILi1EEEEEE4d_OpEKSF_EELPv0EEES9_RKT_, symObjAddr: 0x25B08, symBinAddr: 0x1000263D4, symSize: 0x138 }
  - { offsetInCU: 0x272A70, offset: 0x272A70, size: 0x8, addend: 0x0, symName: __ZN4stan4mathngINS0_9var_valueIdvEEEENS0_4fvarIT_EERKS6_, symObjAddr: 0x263FC, symBinAddr: 0x100026CC8, symSize: 0xF8 }
  - { offsetInCU: 0x272C8E, offset: 0x272C8E, size: 0x8, addend: 0x0, symName: __ZN4stan4math9log1p_expINS0_9var_valueIdvEEEENS0_4fvarIT_EERKS6_, symObjAddr: 0x260F4, symBinAddr: 0x1000269C0, symSize: 0x158 }
  - { offsetInCU: 0x2730F4, offset: 0x2730F4, size: 0x8, addend: 0x0, symName: __ZN4stan4math3logINS0_9var_valueIdvEEEENS0_4fvarIT_EERKS6_, symObjAddr: 0x25CF0, symBinAddr: 0x1000265BC, symSize: 0x124 }
  - { offsetInCU: 0x27367B, offset: 0x27367B, size: 0x8, addend: 0x0, symName: __ZN4stan4math9log1p_expIdLPv0EEEDaRKNS0_9var_valueIT_vEE, symObjAddr: 0x2624C, symBinAddr: 0x100026B18, symSize: 0x194 }
  - { offsetInCU: 0x273999, offset: 0x273999, size: 0x8, addend: 0x0, symName: __ZN4stan4math21simplex_row_constrainIN5Eigen6MatrixINS0_4fvarINS4_INS0_9var_valueIdvEEEEEELin1ELin1ELi0ELin1ELin1EEELPv0ELSA_0EEEDaRKT_RNS_10value_typeISC_vE4typeE, symObjAddr: 0x26744, symBinAddr: 0x100027010, symSize: 0x64C }
  - { offsetInCU: 0x275B41, offset: 0x275B41, size: 0x8, addend: 0x0, symName: __ZN4stan4math3sumIN5Eigen12CwiseUnaryOpIZNS0_18apply_scalar_unaryINS0_7log_funENS2_5ArrayINS0_4fvarINS7_INS0_9var_valueIdvEEEEEELin1ELi1ELi0ELin1ELi1EEEvE5applyERKSC_EUlOT_E_SE_EELPv0EEENS_10value_typeISG_vE4typeERKSG_, symObjAddr: 0x26D90, symBinAddr: 0x10002765C, symSize: 0xFC }
  - { offsetInCU: 0x2762A0, offset: 0x2762A0, size: 0x8, addend: 0x0, symName: __ZN4stan4math3sumIN5Eigen12CwiseUnaryOpIZNS0_18apply_scalar_unaryINS0_13log1p_exp_funENS3_INS2_8internal18scalar_opposite_opINS0_4fvarINS8_INS0_9var_valueIdvEEEEEEEEKNS2_5ArrayISC_Lin1ELi1ELi0ELin1ELi1EEEEEvE5applyERKSH_EUlOT_E_SJ_EELPv0EEENS_10value_typeISL_vE4typeERKSL_, symObjAddr: 0x26E8C, symBinAddr: 0x100027758, symSize: 0xFC }
  - { offsetInCU: 0x276A1D, offset: 0x276A1D, size: 0x8, addend: 0x0, symName: __ZN4stan4math3sumIN5Eigen12CwiseUnaryOpIZNS0_18apply_scalar_unaryINS0_13log1p_exp_funENS2_5ArrayINS0_4fvarINS7_INS0_9var_valueIdvEEEEEELin1ELi1ELi0ELin1ELi1EEEvE5applyERKSC_EUlOT_E_SE_EELPv0EEENS_10value_typeISG_vE4typeERKSG_, symObjAddr: 0x26F88, symBinAddr: 0x100027854, symSize: 0xFC }
  - { offsetInCU: 0x27717C, offset: 0x27717C, size: 0x8, addend: 0x0, symName: __ZN4stan4math3sumIN5Eigen12CwiseUnaryOpINS2_9ArrayBaseINS2_3RefIKNS2_5ArrayINS0_4fvarINS7_INS0_9var_valueIdvEEEEEELin1ELi1ELi0ELin1ELi1EEELi0ENS2_11InnerStrideILi1EEEEEE6val_OpEKSG_EELPv0EEENS_10value_typeIT_vE4typeERKSN_, symObjAddr: 0x272C0, symBinAddr: 0x100027B8C, symSize: 0xA4 }
  - { offsetInCU: 0x27768A, offset: 0x27768A, size: 0x8, addend: 0x0, symName: __ZN4stan4math3sumIN5Eigen12CwiseUnaryOpINS2_9ArrayBaseINS2_3RefIKNS2_5ArrayINS0_4fvarINS7_INS0_9var_valueIdvEEEEEELin1ELi1ELi0ELin1ELi1EEELi0ENS2_11InnerStrideILi1EEEEEE4d_OpEKSG_EELPv0EEENS_10value_typeIT_vE4typeERKSN_, symObjAddr: 0x27364, symBinAddr: 0x100027C30, symSize: 0xA4 }
  - { offsetInCU: 0x277C74, offset: 0x277C74, size: 0x8, addend: 0x0, symName: __ZN4stan4mathdvINS0_9var_valueIdvEEEENS0_4fvarIT_EERKS6_S8_, symObjAddr: 0x27514, symBinAddr: 0x100027DE0, symSize: 0x280 }
  - { offsetInCU: 0x27832E, offset: 0x27832E, size: 0x8, addend: 0x0, symName: __ZN4stan4math8gradientIZZNS_4test8internal16expect_ad_helperIZN26simplex_row_constrain_test24expect_simplex_transformIN5Eigen6MatrixIdLin1ELin1ELi0ELin1ELin1EEEEEvRKT_EUlSC_E0_ZNS3_11expect_ad_vISD_S9_EEvRKNS2_13ad_tolerancesESC_RKT0_EUlSC_E_JS9_EEEvSH_SC_SK_RKNS8_IdLin1ELi1ELi0ELin1ELi1EEEDpT1_ENKUliE_clEiEUlSC_E_EEvSC_SO_RdRSM_, symObjAddr: 0x28838, symBinAddr: 0x100029104, symSize: 0x224 }
  - { offsetInCU: 0x278EB0, offset: 0x278EB0, size: 0x8, addend: 0x0, symName: __ZN4stan4math25finite_diff_gradient_autoIZZNS_4test8internal16expect_ad_helperIZN26simplex_row_constrain_test24expect_simplex_transformIN5Eigen6MatrixIdLin1ELin1ELi0ELin1ELin1EEEEEvRKT_EUlSC_E0_ZNS3_11expect_ad_vISD_S9_EEvRKNS2_13ad_tolerancesESC_RKT0_EUlSC_E_JS9_EEEvSH_SC_SK_RKNS8_IdLin1ELi1ELi0ELin1ELi1EEEDpT1_ENKUliE_clEiEUlSC_E_SM_dEEvSC_SK_RT1_RSI_, symObjAddr: 0x28A5C, symBinAddr: 0x100029328, symSize: 0x480 }
  - { offsetInCU: 0x27B4A8, offset: 0x27B4A8, size: 0x8, addend: 0x0, symName: __ZN4stan4math8gradientIdZZNS_4test8internal16expect_ad_helperIZN26simplex_row_constrain_test24expect_simplex_transformIN5Eigen6MatrixIdLin1ELin1ELi0ELin1ELin1EEEEEvRKT_EUlSC_E0_ZNS3_11expect_ad_vISD_S9_EEvRKNS2_13ad_tolerancesESC_RKT0_EUlSC_E_JS9_EEEvSH_SC_SK_RKNS8_IdLin1ELi1ELi0ELin1ELi1EEEDpT1_ENKUliE_clEiEUlSC_E_EEvSK_RKNS8_ISA_Lin1ELi1ELi0ELin1ELi1EEERSA_RST_, symObjAddr: 0x28EDC, symBinAddr: 0x1000297A8, symSize: 0x248 }
  - { offsetInCU: 0x27BF9B, offset: 0x27BF9B, size: 0x8, addend: 0x0, symName: __ZN4stan4math7hessianIZZNS_4test8internal16expect_ad_helperIZN26simplex_row_constrain_test24expect_simplex_transformIN5Eigen6MatrixIdLin1ELin1ELi0ELin1ELin1EEEEEvRKT_EUlSC_E0_ZNS3_11expect_ad_vISD_S9_EEvRKNS2_13ad_tolerancesESC_RKT0_EUlSC_E_JS9_EEEvSH_SC_SK_RKNS8_IdLin1ELi1ELi0ELin1ELi1EEEDpT1_ENKUliE_clEiEUlSC_E_EEvSC_SO_RdRSM_RS9_, symObjAddr: 0x29124, symBinAddr: 0x1000299F0, symSize: 0x434 }
  - { offsetInCU: 0x27D0BB, offset: 0x27D0BB, size: 0x8, addend: 0x0, symName: __ZN4stan4math7hessianIdZZNS_4test8internal16expect_ad_helperIZN26simplex_row_constrain_test24expect_simplex_transformIN5Eigen6MatrixIdLin1ELin1ELi0ELin1ELin1EEEEEvRKT_EUlSC_E0_ZNS3_11expect_ad_vISD_S9_EEvRKNS2_13ad_tolerancesESC_RKT0_EUlSC_E_JS9_EEEvSH_SC_SK_RKNS8_IdLin1ELi1ELi0ELin1ELi1EEEDpT1_ENKUliE_clEiEUlSC_E_EEvSK_RKNS8_ISA_Lin1ELi1ELi0ELin1ELi1EEERSA_RST_RNS8_ISA_Lin1ELin1ELi0ELin1ELin1EEE, symObjAddr: 0x29BA8, symBinAddr: 0x10002A474, symSize: 0x394 }
  - { offsetInCU: 0x27E1D2, offset: 0x27E1D2, size: 0x8, addend: 0x0, symName: __ZN4stan4math12grad_hessianIZZNS_4test8internal16expect_ad_helperIZN26simplex_row_constrain_test24expect_simplex_transformIN5Eigen6MatrixIdLin1ELin1ELi0ELin1ELin1EEEEEvRKT_EUlSC_E0_ZNS3_11expect_ad_vISD_S9_EEvRKNS2_13ad_tolerancesESC_RKT0_EUlSC_E_JS9_EEEvSH_SC_SK_RKNS8_IdLin1ELi1ELi0ELin1ELi1EEEDpT1_ENKUliE_clEiEUlSC_E_EEvSC_SO_RdRS9_RNSt3__16vectorIS9_NSV_9allocatorIS9_EEEE, symObjAddr: 0x29F3C, symBinAddr: 0x10002A808, symSize: 0x534 }
  - { offsetInCU: 0x27FAD6, offset: 0x27FAD6, size: 0x8, addend: 0x0, symName: __ZN4stan4math29finite_diff_grad_hessian_autoIZZNS_4test8internal16expect_ad_helperIZN26simplex_row_constrain_test24expect_simplex_transformIN5Eigen6MatrixIdLin1ELin1ELi0ELin1ELin1EEEEEvRKT_EUlSC_E0_ZNS3_11expect_ad_vISD_S9_EEvRKNS2_13ad_tolerancesESC_RKT0_EUlSC_E_JS9_EEEvSH_SC_SK_RKNS8_IdLin1ELi1ELi0ELin1ELi1EEEDpT1_ENKUliE_clEiEUlSC_E_EEvSC_SO_RdRS9_RNSt3__16vectorIS9_NSV_9allocatorIS9_EEEE, symObjAddr: 0x2A470, symBinAddr: 0x10002AD3C, symSize: 0x8F4 }
  - { offsetInCU: 0x283670, offset: 0x283670, size: 0x8, addend: 0x0, symName: __ZN4stan4math21simplex_row_constrainINS0_9var_valueIN5Eigen6MatrixIdLin1ELin1ELi0ELin1ELin1EEEvEELPv0EEEDaRKT_RNS_11scalar_typeIS9_vE4typeE, symObjAddr: 0x2B3B0, symBinAddr: 0x10002BC7C, symSize: 0xA30 }
  - { offsetInCU: 0x286849, offset: 0x286849, size: 0x8, addend: 0x0, symName: __ZN4stan4math5applyIRKZN26simplex_row_constrain_test24expect_simplex_transformIN5Eigen6MatrixIdLin1ELin1ELi0ELin1ELin1EEEEEvRKT_EUlS9_E0_RNSt3__15tupleIJNS5_INS0_9var_valueIdvEELin1ELin1ELi0ELin1ELin1EEEEEEEEDcOS7_OT0_, symObjAddr: 0x2B2B8, symBinAddr: 0x10002BB84, symSize: 0x80 }
  - { offsetInCU: 0x2869B1, offset: 0x2869B1, size: 0x8, addend: 0x0, symName: __ZN4stan4math5applyIRKZN26simplex_row_constrain_test24expect_simplex_transformIN5Eigen6MatrixIdLin1ELin1ELi0ELin1ELin1EEEEEvRKT_EUlS9_E0_RNSt3__15tupleIJNS0_9var_valueIS6_vEEEEEEEDcOS7_OT0_, symObjAddr: 0x2B338, symBinAddr: 0x10002BC04, symSize: 0x78 }
  - { offsetInCU: 0x286B36, offset: 0x286B36, size: 0x8, addend: 0x0, symName: __ZN4stan4math9serializeIdJdEEENSt3__16vectorIT_NS2_9allocatorIS4_EEEEDpKT0_, symObjAddr: 0x2C6FC, symBinAddr: 0x10002CFC8, symSize: 0xF4 }
  - { offsetInCU: 0x2872FC, offset: 0x2872FC, size: 0x8, addend: 0x0, symName: __ZN4stan4math9serializeINS0_9var_valueIdvEEJS3_EEENSt3__16vectorIT_NS4_9allocatorIS6_EEEEDpKT0_, symObjAddr: 0x2DD50, symBinAddr: 0x10002E61C, symSize: 0xF0 }
  - { offsetInCU: 0x287A9B, offset: 0x287A9B, size: 0x8, addend: 0x0, symName: __ZN4stan4math9serializeINS0_4fvarIdEEJS3_EEENSt3__16vectorIT_NS4_9allocatorIS6_EEEEDpKT0_, symObjAddr: 0x2DF80, symBinAddr: 0x10002E84C, symSize: 0xF4 }
  - { offsetInCU: 0x28825C, offset: 0x28825C, size: 0x8, addend: 0x0, symName: __ZN4stan4math9serializeINS0_4fvarINS2_IdEEEEJS4_EEENSt3__16vectorIT_NS5_9allocatorIS7_EEEEDpKT0_, symObjAddr: 0x2E134, symBinAddr: 0x10002EA00, symSize: 0xF8 }
  - { offsetInCU: 0x288A1D, offset: 0x288A1D, size: 0x8, addend: 0x0, symName: __ZN4stan4math9serializeINS0_4fvarINS0_9var_valueIdvEEEEJS5_EEENSt3__16vectorIT_NS6_9allocatorIS8_EEEEDpKT0_, symObjAddr: 0x2E2F0, symBinAddr: 0x10002EBBC, symSize: 0xF4 }
  - { offsetInCU: 0x2891DE, offset: 0x2891DE, size: 0x8, addend: 0x0, symName: __ZN4stan4math9serializeINS0_4fvarINS2_INS0_9var_valueIdvEEEEEEJS6_EEENSt3__16vectorIT_NS7_9allocatorIS9_EEEEDpKT0_, symObjAddr: 0x2E524, symBinAddr: 0x10002EDF0, symSize: 0xF0 }
  - { offsetInCU: 0x289978, offset: 0x289978, size: 0x8, addend: 0x0, symName: __ZN4stan4math8gradientIZZNS_4test8internal16expect_ad_helperIZN26simplex_row_constrain_test24expect_simplex_transformIN5Eigen6MatrixIdLin1ELin1ELi0ELin1ELin1EEEEEvRKT_EUlSC_E1_ZNS3_11expect_ad_vISD_S9_EEvRKNS2_13ad_tolerancesESC_RKT0_EUlSC_E_JS9_EEEvSH_SC_SK_RKNS8_IdLin1ELi1ELi0ELin1ELi1EEEDpT1_ENKUliE_clEiEUlSC_E_EEvSC_SO_RdRSM_, symObjAddr: 0x2F394, symBinAddr: 0x10002FC60, symSize: 0x224 }
  - { offsetInCU: 0x28A4FA, offset: 0x28A4FA, size: 0x8, addend: 0x0, symName: __ZN4stan4math25finite_diff_gradient_autoIZZNS_4test8internal16expect_ad_helperIZN26simplex_row_constrain_test24expect_simplex_transformIN5Eigen6MatrixIdLin1ELin1ELi0ELin1ELin1EEEEEvRKT_EUlSC_E1_ZNS3_11expect_ad_vISD_S9_EEvRKNS2_13ad_tolerancesESC_RKT0_EUlSC_E_JS9_EEEvSH_SC_SK_RKNS8_IdLin1ELi1ELi0ELin1ELi1EEEDpT1_ENKUliE_clEiEUlSC_E_SM_dEEvSC_SK_RT1_RSI_, symObjAddr: 0x2F5B8, symBinAddr: 0x10002FE84, symSize: 0x480 }
  - { offsetInCU: 0x28CAF2, offset: 0x28CAF2, size: 0x8, addend: 0x0, symName: __ZN4stan4math8gradientIdZZNS_4test8internal16expect_ad_helperIZN26simplex_row_constrain_test24expect_simplex_transformIN5Eigen6MatrixIdLin1ELin1ELi0ELin1ELin1EEEEEvRKT_EUlSC_E1_ZNS3_11expect_ad_vISD_S9_EEvRKNS2_13ad_tolerancesESC_RKT0_EUlSC_E_JS9_EEEvSH_SC_SK_RKNS8_IdLin1ELi1ELi0ELin1ELi1EEEDpT1_ENKUliE_clEiEUlSC_E_EEvSK_RKNS8_ISA_Lin1ELi1ELi0ELin1ELi1EEERSA_RST_, symObjAddr: 0x2FA38, symBinAddr: 0x100030304, symSize: 0x248 }
  - { offsetInCU: 0x28D5E5, offset: 0x28D5E5, size: 0x8, addend: 0x0, symName: __ZN4stan4math7hessianIZZNS_4test8internal16expect_ad_helperIZN26simplex_row_constrain_test24expect_simplex_transformIN5Eigen6MatrixIdLin1ELin1ELi0ELin1ELin1EEEEEvRKT_EUlSC_E1_ZNS3_11expect_ad_vISD_S9_EEvRKNS2_13ad_tolerancesESC_RKT0_EUlSC_E_JS9_EEEvSH_SC_SK_RKNS8_IdLin1ELi1ELi0ELin1ELi1EEEDpT1_ENKUliE_clEiEUlSC_E_EEvSC_SO_RdRSM_RS9_, symObjAddr: 0x2FC80, symBinAddr: 0x10003054C, symSize: 0x434 }
  - { offsetInCU: 0x28E705, offset: 0x28E705, size: 0x8, addend: 0x0, symName: __ZN4stan4math7hessianIdZZNS_4test8internal16expect_ad_helperIZN26simplex_row_constrain_test24expect_simplex_transformIN5Eigen6MatrixIdLin1ELin1ELi0ELin1ELin1EEEEEvRKT_EUlSC_E1_ZNS3_11expect_ad_vISD_S9_EEvRKNS2_13ad_tolerancesESC_RKT0_EUlSC_E_JS9_EEEvSH_SC_SK_RKNS8_IdLin1ELi1ELi0ELin1ELi1EEEDpT1_ENKUliE_clEiEUlSC_E_EEvSK_RKNS8_ISA_Lin1ELi1ELi0ELin1ELi1EEERSA_RST_RNS8_ISA_Lin1ELin1ELi0ELin1ELin1EEE, symObjAddr: 0x30704, symBinAddr: 0x100030FD0, symSize: 0x394 }
  - { offsetInCU: 0x28F81C, offset: 0x28F81C, size: 0x8, addend: 0x0, symName: __ZN4stan4math12grad_hessianIZZNS_4test8internal16expect_ad_helperIZN26simplex_row_constrain_test24expect_simplex_transformIN5Eigen6MatrixIdLin1ELin1ELi0ELin1ELin1EEEEEvRKT_EUlSC_E1_ZNS3_11expect_ad_vISD_S9_EEvRKNS2_13ad_tolerancesESC_RKT0_EUlSC_E_JS9_EEEvSH_SC_SK_RKNS8_IdLin1ELi1ELi0ELin1ELi1EEEDpT1_ENKUliE_clEiEUlSC_E_EEvSC_SO_RdRS9_RNSt3__16vectorIS9_NSV_9allocatorIS9_EEEE, symObjAddr: 0x30A98, symBinAddr: 0x100031364, symSize: 0x534 }
  - { offsetInCU: 0x291120, offset: 0x291120, size: 0x8, addend: 0x0, symName: __ZN4stan4math29finite_diff_grad_hessian_autoIZZNS_4test8internal16expect_ad_helperIZN26simplex_row_constrain_test24expect_simplex_transformIN5Eigen6MatrixIdLin1ELin1ELi0ELin1ELin1EEEEEvRKT_EUlSC_E1_ZNS3_11expect_ad_vISD_S9_EEvRKNS2_13ad_tolerancesESC_RKT0_EUlSC_E_JS9_EEEvSH_SC_SK_RKNS8_IdLin1ELi1ELi0ELin1ELi1EEEDpT1_ENKUliE_clEiEUlSC_E_EEvSC_SO_RdRS9_RNSt3__16vectorIS9_NSV_9allocatorIS9_EEEE, symObjAddr: 0x30FCC, symBinAddr: 0x100031898, symSize: 0x8F4 }
  - { offsetInCU: 0x294C77, offset: 0x294C77, size: 0x8, addend: 0x0, symName: __ZN4stan4math5applyIRKZN26simplex_row_constrain_test24expect_simplex_transformIN5Eigen6MatrixIdLin1ELin1ELi0ELin1ELin1EEEEEvRKT_EUlS9_E1_RNSt3__15tupleIJNS0_9var_valueIS6_vEEEEEEEDcOS7_OT0_, symObjAddr: 0x31D88, symBinAddr: 0x100032654, symSize: 0x7C }
  - { offsetInCU: 0x294DE4, offset: 0x294DE4, size: 0x8, addend: 0x0, symName: __ZN4stan4test8internal19common_nonzero_argsEv, symObjAddr: 0x490, symBinAddr: 0x100000F08, symSize: 0xEC }
  - { offsetInCU: 0x294E05, offset: 0x294E05, size: 0x8, addend: 0x0, symName: __ZZN4stan4test8internal19common_nonzero_argsEvE14common_nz_args, symObjAddr: 0x15C20A0, symBinAddr: 0x100078270, symSize: 0x0 }
  - { offsetInCU: 0x294E28, offset: 0x294E28, size: 0x8, addend: 0x0, symName: __ZN4stan4test8internal23common_nonzero_int_argsEv, symObjAddr: 0x86C, symBinAddr: 0x1000012E4, symSize: 0x14C }
  - { offsetInCU: 0x294E54, offset: 0x294E54, size: 0x8, addend: 0x0, symName: __ZZN4stan4test8internal23common_nonzero_int_argsEvE4args, symObjAddr: 0x15C20C0, symBinAddr: 0x100078290, symSize: 0x0 }
  - { offsetInCU: 0x2951CA, offset: 0x2951CA, size: 0x8, addend: 0x0, symName: __ZN4stan4test8internal4evalERKNS_4math9var_valueIdvEE, symObjAddr: 0x488, symBinAddr: 0x100000F00, symSize: 0x8 }
  - { offsetInCU: 0x295209, offset: 0x295209, size: 0x8, addend: 0x0, symName: __ZN4stan4test8internal11common_argsEv, symObjAddr: 0x63C, symBinAddr: 0x1000010B4, symSize: 0x230 }
  - { offsetInCU: 0x2958CA, offset: 0x2958CA, size: 0x8, addend: 0x0, symName: __ZN4stan4test8internal15common_int_argsEv, symObjAddr: 0xA78, symBinAddr: 0x1000014F0, symSize: 0x118 }
  - { offsetInCU: 0x295E9A, offset: 0x295E9A, size: 0x8, addend: 0x0, symName: __ZN4stan4test8internal11expect_ad_vIZN26simplex_row_constrain_test24expect_simplex_transformIN5Eigen6MatrixIdLin1ELin1ELi0ELin1ELin1EEEEEvRKT_EUlSA_E_S7_EEvRKNS0_13ad_tolerancesESA_RKT0_, symObjAddr: 0x9AE4, symBinAddr: 0x10000A554, symSize: 0x100 }
  - { offsetInCU: 0x29685C, offset: 0x29685C, size: 0x8, addend: 0x0, symName: __ZN4stan4test8internal11expect_ad_vIZN26simplex_row_constrain_test24expect_simplex_transformIN5Eigen6MatrixIdLin1ELin1ELi0ELin1ELin1EEEEEvRKT_EUlSA_E0_S7_EEvRKNS0_13ad_tolerancesESA_RKT0_, symObjAddr: 0x1EA2C, symBinAddr: 0x10001F49C, symSize: 0x100 }
  - { offsetInCU: 0x29721E, offset: 0x29721E, size: 0x8, addend: 0x0, symName: __ZN4stan4test8internal11expect_ad_vIZN26simplex_row_constrain_test24expect_simplex_transformIN5Eigen6MatrixIdLin1ELin1ELi0ELin1ELin1EEEEEvRKT_EUlSA_E1_S7_EEvRKNS0_13ad_tolerancesESA_RKT0_, symObjAddr: 0x2C350, symBinAddr: 0x10002CC1C, symSize: 0x100 }
  - { offsetInCU: 0x297BE0, offset: 0x297BE0, size: 0x8, addend: 0x0, symName: __ZN4stan4test8internal16expect_ad_helperIZN26simplex_row_constrain_test24expect_simplex_transformIN5Eigen6MatrixIdLin1ELin1ELi0ELin1ELin1EEEEEvRKT_EUlSA_E_ZNS1_11expect_ad_vISB_S7_EEvRKNS0_13ad_tolerancesESA_RKT0_EUlSA_E_JS7_EEEvSF_SA_SI_RKNS6_IdLin1ELi1ELi0ELin1ELi1EEEDpT1_, symObjAddr: 0x9BE4, symBinAddr: 0x10000A654, symSize: 0x270 }
  - { offsetInCU: 0x2990E2, offset: 0x2990E2, size: 0x8, addend: 0x0, symName: __ZN4stan4test8internal4evalIdEEDaRKNSt3__16vectorIT_NS4_9allocatorIS6_EEEE, symObjAddr: 0x9F3C, symBinAddr: 0x10000A9AC, symSize: 0x198 }
  - { offsetInCU: 0x2998F4, offset: 0x2998F4, size: 0x8, addend: 0x0, symName: __ZN4stan4test8internal21expect_ad_derivativesIZZNS1_16expect_ad_helperIZN26simplex_row_constrain_test24expect_simplex_transformIN5Eigen6MatrixIdLin1ELin1ELi0ELin1ELin1EEEEEvRKT_EUlSB_E_ZNS1_11expect_ad_vISC_S8_EEvRKNS0_13ad_tolerancesESB_RKT0_EUlSB_E_JS8_EEEvSG_SB_SJ_RKNS7_IdLin1ELi1ELi0ELin1ELi1EEEDpT1_ENKUliE_clEiEUlSB_E_EEvSG_SB_SN_, symObjAddr: 0xA8CC, symBinAddr: 0x10000B33C, symSize: 0xDC }
  - { offsetInCU: 0x299BCF, offset: 0x299BCF, size: 0x8, addend: 0x0, symName: __ZN4stan4test8internal16expect_all_throwIZZNS1_16expect_ad_helperIZN26simplex_row_constrain_test24expect_simplex_transformIN5Eigen6MatrixIdLin1ELin1ELi0ELin1ELin1EEEEEvRKT_EUlSB_E_ZNS1_11expect_ad_vISC_S8_EEvRKNS0_13ad_tolerancesESB_RKT0_EUlSB_E_JS8_EEEvSG_SB_SJ_RKNS7_IdLin1ELi1ELi0ELin1ELi1EEEDpT1_ENKUliE_clEiEUlSB_E_EEvSB_SN_, symObjAddr: 0xA6F8, symBinAddr: 0x10000B168, symSize: 0x1D4 }
  - { offsetInCU: 0x29AF5A, offset: 0x29AF5A, size: 0x8, addend: 0x0, symName: __ZN4stan4test8internal12expect_throwIdZZNS1_16expect_ad_helperIZN26simplex_row_constrain_test24expect_simplex_transformIN5Eigen6MatrixIdLin1ELin1ELi0ELin1ELin1EEEEEvRKT_EUlSB_E_ZNS1_11expect_ad_vISC_S8_EEvRKNS0_13ad_tolerancesESB_RKT0_EUlSB_E_JS8_EEEvSG_SB_SJ_RKNS7_IdLin1ELi1ELi0ELin1ELi1EEEDpT1_ENKUliE_clEiEUlSB_E_EEvSJ_SN_RKNSt3__112basic_stringIcNSS_11char_traitsIcEENSS_9allocatorIcEEEE, symObjAddr: 0xBFB8, symBinAddr: 0x10000CA28, symSize: 0x2D4 }
  - { offsetInCU: 0x29BA11, offset: 0x29BA11, size: 0x8, addend: 0x0, symName: __ZN4stan4test8internal12expect_throwINS_4math9var_valueIdvEEZZNS1_16expect_ad_helperIZN26simplex_row_constrain_test24expect_simplex_transformIN5Eigen6MatrixIdLin1ELin1ELi0ELin1ELin1EEEEEvRKT_EUlSE_E_ZNS1_11expect_ad_vISF_SB_EEvRKNS0_13ad_tolerancesESE_RKT0_EUlSE_E_JSB_EEEvSJ_SE_SM_RKNSA_IdLin1ELi1ELi0ELin1ELi1EEEDpT1_ENKUliE_clEiEUlSE_E_EEvSM_SQ_RKNSt3__112basic_stringIcNSV_11char_traitsIcEENSV_9allocatorIcEEEE, symObjAddr: 0xC28C, symBinAddr: 0x10000CCFC, symSize: 0x334 }
  - { offsetInCU: 0x29C7C8, offset: 0x29C7C8, size: 0x8, addend: 0x0, symName: __ZN4stan4test8internal12expect_throwINS_4math4fvarIdEEZZNS1_16expect_ad_helperIZN26simplex_row_constrain_test24expect_simplex_transformIN5Eigen6MatrixIdLin1ELin1ELi0ELin1ELin1EEEEEvRKT_EUlSE_E_ZNS1_11expect_ad_vISF_SB_EEvRKNS0_13ad_tolerancesESE_RKT0_EUlSE_E_JSB_EEEvSJ_SE_SM_RKNSA_IdLin1ELi1ELi0ELin1ELi1EEEDpT1_ENKUliE_clEiEUlSE_E_EEvSM_SQ_RKNSt3__112basic_stringIcNSV_11char_traitsIcEENSV_9allocatorIcEEEE, symObjAddr: 0xC5C0, symBinAddr: 0x10000D030, symSize: 0x2EC }
  - { offsetInCU: 0x29D509, offset: 0x29D509, size: 0x8, addend: 0x0, symName: __ZN4stan4test8internal12expect_throwINS_4math4fvarINS4_IdEEEEZZNS1_16expect_ad_helperIZN26simplex_row_constrain_test24expect_simplex_transformIN5Eigen6MatrixIdLin1ELin1ELi0ELin1ELin1EEEEEvRKT_EUlSF_E_ZNS1_11expect_ad_vISG_SC_EEvRKNS0_13ad_tolerancesESF_RKT0_EUlSF_E_JSC_EEEvSK_SF_SN_RKNSB_IdLin1ELi1ELi0ELin1ELi1EEEDpT1_ENKUliE_clEiEUlSF_E_EEvSN_SR_RKNSt3__112basic_stringIcNSW_11char_traitsIcEENSW_9allocatorIcEEEE, symObjAddr: 0xC8AC, symBinAddr: 0x10000D31C, symSize: 0x2F0 }
  - { offsetInCU: 0x29E290, offset: 0x29E290, size: 0x8, addend: 0x0, symName: __ZN4stan4test8internal12expect_throwINS_4math4fvarINS3_9var_valueIdvEEEEZZNS1_16expect_ad_helperIZN26simplex_row_constrain_test24expect_simplex_transformIN5Eigen6MatrixIdLin1ELin1ELi0ELin1ELin1EEEEEvRKT_EUlSG_E_ZNS1_11expect_ad_vISH_SD_EEvRKNS0_13ad_tolerancesESG_RKT0_EUlSG_E_JSD_EEEvSL_SG_SO_RKNSC_IdLin1ELi1ELi0ELin1ELi1EEEDpT1_ENKUliE_clEiEUlSG_E_EEvSO_SS_RKNSt3__112basic_stringIcNSX_11char_traitsIcEENSX_9allocatorIcEEEE, symObjAddr: 0xCB9C, symBinAddr: 0x10000D60C, symSize: 0x304 }
  - { offsetInCU: 0x29EFCB, offset: 0x29EFCB, size: 0x8, addend: 0x0, symName: __ZN4stan4test8internal12expect_throwINS_4math4fvarINS4_INS3_9var_valueIdvEEEEEEZZNS1_16expect_ad_helperIZN26simplex_row_constrain_test24expect_simplex_transformIN5Eigen6MatrixIdLin1ELin1ELi0ELin1ELin1EEEEEvRKT_EUlSH_E_ZNS1_11expect_ad_vISI_SE_EEvRKNS0_13ad_tolerancesESH_RKT0_EUlSH_E_JSE_EEEvSM_SH_SP_RKNSD_IdLin1ELi1ELi0ELin1ELi1EEEDpT1_ENKUliE_clEiEUlSH_E_EEvSP_ST_RKNSt3__112basic_stringIcNSY_11char_traitsIcEENSY_9allocatorIcEEEE, symObjAddr: 0xCEA0, symBinAddr: 0x10000D910, symSize: 0x328 }
  - { offsetInCU: 0x29FD94, offset: 0x29FD94, size: 0x8, addend: 0x0, symName: __ZN4stan4test8internal13test_gradientIZZNS1_16expect_ad_helperIZN26simplex_row_constrain_test24expect_simplex_transformIN5Eigen6MatrixIdLin1ELin1ELi0ELin1ELin1EEEEEvRKT_EUlSB_E_ZNS1_11expect_ad_vISC_S8_EEvRKNS0_13ad_tolerancesESB_RKT0_EUlSB_E_JS8_EEEvSG_SB_SJ_RKNS7_IdLin1ELi1ELi0ELin1ELi1EEEDpT1_ENKUliE_clEiEUlSB_E_EEvSG_SB_SN_db, symObjAddr: 0x14218, symBinAddr: 0x100014C88, symSize: 0x214 }
  - { offsetInCU: 0x2A0E6A, offset: 0x2A0E6A, size: 0x8, addend: 0x0, symName: __ZN4stan4test8internal18test_gradient_fvarIZZNS1_16expect_ad_helperIZN26simplex_row_constrain_test24expect_simplex_transformIN5Eigen6MatrixIdLin1ELin1ELi0ELin1ELin1EEEEEvRKT_EUlSB_E_ZNS1_11expect_ad_vISC_S8_EEvRKNS0_13ad_tolerancesESB_RKT0_EUlSB_E_JS8_EEEvSG_SB_SJ_RKNS7_IdLin1ELi1ELi0ELin1ELi1EEEDpT1_ENKUliE_clEiEUlSB_E_EEvSG_SB_SN_db, symObjAddr: 0x1442C, symBinAddr: 0x100014E9C, symSize: 0x204 }
  - { offsetInCU: 0x2A1E9F, offset: 0x2A1E9F, size: 0x8, addend: 0x0, symName: __ZN4stan4test8internal12test_hessianIZZNS1_16expect_ad_helperIZN26simplex_row_constrain_test24expect_simplex_transformIN5Eigen6MatrixIdLin1ELin1ELi0ELin1ELin1EEEEEvRKT_EUlSB_E_ZNS1_11expect_ad_vISC_S8_EEvRKNS0_13ad_tolerancesESB_RKT0_EUlSB_E_JS8_EEEvSG_SB_SJ_RKNS7_IdLin1ELi1ELi0ELin1ELi1EEEDpT1_ENKUliE_clEiEUlSB_E_EEvSG_SB_SN_db, symObjAddr: 0x14630, symBinAddr: 0x1000150A0, symSize: 0x27C }
  - { offsetInCU: 0x2A3639, offset: 0x2A3639, size: 0x8, addend: 0x0, symName: __ZN4stan4test8internal17test_hessian_fvarIZZNS1_16expect_ad_helperIZN26simplex_row_constrain_test24expect_simplex_transformIN5Eigen6MatrixIdLin1ELin1ELi0ELin1ELin1EEEEEvRKT_EUlSB_E_ZNS1_11expect_ad_vISC_S8_EEvRKNS0_13ad_tolerancesESB_RKT0_EUlSB_E_JS8_EEEvSG_SB_SJ_RKNS7_IdLin1ELi1ELi0ELin1ELi1EEEDpT1_ENKUliE_clEiEUlSB_E_EEvSG_SB_SN_db, symObjAddr: 0x148AC, symBinAddr: 0x10001531C, symSize: 0x27C }
  - { offsetInCU: 0x2A4DAC, offset: 0x2A4DAC, size: 0x8, addend: 0x0, symName: __ZN4stan4test8internal17test_grad_hessianIZZNS1_16expect_ad_helperIZN26simplex_row_constrain_test24expect_simplex_transformIN5Eigen6MatrixIdLin1ELin1ELi0ELin1ELin1EEEEEvRKT_EUlSB_E_ZNS1_11expect_ad_vISC_S8_EEvRKNS0_13ad_tolerancesESB_RKT0_EUlSB_E_JS8_EEEvSG_SB_SJ_RKNS7_IdLin1ELi1ELi0ELin1ELi1EEEDpT1_ENKUliE_clEiEUlSB_E_EEvSG_SB_SN_db, symObjAddr: 0x14B28, symBinAddr: 0x100015598, symSize: 0x470 }
  - { offsetInCU: 0x2A6D43, offset: 0x2A6D43, size: 0x8, addend: 0x0, symName: __ZN4stan4test8internal22expect_near_rel_finiteIddJEEEvRKNSt3__112basic_stringIcNS3_11char_traitsIcEENS3_9allocatorIcEEEERKT_RKT0_NS0_18relative_toleranceE, symObjAddr: 0xBC14, symBinAddr: 0x10000C684, symSize: 0x1F8 }
  - { offsetInCU: 0x2A752F, offset: 0x2A752F, size: 0x8, addend: 0x0, symName: __ZN4stan4test8internal16expect_ad_helperIZN26simplex_row_constrain_test24expect_simplex_transformIN5Eigen6MatrixIdLin1ELin1ELi0ELin1ELin1EEEEEvRKT_EUlSA_E0_ZNS1_11expect_ad_vISB_S7_EEvRKNS0_13ad_tolerancesESA_RKT0_EUlSA_E_JS7_EEEvSF_SA_SI_RKNS6_IdLin1ELi1ELi0ELin1ELi1EEEDpT1_, symObjAddr: 0x1EB2C, symBinAddr: 0x10001F59C, symSize: 0x278 }
  - { offsetInCU: 0x2A8A1E, offset: 0x2A8A1E, size: 0x8, addend: 0x0, symName: __ZN4stan4test8internal21expect_ad_derivativesIZZNS1_16expect_ad_helperIZN26simplex_row_constrain_test24expect_simplex_transformIN5Eigen6MatrixIdLin1ELin1ELi0ELin1ELin1EEEEEvRKT_EUlSB_E0_ZNS1_11expect_ad_vISC_S8_EEvRKNS0_13ad_tolerancesESB_RKT0_EUlSB_E_JS8_EEEvSG_SB_SJ_RKNS7_IdLin1ELi1ELi0ELin1ELi1EEEDpT1_ENKUliE_clEiEUlSB_E_EEvSG_SB_SN_, symObjAddr: 0x1F0D0, symBinAddr: 0x10001FB40, symSize: 0xDC }
  - { offsetInCU: 0x2A8CF9, offset: 0x2A8CF9, size: 0x8, addend: 0x0, symName: __ZN4stan4test8internal16expect_all_throwIZZNS1_16expect_ad_helperIZN26simplex_row_constrain_test24expect_simplex_transformIN5Eigen6MatrixIdLin1ELin1ELi0ELin1ELin1EEEEEvRKT_EUlSB_E0_ZNS1_11expect_ad_vISC_S8_EEvRKNS0_13ad_tolerancesESB_RKT0_EUlSB_E_JS8_EEEvSG_SB_SJ_RKNS7_IdLin1ELi1ELi0ELin1ELi1EEEDpT1_ENKUliE_clEiEUlSB_E_EEvSB_SN_, symObjAddr: 0x1EEFC, symBinAddr: 0x10001F96C, symSize: 0x1D4 }
  - { offsetInCU: 0x2AA084, offset: 0x2AA084, size: 0x8, addend: 0x0, symName: __ZN4stan4test8internal12expect_throwIdZZNS1_16expect_ad_helperIZN26simplex_row_constrain_test24expect_simplex_transformIN5Eigen6MatrixIdLin1ELin1ELi0ELin1ELin1EEEEEvRKT_EUlSB_E0_ZNS1_11expect_ad_vISC_S8_EEvRKNS0_13ad_tolerancesESB_RKT0_EUlSB_E_JS8_EEEvSG_SB_SJ_RKNS7_IdLin1ELi1ELi0ELin1ELi1EEEDpT1_ENKUliE_clEiEUlSB_E_EEvSJ_SN_RKNSt3__112basic_stringIcNSS_11char_traitsIcEENSS_9allocatorIcEEEE, symObjAddr: 0x20A3C, symBinAddr: 0x100021308, symSize: 0x2D4 }
  - { offsetInCU: 0x2AAB3B, offset: 0x2AAB3B, size: 0x8, addend: 0x0, symName: __ZN4stan4test8internal12expect_throwINS_4math9var_valueIdvEEZZNS1_16expect_ad_helperIZN26simplex_row_constrain_test24expect_simplex_transformIN5Eigen6MatrixIdLin1ELin1ELi0ELin1ELin1EEEEEvRKT_EUlSE_E0_ZNS1_11expect_ad_vISF_SB_EEvRKNS0_13ad_tolerancesESE_RKT0_EUlSE_E_JSB_EEEvSJ_SE_SM_RKNSA_IdLin1ELi1ELi0ELin1ELi1EEEDpT1_ENKUliE_clEiEUlSE_E_EEvSM_SQ_RKNSt3__112basic_stringIcNSV_11char_traitsIcEENSV_9allocatorIcEEEE, symObjAddr: 0x20D10, symBinAddr: 0x1000215DC, symSize: 0x334 }
  - { offsetInCU: 0x2AB8F2, offset: 0x2AB8F2, size: 0x8, addend: 0x0, symName: __ZN4stan4test8internal12expect_throwINS_4math4fvarIdEEZZNS1_16expect_ad_helperIZN26simplex_row_constrain_test24expect_simplex_transformIN5Eigen6MatrixIdLin1ELin1ELi0ELin1ELin1EEEEEvRKT_EUlSE_E0_ZNS1_11expect_ad_vISF_SB_EEvRKNS0_13ad_tolerancesESE_RKT0_EUlSE_E_JSB_EEEvSJ_SE_SM_RKNSA_IdLin1ELi1ELi0ELin1ELi1EEEDpT1_ENKUliE_clEiEUlSE_E_EEvSM_SQ_RKNSt3__112basic_stringIcNSV_11char_traitsIcEENSV_9allocatorIcEEEE, symObjAddr: 0x21044, symBinAddr: 0x100021910, symSize: 0x2EC }
  - { offsetInCU: 0x2AC633, offset: 0x2AC633, size: 0x8, addend: 0x0, symName: __ZN4stan4test8internal12expect_throwINS_4math4fvarINS4_IdEEEEZZNS1_16expect_ad_helperIZN26simplex_row_constrain_test24expect_simplex_transformIN5Eigen6MatrixIdLin1ELin1ELi0ELin1ELin1EEEEEvRKT_EUlSF_E0_ZNS1_11expect_ad_vISG_SC_EEvRKNS0_13ad_tolerancesESF_RKT0_EUlSF_E_JSC_EEEvSK_SF_SN_RKNSB_IdLin1ELi1ELi0ELin1ELi1EEEDpT1_ENKUliE_clEiEUlSF_E_EEvSN_SR_RKNSt3__112basic_stringIcNSW_11char_traitsIcEENSW_9allocatorIcEEEE, symObjAddr: 0x21330, symBinAddr: 0x100021BFC, symSize: 0x2F0 }
  - { offsetInCU: 0x2AD3BA, offset: 0x2AD3BA, size: 0x8, addend: 0x0, symName: __ZN4stan4test8internal12expect_throwINS_4math4fvarINS3_9var_valueIdvEEEEZZNS1_16expect_ad_helperIZN26simplex_row_constrain_test24expect_simplex_transformIN5Eigen6MatrixIdLin1ELin1ELi0ELin1ELin1EEEEEvRKT_EUlSG_E0_ZNS1_11expect_ad_vISH_SD_EEvRKNS0_13ad_tolerancesESG_RKT0_EUlSG_E_JSD_EEEvSL_SG_SO_RKNSC_IdLin1ELi1ELi0ELin1ELi1EEEDpT1_ENKUliE_clEiEUlSG_E_EEvSO_SS_RKNSt3__112basic_stringIcNSX_11char_traitsIcEENSX_9allocatorIcEEEE, symObjAddr: 0x21620, symBinAddr: 0x100021EEC, symSize: 0x304 }
  - { offsetInCU: 0x2AE0F5, offset: 0x2AE0F5, size: 0x8, addend: 0x0, symName: __ZN4stan4test8internal12expect_throwINS_4math4fvarINS4_INS3_9var_valueIdvEEEEEEZZNS1_16expect_ad_helperIZN26simplex_row_constrain_test24expect_simplex_transformIN5Eigen6MatrixIdLin1ELin1ELi0ELin1ELin1EEEEEvRKT_EUlSH_E0_ZNS1_11expect_ad_vISI_SE_EEvRKNS0_13ad_tolerancesESH_RKT0_EUlSH_E_JSE_EEEvSM_SH_SP_RKNSD_IdLin1ELi1ELi0ELin1ELi1EEEDpT1_ENKUliE_clEiEUlSH_E_EEvSP_ST_RKNSt3__112basic_stringIcNSY_11char_traitsIcEENSY_9allocatorIcEEEE, symObjAddr: 0x21924, symBinAddr: 0x1000221F0, symSize: 0x328 }
  - { offsetInCU: 0x2AEEBE, offset: 0x2AEEBE, size: 0x8, addend: 0x0, symName: __ZN4stan4test8internal13test_gradientIZZNS1_16expect_ad_helperIZN26simplex_row_constrain_test24expect_simplex_transformIN5Eigen6MatrixIdLin1ELin1ELi0ELin1ELin1EEEEEvRKT_EUlSB_E0_ZNS1_11expect_ad_vISC_S8_EEvRKNS0_13ad_tolerancesESB_RKT0_EUlSB_E_JS8_EEEvSG_SB_SJ_RKNS7_IdLin1ELi1ELi0ELin1ELi1EEEDpT1_ENKUliE_clEiEUlSB_E_EEvSG_SB_SN_db, symObjAddr: 0x27AB8, symBinAddr: 0x100028384, symSize: 0x214 }
  - { offsetInCU: 0x2AFF94, offset: 0x2AFF94, size: 0x8, addend: 0x0, symName: __ZN4stan4test8internal18test_gradient_fvarIZZNS1_16expect_ad_helperIZN26simplex_row_constrain_test24expect_simplex_transformIN5Eigen6MatrixIdLin1ELin1ELi0ELin1ELin1EEEEEvRKT_EUlSB_E0_ZNS1_11expect_ad_vISC_S8_EEvRKNS0_13ad_tolerancesESB_RKT0_EUlSB_E_JS8_EEEvSG_SB_SJ_RKNS7_IdLin1ELi1ELi0ELin1ELi1EEEDpT1_ENKUliE_clEiEUlSB_E_EEvSG_SB_SN_db, symObjAddr: 0x27CCC, symBinAddr: 0x100028598, symSize: 0x204 }
  - { offsetInCU: 0x2B0FC9, offset: 0x2B0FC9, size: 0x8, addend: 0x0, symName: __ZN4stan4test8internal12test_hessianIZZNS1_16expect_ad_helperIZN26simplex_row_constrain_test24expect_simplex_transformIN5Eigen6MatrixIdLin1ELin1ELi0ELin1ELin1EEEEEvRKT_EUlSB_E0_ZNS1_11expect_ad_vISC_S8_EEvRKNS0_13ad_tolerancesESB_RKT0_EUlSB_E_JS8_EEEvSG_SB_SJ_RKNS7_IdLin1ELi1ELi0ELin1ELi1EEEDpT1_ENKUliE_clEiEUlSB_E_EEvSG_SB_SN_db, symObjAddr: 0x27ED0, symBinAddr: 0x10002879C, symSize: 0x27C }
  - { offsetInCU: 0x2B2763, offset: 0x2B2763, size: 0x8, addend: 0x0, symName: __ZN4stan4test8internal17test_hessian_fvarIZZNS1_16expect_ad_helperIZN26simplex_row_constrain_test24expect_simplex_transformIN5Eigen6MatrixIdLin1ELin1ELi0ELin1ELin1EEEEEvRKT_EUlSB_E0_ZNS1_11expect_ad_vISC_S8_EEvRKNS0_13ad_tolerancesESB_RKT0_EUlSB_E_JS8_EEEvSG_SB_SJ_RKNS7_IdLin1ELi1ELi0ELin1ELi1EEEDpT1_ENKUliE_clEiEUlSB_E_EEvSG_SB_SN_db, symObjAddr: 0x2814C, symBinAddr: 0x100028A18, symSize: 0x27C }
  - { offsetInCU: 0x2B3ED6, offset: 0x2B3ED6, size: 0x8, addend: 0x0, symName: __ZN4stan4test8internal17test_grad_hessianIZZNS1_16expect_ad_helperIZN26simplex_row_constrain_test24expect_simplex_transformIN5Eigen6MatrixIdLin1ELin1ELi0ELin1ELin1EEEEEvRKT_EUlSB_E0_ZNS1_11expect_ad_vISC_S8_EEvRKNS0_13ad_tolerancesESB_RKT0_EUlSB_E_JS8_EEEvSG_SB_SJ_RKNS7_IdLin1ELi1ELi0ELin1ELi1EEEDpT1_ENKUliE_clEiEUlSB_E_EEvSG_SB_SN_db, symObjAddr: 0x283C8, symBinAddr: 0x100028C94, symSize: 0x470 }
  - { offsetInCU: 0x2B5E6C, offset: 0x2B5E6C, size: 0x8, addend: 0x0, symName: __ZN4stan4test8internal16expect_ad_helperIZN26simplex_row_constrain_test24expect_simplex_transformIN5Eigen6MatrixIdLin1ELin1ELi0ELin1ELin1EEEEEvRKT_EUlSA_E1_ZNS1_11expect_ad_vISB_S7_EEvRKNS0_13ad_tolerancesESA_RKT0_EUlSA_E_JS7_EEEvSF_SA_SI_RKNS6_IdLin1ELi1ELi0ELin1ELi1EEEDpT1_, symObjAddr: 0x2C450, symBinAddr: 0x10002CD1C, symSize: 0x1F4 }
  - { offsetInCU: 0x2B6CF3, offset: 0x2B6CF3, size: 0x8, addend: 0x0, symName: __ZN4stan4test8internal21expect_ad_derivativesIZZNS1_16expect_ad_helperIZN26simplex_row_constrain_test24expect_simplex_transformIN5Eigen6MatrixIdLin1ELin1ELi0ELin1ELin1EEEEEvRKT_EUlSB_E1_ZNS1_11expect_ad_vISC_S8_EEvRKNS0_13ad_tolerancesESB_RKT0_EUlSB_E_JS8_EEEvSG_SB_SJ_RKNS7_IdLin1ELi1ELi0ELin1ELi1EEEDpT1_ENKUliE_clEiEUlSB_E_EEvSG_SB_SN_, symObjAddr: 0x2C9C4, symBinAddr: 0x10002D290, symSize: 0xDC }
  - { offsetInCU: 0x2B6FCE, offset: 0x2B6FCE, size: 0x8, addend: 0x0, symName: __ZN4stan4test8internal16expect_all_throwIZZNS1_16expect_ad_helperIZN26simplex_row_constrain_test24expect_simplex_transformIN5Eigen6MatrixIdLin1ELin1ELi0ELin1ELin1EEEEEvRKT_EUlSB_E1_ZNS1_11expect_ad_vISC_S8_EEvRKNS0_13ad_tolerancesESB_RKT0_EUlSB_E_JS8_EEEvSG_SB_SJ_RKNS7_IdLin1ELi1ELi0ELin1ELi1EEEDpT1_ENKUliE_clEiEUlSB_E_EEvSB_SN_, symObjAddr: 0x2C7F0, symBinAddr: 0x10002D0BC, symSize: 0x1D4 }
  - { offsetInCU: 0x2B8359, offset: 0x2B8359, size: 0x8, addend: 0x0, symName: __ZN4stan4test8internal12expect_throwIdZZNS1_16expect_ad_helperIZN26simplex_row_constrain_test24expect_simplex_transformIN5Eigen6MatrixIdLin1ELin1ELi0ELin1ELin1EEEEEvRKT_EUlSB_E1_ZNS1_11expect_ad_vISC_S8_EEvRKNS0_13ad_tolerancesESB_RKT0_EUlSB_E_JS8_EEEvSG_SB_SJ_RKNS7_IdLin1ELi1ELi0ELin1ELi1EEEDpT1_ENKUliE_clEiEUlSB_E_EEvSJ_SN_RKNSt3__112basic_stringIcNSS_11char_traitsIcEENSS_9allocatorIcEEEE, symObjAddr: 0x2CAA0, symBinAddr: 0x10002D36C, symSize: 0x2D4 }
  - { offsetInCU: 0x2B8E10, offset: 0x2B8E10, size: 0x8, addend: 0x0, symName: __ZN4stan4test8internal12expect_throwINS_4math9var_valueIdvEEZZNS1_16expect_ad_helperIZN26simplex_row_constrain_test24expect_simplex_transformIN5Eigen6MatrixIdLin1ELin1ELi0ELin1ELin1EEEEEvRKT_EUlSE_E1_ZNS1_11expect_ad_vISF_SB_EEvRKNS0_13ad_tolerancesESE_RKT0_EUlSE_E_JSB_EEEvSJ_SE_SM_RKNSA_IdLin1ELi1ELi0ELin1ELi1EEEDpT1_ENKUliE_clEiEUlSE_E_EEvSM_SQ_RKNSt3__112basic_stringIcNSV_11char_traitsIcEENSV_9allocatorIcEEEE, symObjAddr: 0x2CD74, symBinAddr: 0x10002D640, symSize: 0x334 }
  - { offsetInCU: 0x2B9BC7, offset: 0x2B9BC7, size: 0x8, addend: 0x0, symName: __ZN4stan4test8internal12expect_throwINS_4math4fvarIdEEZZNS1_16expect_ad_helperIZN26simplex_row_constrain_test24expect_simplex_transformIN5Eigen6MatrixIdLin1ELin1ELi0ELin1ELin1EEEEEvRKT_EUlSE_E1_ZNS1_11expect_ad_vISF_SB_EEvRKNS0_13ad_tolerancesESE_RKT0_EUlSE_E_JSB_EEEvSJ_SE_SM_RKNSA_IdLin1ELi1ELi0ELin1ELi1EEEDpT1_ENKUliE_clEiEUlSE_E_EEvSM_SQ_RKNSt3__112basic_stringIcNSV_11char_traitsIcEENSV_9allocatorIcEEEE, symObjAddr: 0x2D0A8, symBinAddr: 0x10002D974, symSize: 0x2EC }
  - { offsetInCU: 0x2BA908, offset: 0x2BA908, size: 0x8, addend: 0x0, symName: __ZN4stan4test8internal12expect_throwINS_4math4fvarINS4_IdEEEEZZNS1_16expect_ad_helperIZN26simplex_row_constrain_test24expect_simplex_transformIN5Eigen6MatrixIdLin1ELin1ELi0ELin1ELin1EEEEEvRKT_EUlSF_E1_ZNS1_11expect_ad_vISG_SC_EEvRKNS0_13ad_tolerancesESF_RKT0_EUlSF_E_JSC_EEEvSK_SF_SN_RKNSB_IdLin1ELi1ELi0ELin1ELi1EEEDpT1_ENKUliE_clEiEUlSF_E_EEvSN_SR_RKNSt3__112basic_stringIcNSW_11char_traitsIcEENSW_9allocatorIcEEEE, symObjAddr: 0x2D394, symBinAddr: 0x10002DC60, symSize: 0x2F0 }
  - { offsetInCU: 0x2BB68F, offset: 0x2BB68F, size: 0x8, addend: 0x0, symName: __ZN4stan4test8internal12expect_throwINS_4math4fvarINS3_9var_valueIdvEEEEZZNS1_16expect_ad_helperIZN26simplex_row_constrain_test24expect_simplex_transformIN5Eigen6MatrixIdLin1ELin1ELi0ELin1ELin1EEEEEvRKT_EUlSG_E1_ZNS1_11expect_ad_vISH_SD_EEvRKNS0_13ad_tolerancesESG_RKT0_EUlSG_E_JSD_EEEvSL_SG_SO_RKNSC_IdLin1ELi1ELi0ELin1ELi1EEEDpT1_ENKUliE_clEiEUlSG_E_EEvSO_SS_RKNSt3__112basic_stringIcNSX_11char_traitsIcEENSX_9allocatorIcEEEE, symObjAddr: 0x2D684, symBinAddr: 0x10002DF50, symSize: 0x304 }
  - { offsetInCU: 0x2BC3CA, offset: 0x2BC3CA, size: 0x8, addend: 0x0, symName: __ZN4stan4test8internal12expect_throwINS_4math4fvarINS4_INS3_9var_valueIdvEEEEEEZZNS1_16expect_ad_helperIZN26simplex_row_constrain_test24expect_simplex_transformIN5Eigen6MatrixIdLin1ELin1ELi0ELin1ELin1EEEEEvRKT_EUlSH_E1_ZNS1_11expect_ad_vISI_SE_EEvRKNS0_13ad_tolerancesESH_RKT0_EUlSH_E_JSE_EEEvSM_SH_SP_RKNSD_IdLin1ELi1ELi0ELin1ELi1EEEDpT1_ENKUliE_clEiEUlSH_E_EEvSP_ST_RKNSt3__112basic_stringIcNSY_11char_traitsIcEENSY_9allocatorIcEEEE, symObjAddr: 0x2D988, symBinAddr: 0x10002E254, symSize: 0x328 }
  - { offsetInCU: 0x2BD193, offset: 0x2BD193, size: 0x8, addend: 0x0, symName: __ZN4stan4test8internal13test_gradientIZZNS1_16expect_ad_helperIZN26simplex_row_constrain_test24expect_simplex_transformIN5Eigen6MatrixIdLin1ELin1ELi0ELin1ELin1EEEEEvRKT_EUlSB_E1_ZNS1_11expect_ad_vISC_S8_EEvRKNS0_13ad_tolerancesESB_RKT0_EUlSB_E_JS8_EEEvSG_SB_SJ_RKNS7_IdLin1ELi1ELi0ELin1ELi1EEEDpT1_ENKUliE_clEiEUlSB_E_EEvSG_SB_SN_db, symObjAddr: 0x2E614, symBinAddr: 0x10002EEE0, symSize: 0x214 }
  - { offsetInCU: 0x2BE269, offset: 0x2BE269, size: 0x8, addend: 0x0, symName: __ZN4stan4test8internal18test_gradient_fvarIZZNS1_16expect_ad_helperIZN26simplex_row_constrain_test24expect_simplex_transformIN5Eigen6MatrixIdLin1ELin1ELi0ELin1ELin1EEEEEvRKT_EUlSB_E1_ZNS1_11expect_ad_vISC_S8_EEvRKNS0_13ad_tolerancesESB_RKT0_EUlSB_E_JS8_EEEvSG_SB_SJ_RKNS7_IdLin1ELi1ELi0ELin1ELi1EEEDpT1_ENKUliE_clEiEUlSB_E_EEvSG_SB_SN_db, symObjAddr: 0x2E828, symBinAddr: 0x10002F0F4, symSize: 0x204 }
  - { offsetInCU: 0x2BF29E, offset: 0x2BF29E, size: 0x8, addend: 0x0, symName: __ZN4stan4test8internal12test_hessianIZZNS1_16expect_ad_helperIZN26simplex_row_constrain_test24expect_simplex_transformIN5Eigen6MatrixIdLin1ELin1ELi0ELin1ELin1EEEEEvRKT_EUlSB_E1_ZNS1_11expect_ad_vISC_S8_EEvRKNS0_13ad_tolerancesESB_RKT0_EUlSB_E_JS8_EEEvSG_SB_SJ_RKNS7_IdLin1ELi1ELi0ELin1ELi1EEEDpT1_ENKUliE_clEiEUlSB_E_EEvSG_SB_SN_db, symObjAddr: 0x2EA2C, symBinAddr: 0x10002F2F8, symSize: 0x27C }
  - { offsetInCU: 0x2C0A38, offset: 0x2C0A38, size: 0x8, addend: 0x0, symName: __ZN4stan4test8internal17test_hessian_fvarIZZNS1_16expect_ad_helperIZN26simplex_row_constrain_test24expect_simplex_transformIN5Eigen6MatrixIdLin1ELin1ELi0ELin1ELin1EEEEEvRKT_EUlSB_E1_ZNS1_11expect_ad_vISC_S8_EEvRKNS0_13ad_tolerancesESB_RKT0_EUlSB_E_JS8_EEEvSG_SB_SJ_RKNS7_IdLin1ELi1ELi0ELin1ELi1EEEDpT1_ENKUliE_clEiEUlSB_E_EEvSG_SB_SN_db, symObjAddr: 0x2ECA8, symBinAddr: 0x10002F574, symSize: 0x27C }
  - { offsetInCU: 0x2C21AB, offset: 0x2C21AB, size: 0x8, addend: 0x0, symName: __ZN4stan4test8internal17test_grad_hessianIZZNS1_16expect_ad_helperIZN26simplex_row_constrain_test24expect_simplex_transformIN5Eigen6MatrixIdLin1ELin1ELi0ELin1ELin1EEEEEvRKT_EUlSB_E1_ZNS1_11expect_ad_vISC_S8_EEvRKNS0_13ad_tolerancesESB_RKT0_EUlSB_E_JS8_EEEvSG_SB_SJ_RKNS7_IdLin1ELi1ELi0ELin1ELi1EEEDpT1_ENKUliE_clEiEUlSB_E_EEvSG_SB_SN_db, symObjAddr: 0x2EF24, symBinAddr: 0x10002F7F0, symSize: 0x470 }
  - { offsetInCU: 0x2C4143, offset: 0x2C4143, size: 0x8, addend: 0x0, symName: __ZN4stan4test9is_finiteEd, symObjAddr: 0x4, symBinAddr: 0x100000A7C, symSize: 0x24 }
  - { offsetInCU: 0x2C4162, offset: 0x2C4162, size: 0x8, addend: 0x0, symName: __ZN4stan4test9is_finiteEd, symObjAddr: 0x4, symBinAddr: 0x100000A7C, symSize: 0x24 }
  - { offsetInCU: 0x2C417F, offset: 0x2C417F, size: 0x8, addend: 0x0, symName: __ZN4stan4test9is_finiteEd, symObjAddr: 0x4, symBinAddr: 0x100000A7C, symSize: 0x24 }
  - { offsetInCU: 0x2C419C, offset: 0x2C419C, size: 0x8, addend: 0x0, symName: __ZN4stan4test25make_sparse_matrix_randomEii, symObjAddr: 0x144, symBinAddr: 0x100000BBC, symSize: 0x2FC }
  - { offsetInCU: 0x2C4C61, offset: 0x2C4C61, size: 0x8, addend: 0x0, symName: __ZN4stan4test23common_complex_parts_reEv, symObjAddr: 0xB90, symBinAddr: 0x100001608, symSize: 0x74 }
  - { offsetInCU: 0x2C5042, offset: 0x2C5042, size: 0x8, addend: 0x0, symName: __ZN4stan4test23common_complex_parts_imEv, symObjAddr: 0xC04, symBinAddr: 0x10000167C, symSize: 0x74 }
  - { offsetInCU: 0x2C5446, offset: 0x2C5446, size: 0x8, addend: 0x0, symName: __ZN4stan4test14common_complexEv, symObjAddr: 0xC78, symBinAddr: 0x1000016F0, symSize: 0x1E8 }
  - { offsetInCU: 0x2C648E, offset: 0x2C648E, size: 0x8, addend: 0x0, symName: __ZN4stan4test20ar_test_cov_matricesEiid, symObjAddr: 0xE60, symBinAddr: 0x1000018D8, symSize: 0x2B0 }
  - { offsetInCU: 0x2C6BDB, offset: 0x2C6BDB, size: 0x8, addend: 0x0, symName: __ZN4stan4test9to_vectorERKNSt3__16vectorIdNS1_9allocatorIdEEEE, symObjAddr: 0x1168, symBinAddr: 0x100001BE0, symSize: 0x10C }
  - { offsetInCU: 0x2C6DC0, offset: 0x2C6DC0, size: 0x8, addend: 0x0, symName: __ZN4stan4test13to_row_vectorERKNSt3__16vectorIdNS1_9allocatorIdEEEE, symObjAddr: 0x1274, symBinAddr: 0x100001CEC, symSize: 0x10C }
  - { offsetInCU: 0x2C6FA5, offset: 0x2C6FA5, size: 0x8, addend: 0x0, symName: __ZN4stan4test20square_test_matricesEii, symObjAddr: 0x1380, symBinAddr: 0x100001DF8, symSize: 0x900 }
  - { offsetInCU: 0x2C8F8B, offset: 0x2C8F8B, size: 0x8, addend: 0x0, symName: __ZN4stan4test21expect_ad_matvar_implIJNS_4math9var_valueIN5Eigen6MatrixIdLin1ELin1ELi0ELin1ELin1EEEvEEEZN26simplex_row_constrain_test24expect_simplex_transformIS6_EEvRKT_EUlSC_E_JS6_EEEvRKNS0_13ad_tolerancesERKT0_DpRKT1_, symObjAddr: 0x1A0A0, symBinAddr: 0x10001AB10, symSize: 0x530 }
  - { offsetInCU: 0x2CA91B, offset: 0x2CA91B, size: 0x8, addend: 0x0, symName: __ZN4stan4test21expect_ad_matvar_implIJNS_4math9var_valueIN5Eigen6MatrixIdLin1ELin1ELi0ELin1ELin1EEEvEEEZN26simplex_row_constrain_test24expect_simplex_transformIS6_EEvRKT_EUlSC_E0_JS6_EEEvRKNS0_13ad_tolerancesERKT0_DpRKT1_, symObjAddr: 0x2AD64, symBinAddr: 0x10002B630, symSize: 0x554 }
  - { offsetInCU: 0x2CC43D, offset: 0x2CC43D, size: 0x8, addend: 0x0, symName: __ZN4stan4test21expect_ad_matvar_implIJNS_4math9var_valueIN5Eigen6MatrixIdLin1ELin1ELi0ELin1ELin1EEEvEEEZN26simplex_row_constrain_test24expect_simplex_transformIS6_EEvRKT_EUlSC_E1_JS6_EEEvRKNS0_13ad_tolerancesERKT0_DpRKT1_, symObjAddr: 0x318C0, symBinAddr: 0x10003218C, symSize: 0x4C8 }
  - { offsetInCU: 0x2CD89D, offset: 0x2CD89D, size: 0x8, addend: 0x0, symName: __ZN4stan4test15expect_near_relIddEEvRKNSt3__112basic_stringIcNS2_11char_traitsIcEENS2_9allocatorIcEEEERKNS2_6vectorIT_NS6_ISC_EEEERKNSB_IT0_NS6_ISH_EEEENS0_18relative_toleranceE, symObjAddr: 0xA368, symBinAddr: 0x10000ADD8, symSize: 0x390 }
  - { offsetInCU: 0x2CE6C3, offset: 0x2CE6C3, size: 0x8, addend: 0x0, symName: __ZN4stan4test15expect_near_relIddJEEEvRKNSt3__112basic_stringIcNS2_11char_traitsIcEENS2_9allocatorIcEEEERKT_RKT0_NS0_18relative_toleranceE, symObjAddr: 0xB4F4, symBinAddr: 0x10000BF64, symSize: 0x574 }
  - { offsetInCU: 0x2CFBC6, offset: 0x2CFBC6, size: 0x8, addend: 0x0, symName: __ZN4stan4test15expect_near_relIRN5Eigen6MatrixIdLin1ELi1ELi0ELin1ELi1EEES5_JEEEvRKNSt3__112basic_stringIcNS6_11char_traitsIcEENS6_9allocatorIcEEEEOT_OT0_NS0_18relative_toleranceE, symObjAddr: 0x1563C, symBinAddr: 0x1000160AC, symSize: 0x934 }
  - { offsetInCU: 0x2D2D4D, offset: 0x2D2D4D, size: 0x8, addend: 0x0, symName: __ZN4stan4test15expect_near_relIRN5Eigen6MatrixIdLin1ELin1ELi0ELin1ELin1EEES5_JEEEvRKNSt3__112basic_stringIcNS6_11char_traitsIcEENS6_9allocatorIcEEEEOT_OT0_NS0_18relative_toleranceE, symObjAddr: 0x177D0, symBinAddr: 0x100018240, symSize: 0xC3C }
  - { offsetInCU: 0x2D7142, offset: 0x2D7142, size: 0x8, addend: 0x0, symName: __ZN4stan4test22make_matvar_compatibleINS_4math9var_valueIN5Eigen6MatrixIdLin1ELin1ELi0ELin1ELin1EEEvEES6_LPv0ELS8_0EEEDaRKT0_, symObjAddr: 0x1A5D0, symBinAddr: 0x10001B040, symSize: 0xD8 }
  - { offsetInCU: 0x2D760C, offset: 0x2D760C, size: 0x8, addend: 0x0, symName: __ZN4stan4test20test_matvar_gradientIN5Eigen6MatrixINS_4math9var_valueIdvEELin1ELin1ELi0ELin1ELin1EEENS5_INS3_IdLin1ELin1ELi0ELin1ELin1EEEvEEJS7_EJS9_ELPv0EEEvRKNS0_13ad_tolerancesERT_RT0_RKNSt3__15tupleIJDpT1_EEERKNSJ_IJDpT2_EEE, symObjAddr: 0x1A778, symBinAddr: 0x10001B1E8, symSize: 0x288 }
  - { offsetInCU: 0x2D86AC, offset: 0x2D86AC, size: 0x8, addend: 0x0, symName: __ZN4stan4test15expect_near_relIRNS_4math12arena_matrixIN5Eigen6MatrixIdLin1ELin1ELi0ELin1ELin1EEEEENS4_12CwiseUnaryOpIZZNS2_8value_ofIRNS5_INS2_9var_valueIdvEELin1ELin1ELi0ELin1ELin1EEELPv0ELSF_0EEEDaOT_ENKUlRSH_E_clISD_EESG_SJ_EUlRKSH_E_KSD_EEJEEEvRKNSt3__112basic_stringIcNSR_11char_traitsIcEENSR_9allocatorIcEEEESI_OT0_NS0_18relative_toleranceE, symObjAddr: 0x1BCA8, symBinAddr: 0x10001C718, symSize: 0xCC8 }
  - { offsetInCU: 0x2DD333, offset: 0x2DD333, size: 0x8, addend: 0x0, symName: __ZN4stan4test22expect_near_rel_matvarIRKNS_4math9var_valueIN5Eigen6MatrixIdLin1ELin1ELi0ELin1ELin1EEEvEERKNS5_INS3_IdvEELin1ELin1ELi0ELin1ELin1EEELPv0ELSE_0EEEvRKNSt3__112basic_stringIcNSF_11char_traitsIcEENSF_9allocatorIcEEEEOT_OT0_RKNS0_13ad_tolerancesE, symObjAddr: 0x1CD14, symBinAddr: 0x10001D784, symSize: 0x1E0 }
  - { offsetInCU: 0x2DDFC8, offset: 0x2DDFC8, size: 0x8, addend: 0x0, symName: __ZN4stan4test15expect_near_relIRKNS_4math12arena_matrixIN5Eigen6MatrixIdLin1ELin1ELi0ELin1ELin1EEEEEKNS4_12CwiseUnaryOpINS4_10MatrixBaseINS5_INS2_9var_valueIdvEELin1ELin1ELi0ELin1ELin1EEEE6val_OpEKSE_EEJEEEvRKNSt3__112basic_stringIcNSK_11char_traitsIcEENSK_9allocatorIcEEEEOT_OT0_NS0_18relative_toleranceE, symObjAddr: 0x1CEF4, symBinAddr: 0x10001D964, symSize: 0xCC8 }
  - { offsetInCU: 0x2E2C35, offset: 0x2E2C35, size: 0x8, addend: 0x0, symName: __ZN4stan4test15expect_near_relIRNS_4math12arena_matrixIN5Eigen6MatrixIdLin1ELin1ELi0ELin1ELin1EEEEEKNS4_12CwiseUnaryOpINS4_10MatrixBaseINS5_INS2_9var_valueIdvEELin1ELin1ELi0ELin1ELin1EEEE6adj_OpEKSD_EEJEEEvRKNSt3__112basic_stringIcNSJ_11char_traitsIcEENSJ_9allocatorIcEEEEOT_OT0_NS0_18relative_toleranceE, symObjAddr: 0x1DBBC, symBinAddr: 0x10001E62C, symSize: 0xCC8 }
  - { offsetInCU: 0x2E78A2, offset: 0x2E78A2, size: 0x8, addend: 0x0, symName: __ZN4stan4test20test_matvar_gradientINS_4math9var_valueIdvEES4_JN5Eigen6MatrixIS4_Lin1ELin1ELi0ELin1ELin1EEEEJNS3_INS6_IdLin1ELin1ELi0ELin1ELin1EEEvEEELPv0EEEvRKNS0_13ad_tolerancesERT_RT0_RKNSt3__15tupleIJDpT1_EEERKNSJ_IJDpT2_EEE, symObjAddr: 0x31E04, symBinAddr: 0x1000326D0, symSize: 0x200 }
  - { offsetInCU: 0x2EBEEF, offset: 0x2EBEEF, size: 0x8, addend: 0x0, symName: __ZN5boost11optional_nsL13in_place_initE, symObjAddr: 0x15C2050, symBinAddr: 0x100078220, symSize: 0x0 }
  - { offsetInCU: 0x2EBF2D, offset: 0x2EBF2D, size: 0x8, addend: 0x0, symName: __ZN5boost11optional_nsL16in_place_init_ifE, symObjAddr: 0x15C2051, symBinAddr: 0x100078221, symSize: 0x0 }
  - { offsetInCU: 0x2EC04A, offset: 0x2EC04A, size: 0x8, addend: 0x0, symName: __ZN5boost4math6detail19digamma_initializerIdNS0_8policies6policyINS3_10pole_errorILNS3_17error_policy_typeE1EEENS3_14overflow_errorILS6_1EEENS3_13promote_floatILb0EEENS3_14promote_doubleILb0EEENS3_14default_policyESE_SE_SE_SE_SE_SE_SE_SE_EEE11initializerE, symObjAddr: 0x3A658, symBinAddr: 0x100078000, symSize: 0x0 }
  - { offsetInCU: 0x2EC0ED, offset: 0x2EC0ED, size: 0x8, addend: 0x0, symName: __ZN5boost4math6detail18igamma_initializerIdNS0_8policies6policyINS3_10pole_errorILNS3_17error_policy_typeE1EEENS3_14overflow_errorILS6_1EEENS3_13promote_floatILb0EEENS3_14promote_doubleILb0EEENS3_14default_policyESE_SE_SE_SE_SE_SE_SE_SE_EEE11initializerE, symObjAddr: 0x3A668, symBinAddr: 0x100078010, symSize: 0x0 }
  - { offsetInCU: 0x2EC174, offset: 0x2EC174, size: 0x8, addend: 0x0, symName: __ZN5boost4math6detail18lgamma_initializerIdNS0_8policies6policyINS3_10pole_errorILNS3_17error_policy_typeE1EEENS3_14overflow_errorILS6_1EEENS3_13promote_floatILb0EEENS3_14promote_doubleILb0EEENS3_14default_policyESE_SE_SE_SE_SE_SE_SE_SE_EEE11initializerE, symObjAddr: 0x3A678, symBinAddr: 0x100078020, symSize: 0x0 }
  - { offsetInCU: 0x2EC21F, offset: 0x2EC21F, size: 0x8, addend: 0x0, symName: __ZN5boost4math6detail15erf_initializerIdNS0_8policies6policyINS3_10pole_errorILNS3_17error_policy_typeE1EEENS3_14overflow_errorILS6_1EEENS3_13promote_floatILb0EEENS3_14promote_doubleILb0EEENS3_14default_policyESE_SE_SE_SE_SE_SE_SE_SE_EENSt3__117integral_constantIiLi53EEEE11initializerE, symObjAddr: 0x3A688, symBinAddr: 0x100078030, symSize: 0x0 }
  - { offsetInCU: 0x2EC2E5, offset: 0x2EC2E5, size: 0x8, addend: 0x0, symName: __ZN5boost4math6detail17expm1_initializerIdNS0_8policies6policyINS3_10pole_errorILNS3_17error_policy_typeE1EEENS3_14overflow_errorILS6_1EEENS3_13promote_floatILb0EEENS3_14promote_doubleILb0EEENS3_14default_policyESE_SE_SE_SE_SE_SE_SE_SE_EENSt3__117integral_constantIiLi53EEEE11initializerE, symObjAddr: 0x3A698, symBinAddr: 0x100078040, symSize: 0x0 }
  - { offsetInCU: 0x2EC380, offset: 0x2EC380, size: 0x8, addend: 0x0, symName: __ZN5boost4math6detail18igamma_initializerIeNS0_8policies6policyINS3_13promote_floatILb0EEENS3_14promote_doubleILb0EEENS3_14default_policyES9_S9_S9_S9_S9_S9_S9_S9_S9_S9_EEE11initializerE, symObjAddr: 0x3A6A8, symBinAddr: 0x100078050, symSize: 0x0 }
  - { offsetInCU: 0x2EC407, offset: 0x2EC407, size: 0x8, addend: 0x0, symName: __ZN5boost4math6detail18lgamma_initializerIeNS0_8policies6policyINS3_13promote_floatILb0EEENS3_14promote_doubleILb0EEENS3_14default_policyES9_S9_S9_S9_S9_S9_S9_S9_S9_S9_EEE11initializerE, symObjAddr: 0x3A6B8, symBinAddr: 0x100078060, symSize: 0x0 }
  - { offsetInCU: 0x2EC4B2, offset: 0x2EC4B2, size: 0x8, addend: 0x0, symName: __ZN5boost4math6detail15erf_initializerIeNS0_8policies6policyINS3_13promote_floatILb0EEENS3_14promote_doubleILb0EEENS3_14default_policyES9_S9_S9_S9_S9_S9_S9_S9_S9_S9_EENSt3__117integral_constantIiLi53EEEE11initializerE, symObjAddr: 0x3A6C8, symBinAddr: 0x100078070, symSize: 0x0 }
  - { offsetInCU: 0x2EC578, offset: 0x2EC578, size: 0x8, addend: 0x0, symName: __ZN5boost4math6detail17expm1_initializerIeNS0_8policies6policyINS3_13promote_floatILb0EEENS3_14promote_doubleILb0EEENS3_14default_policyES9_S9_S9_S9_S9_S9_S9_S9_S9_S9_EENSt3__117integral_constantIiLi53EEEE11initializerE, symObjAddr: 0x3A6D8, symBinAddr: 0x100078080, symSize: 0x0 }
  - { offsetInCU: 0x2EC613, offset: 0x2EC613, size: 0x8, addend: 0x0, symName: __ZN5boost4math6detail19erf_inv_initializerIdNS0_8policies6policyINS3_10pole_errorILNS3_17error_policy_typeE1EEENS3_14overflow_errorILS6_1EEENS3_13promote_floatILb0EEENS3_14promote_doubleILb0EEENS3_14default_policyESE_SE_SE_SE_SE_SE_SE_SE_EEE11initializerE, symObjAddr: 0x3A6E8, symBinAddr: 0x100078090, symSize: 0x0 }
  - { offsetInCU: 0x2EC6AA, offset: 0x2EC6AA, size: 0x8, addend: 0x0, symName: __ZN5boost4math6detail21bessel_i0_initializerIeNSt3__117integral_constantIiLi53EEEE11initializerE, symObjAddr: 0x3A6F8, symBinAddr: 0x1000780A0, symSize: 0x0 }
  - { offsetInCU: 0x2EC73C, offset: 0x2EC73C, size: 0x8, addend: 0x0, symName: __ZN5boost4math6detail21bessel_i1_initializerIeNSt3__117integral_constantIiLi53EEEE11initializerE, symObjAddr: 0x3A708, symBinAddr: 0x1000780B0, symSize: 0x0 }
  - { offsetInCU: 0x2EC7CE, offset: 0x2EC7CE, size: 0x8, addend: 0x0, symName: __ZN5boost4math6detail19owens_t_initializerIdNS0_8policies6policyINS3_14default_policyES5_S5_S5_S5_S5_S5_S5_S5_S5_S5_S5_S5_EENSt3__117integral_constantIiLi64EEEE11initializerE, symObjAddr: 0x3A718, symBinAddr: 0x1000780C0, symSize: 0x0 }
  - { offsetInCU: 0x2EC85E, offset: 0x2EC85E, size: 0x8, addend: 0x0, symName: __ZN5boost4math6detail21bessel_j0_initializerIeE11initializerE, symObjAddr: 0x3A728, symBinAddr: 0x1000780D0, symSize: 0x0 }
  - { offsetInCU: 0x2EC8D1, offset: 0x2EC8D1, size: 0x8, addend: 0x0, symName: __ZN5boost4math6detail21bessel_j1_initializerIeE11initializerE, symObjAddr: 0x3A738, symBinAddr: 0x1000780E0, symSize: 0x0 }
  - { offsetInCU: 0x2EC944, offset: 0x2EC944, size: 0x8, addend: 0x0, symName: __ZN5boost4math6detail21bessel_y0_initializerIeNS0_8policies6policyINS3_13promote_floatILb0EEENS3_14promote_doubleILb0EEENS3_14default_policyES9_S9_S9_S9_S9_S9_S9_S9_S9_S9_EEE11initializerE, symObjAddr: 0x3A748, symBinAddr: 0x1000780F0, symSize: 0x0 }
  - { offsetInCU: 0x2EC9C0, offset: 0x2EC9C0, size: 0x8, addend: 0x0, symName: __ZN5boost4math6detail21bessel_y1_initializerIeNS0_8policies6policyINS3_13promote_floatILb0EEENS3_14promote_doubleILb0EEENS3_14default_policyES9_S9_S9_S9_S9_S9_S9_S9_S9_S9_EEE11initializerE, symObjAddr: 0x3A758, symBinAddr: 0x100078100, symSize: 0x0 }
  - { offsetInCU: 0x2ECA3C, offset: 0x2ECA3C, size: 0x8, addend: 0x0, symName: __ZN5boost4math6detail19erf_inv_initializerIeNS0_8policies6policyINS3_13promote_floatILb0EEENS3_14promote_doubleILb0EEENS3_14default_policyES9_S9_S9_S9_S9_S9_S9_S9_S9_S9_EEE11initializerE, symObjAddr: 0x3A768, symBinAddr: 0x100078110, symSize: 0x0 }
  - { offsetInCU: 0x2ECAD3, offset: 0x2ECAD3, size: 0x8, addend: 0x0, symName: __ZN5boost4math6detail21bessel_k0_initializerIeNSt3__117integral_constantIiLi53EEEE11initializerE, symObjAddr: 0x3A778, symBinAddr: 0x100078120, symSize: 0x0 }
  - { offsetInCU: 0x2ECB65, offset: 0x2ECB65, size: 0x8, addend: 0x0, symName: __ZN5boost4math6detail21bessel_k1_initializerIeNSt3__117integral_constantIiLi53EEEE11initializerE, symObjAddr: 0x3A788, symBinAddr: 0x100078130, symSize: 0x0 }
  - { offsetInCU: 0x2ECBF1, offset: 0x2ECBF1, size: 0x8, addend: 0x0, symName: __ZN5boost4math6detail7erf_impIeNS0_8policies6policyINS3_13promote_floatILb0EEENS3_14promote_doubleILb0EEENS3_14default_policyES9_S9_S9_S9_S9_S9_S9_S9_S9_S9_EEEET_SB_bRKT0_RKNSt3__117integral_constantIiLi53EEE, symObjAddr: 0x4B78, symBinAddr: 0x1000055E8, symSize: 0x6F8 }
  - { offsetInCU: 0x2ECCC4, offset: 0x2ECCC4, size: 0x8, addend: 0x0, symName: __ZZN5boost4math6detail7erf_impIeNS0_8policies6policyINS3_13promote_floatILb0EEENS3_14promote_doubleILb0EEENS3_14default_policyES9_S9_S9_S9_S9_S9_S9_S9_S9_S9_EEEET_SB_bRKT0_RKNSt3__117integral_constantIiLi53EEEE1P_3, symObjAddr: 0x37968, symBinAddr: 0x10006B990, symSize: 0x0 }
  - { offsetInCU: 0x2ECCDB, offset: 0x2ECCDB, size: 0x8, addend: 0x0, symName: __ZZN5boost4math6detail7erf_impIeNS0_8policies6policyINS3_13promote_floatILb0EEENS3_14promote_doubleILb0EEENS3_14default_policyES9_S9_S9_S9_S9_S9_S9_S9_S9_S9_EEEET_SB_bRKT0_RKNSt3__117integral_constantIiLi53EEEE1Q_3, symObjAddr: 0x379A0, symBinAddr: 0x10006B9C8, symSize: 0x0 }
  - { offsetInCU: 0x2ED0D6, offset: 0x2ED0D6, size: 0x8, addend: 0x0, symName: __ZN5boost4math6detail11erf_inv_impIdNS0_8policies6policyINS3_10pole_errorILNS3_17error_policy_typeE1EEENS3_14overflow_errorILS6_1EEENS3_13promote_floatILb0EEENS3_14promote_doubleILb0EEENS3_14default_policyESE_SE_SE_SE_SE_SE_SE_SE_EEEET_RKSG_SI_RKT0_PKNSt3__117integral_constantIiLi64EEE, symObjAddr: 0x5474, symBinAddr: 0x100005EE4, symSize: 0xA60 }
  - { offsetInCU: 0x2ED1C0, offset: 0x2ED1C0, size: 0x8, addend: 0x0, symName: __ZZN5boost4math6detail11erf_inv_impIdNS0_8policies6policyINS3_10pole_errorILNS3_17error_policy_typeE1EEENS3_14overflow_errorILS6_1EEENS3_13promote_floatILb0EEENS3_14promote_doubleILb0EEENS3_14default_policyESE_SE_SE_SE_SE_SE_SE_SE_EEEET_RKSG_SI_RKT0_PKNSt3__117integral_constantIiLi64EEEE1P_4, symObjAddr: 0x379D8, symBinAddr: 0x10006BA00, symSize: 0x0 }
  - { offsetInCU: 0x2ED1D6, offset: 0x2ED1D6, size: 0x8, addend: 0x0, symName: __ZZN5boost4math6detail11erf_inv_impIdNS0_8policies6policyINS3_10pole_errorILNS3_17error_policy_typeE1EEENS3_14overflow_errorILS6_1EEENS3_13promote_floatILb0EEENS3_14promote_doubleILb0EEENS3_14default_policyESE_SE_SE_SE_SE_SE_SE_SE_EEEET_RKSG_SI_RKT0_PKNSt3__117integral_constantIiLi64EEEE1Q_4, symObjAddr: 0x37A18, symBinAddr: 0x10006BA40, symSize: 0x0 }
  - { offsetInCU: 0x2ED1F8, offset: 0x2ED1F8, size: 0x8, addend: 0x0, symName: __ZZN5boost4math6detail11erf_inv_impIdNS0_8policies6policyINS3_10pole_errorILNS3_17error_policy_typeE1EEENS3_14overflow_errorILS6_1EEENS3_13promote_floatILb0EEENS3_14promote_doubleILb0EEENS3_14default_policyESE_SE_SE_SE_SE_SE_SE_SE_EEEET_RKSG_SI_RKT0_PKNSt3__117integral_constantIiLi64EEEE1P_5, symObjAddr: 0x37A50, symBinAddr: 0x10006BA78, symSize: 0x0 }
  - { offsetInCU: 0x2ED20F, offset: 0x2ED20F, size: 0x8, addend: 0x0, symName: __ZZN5boost4math6detail11erf_inv_impIdNS0_8policies6policyINS3_10pole_errorILNS3_17error_policy_typeE1EEENS3_14overflow_errorILS6_1EEENS3_13promote_floatILb0EEENS3_14promote_doubleILb0EEENS3_14default_policyESE_SE_SE_SE_SE_SE_SE_SE_EEEET_RKSG_SI_RKT0_PKNSt3__117integral_constantIiLi64EEEE1Q_5, symObjAddr: 0x37A90, symBinAddr: 0x10006BAB8, symSize: 0x0 }
  - { offsetInCU: 0x2ED74F, offset: 0x2ED74F, size: 0x8, addend: 0x0, symName: __ZN5boost4math6detail16owens_t_dispatchIeNS0_8policies6policyINS3_14default_policyES5_S5_S5_S5_S5_S5_S5_S5_S5_S5_S5_S5_EEEET_S7_S7_S7_RKT0_RKNSt3__117integral_constantIiLi64EEE, symObjAddr: 0x606C, symBinAddr: 0x100006ADC, symSize: 0x2EC }
  - { offsetInCU: 0x2ED77B, offset: 0x2ED77B, size: 0x8, addend: 0x0, symName: __ZZN5boost4math6detail16owens_t_dispatchIeNS0_8policies6policyINS3_14default_policyES5_S5_S5_S5_S5_S5_S5_S5_S5_S5_S5_S5_EEEET_S7_S7_S7_RKT0_RKNSt3__117integral_constantIiLi64EEEE4meth, symObjAddr: 0x37AC8, symBinAddr: 0x10006BAF0, symSize: 0x0 }
  - { offsetInCU: 0x2EDF90, offset: 0x2EDF90, size: 0x8, addend: 0x0, symName: __ZN5boost4math6detail10owens_t_T1IeNS0_8policies6policyINS3_14default_policyES5_S5_S5_S5_S5_S5_S5_S5_S5_S5_S5_S5_EEEET_S7_S7_tRKT0_, symObjAddr: 0x6358, symBinAddr: 0x100006DC8, symSize: 0xD8 }
  - { offsetInCU: 0x2EDFAC, offset: 0x2EDFAC, size: 0x8, addend: 0x0, symName: __ZN5boost4math6detail9bessel_j0IeEET_S3_, symObjAddr: 0x70B4, symBinAddr: 0x100007B24, symSize: 0x8B0 }
  - { offsetInCU: 0x2EDFEE, offset: 0x2EDFEE, size: 0x8, addend: 0x0, symName: __ZZN5boost4math6detail9bessel_j0IeEET_S3_E2P2, symObjAddr: 0x37E80, symBinAddr: 0x10006BEA8, symSize: 0x0 }
  - { offsetInCU: 0x2EE004, offset: 0x2EE004, size: 0x8, addend: 0x0, symName: __ZZN5boost4math6detail9bessel_j0IeEET_S3_E2Q2, symObjAddr: 0x37EC0, symBinAddr: 0x10006BEE8, symSize: 0x0 }
  - { offsetInCU: 0x2EE3E5, offset: 0x2EE3E5, size: 0x8, addend: 0x0, symName: __ZN5boost4math6detail11erf_inv_impIeNS0_8policies6policyINS3_13promote_floatILb0EEENS3_14promote_doubleILb0EEENS3_14default_policyES9_S9_S9_S9_S9_S9_S9_S9_S9_S9_EEEET_RKSB_SD_RKT0_PKNSt3__117integral_constantIiLi64EEE, symObjAddr: 0x7D28, symBinAddr: 0x100008798, symSize: 0xA60 }
  - { offsetInCU: 0x2EE4CF, offset: 0x2EE4CF, size: 0x8, addend: 0x0, symName: __ZZN5boost4math6detail11erf_inv_impIeNS0_8policies6policyINS3_13promote_floatILb0EEENS3_14promote_doubleILb0EEENS3_14default_policyES9_S9_S9_S9_S9_S9_S9_S9_S9_S9_EEEET_RKSB_SD_RKT0_PKNSt3__117integral_constantIiLi64EEEE1P_4, symObjAddr: 0x37F00, symBinAddr: 0x10006BF28, symSize: 0x0 }
  - { offsetInCU: 0x2EE4E5, offset: 0x2EE4E5, size: 0x8, addend: 0x0, symName: __ZZN5boost4math6detail11erf_inv_impIeNS0_8policies6policyINS3_13promote_floatILb0EEENS3_14promote_doubleILb0EEENS3_14default_policyES9_S9_S9_S9_S9_S9_S9_S9_S9_S9_EEEET_RKSB_SD_RKT0_PKNSt3__117integral_constantIiLi64EEEE1Q_4, symObjAddr: 0x37F40, symBinAddr: 0x10006BF68, symSize: 0x0 }
  - { offsetInCU: 0x2EE507, offset: 0x2EE507, size: 0x8, addend: 0x0, symName: __ZZN5boost4math6detail11erf_inv_impIeNS0_8policies6policyINS3_13promote_floatILb0EEENS3_14promote_doubleILb0EEENS3_14default_policyES9_S9_S9_S9_S9_S9_S9_S9_S9_S9_EEEET_RKSB_SD_RKT0_PKNSt3__117integral_constantIiLi64EEEE1P_5, symObjAddr: 0x37F78, symBinAddr: 0x10006BFA0, symSize: 0x0 }
  - { offsetInCU: 0x2EE51E, offset: 0x2EE51E, size: 0x8, addend: 0x0, symName: __ZZN5boost4math6detail11erf_inv_impIeNS0_8policies6policyINS3_13promote_floatILb0EEENS3_14promote_doubleILb0EEENS3_14default_policyES9_S9_S9_S9_S9_S9_S9_S9_S9_S9_EEEET_RKSB_SD_RKT0_PKNSt3__117integral_constantIiLi64EEEE1Q_5, symObjAddr: 0x37FB8, symBinAddr: 0x10006BFE0, symSize: 0x0 }
  - { offsetInCU: 0x2EF23C, offset: 0x2EF23C, size: 0x8, addend: 0x0, symName: __ZN5boost4math6detail10owens_t_T1IeNS0_8policies6policyINS3_14default_policyES5_S5_S5_S5_S5_S5_S5_S5_S5_S5_S5_S5_EEEET_S7_S7_tRKT0_, symObjAddr: 0x6358, symBinAddr: 0x100006DC8, symSize: 0xD8 }
  - { offsetInCU: 0x2EF426, offset: 0x2EF426, size: 0x8, addend: 0x0, symName: __ZN5boost4math6detail10owens_t_T2IeNS0_8policies6policyINS3_14default_policyES5_S5_S5_S5_S5_S5_S5_S5_S5_S5_S5_S5_EEEET_S7_S7_tS7_RKT0_RKNSt3__117integral_constantIbLb0EEE, symObjAddr: 0x6430, symBinAddr: 0x100006EA0, symSize: 0x154 }
  - { offsetInCU: 0x2EF7CE, offset: 0x2EF7CE, size: 0x8, addend: 0x0, symName: __ZN5boost4math6detail10owens_t_T3IeNS0_8policies6policyINS3_14default_policyES5_S5_S5_S5_S5_S5_S5_S5_S5_S5_S5_S5_EEEET_S7_S7_S7_RKT0_, symObjAddr: 0x6584, symBinAddr: 0x100006FF4, symSize: 0x14C }
  - { offsetInCU: 0x2EFB68, offset: 0x2EFB68, size: 0x8, addend: 0x0, symName: __ZN5boost4math6detail10owens_t_T4IeEET_S3_S3_t, symObjAddr: 0x66D0, symBinAddr: 0x100007140, symSize: 0xBC }
  - { offsetInCU: 0x2EFD22, offset: 0x2EFD22, size: 0x8, addend: 0x0, symName: __ZN5boost4math6detail10owens_t_T5IeNS0_8policies6policyINS3_14default_policyES5_S5_S5_S5_S5_S5_S5_S5_S5_S5_S5_S5_EEEET_S7_S7_RKT0_, symObjAddr: 0x678C, symBinAddr: 0x1000071FC, symSize: 0xA0 }
  - { offsetInCU: 0x2EFEE2, offset: 0x2EFEE2, size: 0x8, addend: 0x0, symName: __ZN5boost4math6detail10owens_t_T6IeNS0_8policies6policyINS3_14default_policyES5_S5_S5_S5_S5_S5_S5_S5_S5_S5_S5_S5_EEEET_S7_S7_RKT0_, symObjAddr: 0x682C, symBinAddr: 0x10000729C, symSize: 0x100 }
  - { offsetInCU: 0x2F08C2, offset: 0x2F08C2, size: 0x8, addend: 0x0, symName: __ZN5boost4math8policies6detail11raise_errorISt14overflow_errordEEvPKcS6_, symObjAddr: 0x5ED4, symBinAddr: 0x100006944, symSize: 0x198 }
  - { offsetInCU: 0x2F12CC, offset: 0x2F12CC, size: 0x8, addend: 0x0, symName: __ZN5boost4math8policies6detail21replace_all_in_stringERNSt3__112basic_stringIcNS3_11char_traitsIcEENS3_9allocatorIcEEEEPKcSC_, symObjAddr: 0x3CE4, symBinAddr: 0x10000475C, symSize: 0x134 }
  - { offsetInCU: 0x2F16AD, offset: 0x2F16AD, size: 0x8, addend: 0x0, symName: __ZN5boost4math8policies6detail11raise_errorISt14overflow_erroreEEvPKcS6_, symObjAddr: 0x4178, symBinAddr: 0x100004BE8, symSize: 0x198 }
  - { offsetInCU: 0x2F20B6, offset: 0x2F20B6, size: 0x8, addend: 0x0, symName: __ZN5boost4math8policies6detail11prec_formatIeEENSt3__112basic_stringIcNS4_11char_traitsIcEENS4_9allocatorIcEEEERKT_, symObjAddr: 0x47D4, symBinAddr: 0x100005244, symSize: 0xDC }
  - { offsetInCU: 0x2F24E1, offset: 0x2F24E1, size: 0x8, addend: 0x0, symName: __ZN5boost4math8policies6detail11raise_errorINS0_16evaluation_errorEeEEvPKcS6_RKT0_, symObjAddr: 0x692C, symBinAddr: 0x10000739C, symSize: 0x2AC }
  - { offsetInCU: 0x2F38B2, offset: 0x2F38B2, size: 0x8, addend: 0x0, symName: __ZZN5boost4math7erf_invIeNS0_8policies6policyINS2_13promote_floatILb0EEENS2_14promote_doubleILb0EEENS2_14default_policyES8_S8_S8_S8_S8_S8_S8_S8_S8_S8_EEEENS0_5tools12promote_argsIT_fffffE4typeESC_RKT0_E8function, symObjAddr: 0x3A7A8, symBinAddr: 0x100078150, symSize: 0x0 }
  - { offsetInCU: 0x2F38E3, offset: 0x2F38E3, size: 0x8, addend: 0x0, symName: __ZZN5boost4math8erfc_invIeNS0_8policies6policyINS2_13promote_floatILb0EEENS2_14promote_doubleILb0EEENS2_14default_policyES8_S8_S8_S8_S8_S8_S8_S8_S8_S8_EEEENS0_5tools12promote_argsIT_fffffE4typeESC_RKT0_E8function, symObjAddr: 0x3A7B0, symBinAddr: 0x100078158, symSize: 0x0 }
  - { offsetInCU: 0x2F390B, offset: 0x2F390B, size: 0x8, addend: 0x0, symName: __ZN5boost4math5tools19evaluate_polynomialILm8EddEET1_RAT__KT0_RKS3_, symObjAddr: 0x3C54, symBinAddr: 0x1000046CC, symSize: 0x4C }
  - { offsetInCU: 0x2F393B, offset: 0x2F393B, size: 0x8, addend: 0x0, symName: __ZN5boost4math5tools19evaluate_polynomialILm8EddEET1_RAT__KT0_RKS3_, symObjAddr: 0x3C54, symBinAddr: 0x1000046CC, symSize: 0x4C }
  - { offsetInCU: 0x2F3974, offset: 0x2F3974, size: 0x8, addend: 0x0, symName: __ZN5boost4math5tools19evaluate_polynomialILm7EddEET1_RAT__KT0_RKS3_, symObjAddr: 0x3CA0, symBinAddr: 0x100004718, symSize: 0x44 }
  - { offsetInCU: 0x2F39A4, offset: 0x2F39A4, size: 0x8, addend: 0x0, symName: __ZN5boost4math5tools19evaluate_polynomialILm7EddEET1_RAT__KT0_RKS3_, symObjAddr: 0x3CA0, symBinAddr: 0x100004718, symSize: 0x44 }
  - { offsetInCU: 0x2F3A4F, offset: 0x2F3A4F, size: 0x8, addend: 0x0, symName: __ZN5boost4math5tools19evaluate_polynomialILm7EeeEET1_RAT__KT0_RKS3_, symObjAddr: 0x48B0, symBinAddr: 0x100005320, symSize: 0x44 }
  - { offsetInCU: 0x2F3A7F, offset: 0x2F3A7F, size: 0x8, addend: 0x0, symName: __ZN5boost4math5tools19evaluate_polynomialILm7EeeEET1_RAT__KT0_RKS3_, symObjAddr: 0x48B0, symBinAddr: 0x100005320, symSize: 0x44 }
  - { offsetInCU: 0x2F3AB8, offset: 0x2F3AB8, size: 0x8, addend: 0x0, symName: __ZN5boost4math5tools19evaluate_polynomialILm8EeeEET1_RAT__KT0_RKS3_, symObjAddr: 0x48F4, symBinAddr: 0x100005364, symSize: 0x4C }
  - { offsetInCU: 0x2F3AE8, offset: 0x2F3AE8, size: 0x8, addend: 0x0, symName: __ZN5boost4math5tools19evaluate_polynomialILm8EeeEET1_RAT__KT0_RKS3_, symObjAddr: 0x48F4, symBinAddr: 0x100005364, symSize: 0x4C }
  - { offsetInCU: 0x2F40A5, offset: 0x2F40A5, size: 0x8, addend: 0x0, symName: __ZN5boost4math5tools6detail23evaluate_rational_c_impIeeeEET1_PKT_PKT0_RKS4_PKNSt3__117integral_constantIiLi8EEE, symObjAddr: 0x7964, symBinAddr: 0x1000083D4, symSize: 0x130 }
  - { offsetInCU: 0x2F530D, offset: 0x2F530D, size: 0x8, addend: 0x0, symName: __ZN5boost6random6detail21generate_uniform_realINS0_23mersenne_twister_engineIjLm32ELm624ELm397ELm31ELj2567483615ELm11ELj4294967295ELm7ELj2636928640ELm15ELj4022730752ELm18ELj1812433253EEEdEET0_RT_S5_S5_, symObjAddr: 0x8788, symBinAddr: 0x1000091F8, symSize: 0xE0 }
  - { offsetInCU: 0x2F5D82, offset: 0x2F5D82, size: 0x8, addend: 0x0, symName: __ZN5boost16exception_detail20copy_boost_exceptionEPNS_9exceptionEPKS1_, symObjAddr: 0x3E20, symBinAddr: 0x100004890, symSize: 0x138 }
  - { offsetInCU: 0x2F6928, offset: 0x2F6928, size: 0x8, addend: 0x0, symName: __ZN5boost15throw_exceptionISt14overflow_errorEEvRKT_, symObjAddr: 0x4310, symBinAddr: 0x100004D80, symSize: 0x50 }
  - { offsetInCU: 0x2F696F, offset: 0x2F696F, size: 0x8, addend: 0x0, symName: __ZN5boost15throw_exceptionINS_4math16evaluation_errorEEEvRKT_, symObjAddr: 0x6BD8, symBinAddr: 0x100007648, symSize: 0x50 }
  - { offsetInCU: 0x2F6FA5, offset: 0x2F6FA5, size: 0x8, addend: 0x0, symName: __ZN36MathMixMatFun_simplexTransform0_Test10test_info_E, symObjAddr: 0x15C20E8, symBinAddr: 0x100078370, symSize: 0x0 }
  - { offsetInCU: 0x2F76DA, offset: 0x2F76DA, size: 0x8, addend: 0x0, symName: __ZN7testing8internal18CmpHelperEQFailureImmEENS_15AssertionResultEPKcS4_RKT_RKT0_, symObjAddr: 0xBA68, symBinAddr: 0x10000C4D8, symSize: 0xE4 }
  - { offsetInCU: 0x2F7CC8, offset: 0x2F7CC8, size: 0x8, addend: 0x0, symName: __ZN7testing8internal18CmpHelperEQFailureIddEENS_15AssertionResultEPKcS4_RKT_RKT0_, symObjAddr: 0xBE0C, symBinAddr: 0x10000C87C, symSize: 0xE4 }
  - { offsetInCU: 0x2F8677, offset: 0x2F8677, size: 0x8, addend: 0x0, symName: __ZN7testing8internal18CmpHelperEQFailureIlmEENS_15AssertionResultEPKcS4_RKT_RKT0_, symObjAddr: 0x19E58, symBinAddr: 0x10001A8C8, symSize: 0xE4 }
  - { offsetInCU: 0x2F8C65, offset: 0x2F8C65, size: 0x8, addend: 0x0, symName: __ZN7testing8internal18CmpHelperEQFailureIllEENS_15AssertionResultEPKcS4_RKT_RKT0_, symObjAddr: 0x16958, symBinAddr: 0x1000173C8, symSize: 0xE4 }
  - { offsetInCU: 0x2FA037, offset: 0x2FA037, size: 0x8, addend: 0x0, symName: __ZN7testing13PrintToStringImEENSt3__112basic_stringIcNS1_11char_traitsIcEENS1_9allocatorIcEEEERKT_, symObjAddr: 0xBB4C, symBinAddr: 0x10000C5BC, symSize: 0xC8 }
  - { offsetInCU: 0x2FA34A, offset: 0x2FA34A, size: 0x8, addend: 0x0, symName: __ZN7testing13PrintToStringIdEENSt3__112basic_stringIcNS1_11char_traitsIcEENS1_9allocatorIcEEEERKT_, symObjAddr: 0xBEF0, symBinAddr: 0x10000C960, symSize: 0xC8 }
  - { offsetInCU: 0x2FA65D, offset: 0x2FA65D, size: 0x8, addend: 0x0, symName: __ZN7testing13PrintToStringIlEENSt3__112basic_stringIcNS1_11char_traitsIcEENS1_9allocatorIcEEEERKT_, symObjAddr: 0x16A3C, symBinAddr: 0x1000174AC, symSize: 0xC8 }
  - { offsetInCU: 0x2FAE1E, offset: 0x2FAE1E, size: 0x8, addend: 0x0, symName: __ZN36MathMixMatFun_simplexTransform1_Test10test_info_E, symObjAddr: 0x15C20F0, symBinAddr: 0x100078378, symSize: 0x0 }
  - { offsetInCU: 0x2FB0C1, offset: 0x2FB0C1, size: 0x8, addend: 0x0, symName: __ZN4stan4math22AutodiffStackSingletonINS0_9vari_baseENS0_15chainable_allocEE4initEv, symObjAddr: 0x2DEC, symBinAddr: 0x100003864, symSize: 0x154 }
  - { offsetInCU: 0x2FB0E1, offset: 0x2FB0E1, size: 0x8, addend: 0x0, symName: __ZZN4stan4math22AutodiffStackSingletonINS0_9vari_baseENS0_15chainable_allocEE4initEvE14is_initialized, symObjAddr: 0x3A798, symBinAddr: 0x100078140, symSize: 0x0 }
  - { offsetInCU: 0x322C7C, offset: 0x322C7C, size: 0x8, addend: 0x0, symName: __ZN4stan4math16ad_tape_observerD1Ev, symObjAddr: 0x0, symBinAddr: 0x100000A78, symSize: 0x4 }
  - { offsetInCU: 0x322C9F, offset: 0x322C9F, size: 0x8, addend: 0x0, symName: __ZN4stan4test9is_finiteEd, symObjAddr: 0x4, symBinAddr: 0x100000A7C, symSize: 0x24 }
  - { offsetInCU: 0x322CB2, offset: 0x322CB2, size: 0x8, addend: 0x0, symName: __ZN4stan4math16ad_tape_observerD2Ev, symObjAddr: 0x3B20, symBinAddr: 0x100004598, symSize: 0x8C }
  - { offsetInCU: 0x322E8C, offset: 0x322E8C, size: 0x8, addend: 0x0, symName: __Z13count_matchesRKNSt3__112basic_stringIcNS_11char_traitsIcEENS_9allocatorIcEEEES7_, symObjAddr: 0x28, symBinAddr: 0x100000AA0, symSize: 0x11C }
  - { offsetInCU: 0x3237DA, offset: 0x3237DA, size: 0x8, addend: 0x0, symName: __ZN5Eigen12SparseMatrixIdLi0EiE6resizeEll, symObjAddr: 0x8974, symBinAddr: 0x1000093E4, symSize: 0x98 }
  - { offsetInCU: 0x323865, offset: 0x323865, size: 0x8, addend: 0x0, symName: __ZNKSt3__16vectorIN5Eigen7TripletIdiEENS_9allocatorIS3_EEE20__throw_length_errorB7v160006Ev, symObjAddr: 0x8960, symBinAddr: 0x1000093D0, symSize: 0x14 }
  - { offsetInCU: 0x32388E, offset: 0x32388E, size: 0x8, addend: 0x0, symName: __ZN5Eigen12SparseMatrixIdLi0EiE6resizeEll, symObjAddr: 0x8974, symBinAddr: 0x1000093E4, symSize: 0x98 }
  - { offsetInCU: 0x323899, offset: 0x323899, size: 0x8, addend: 0x0, symName: __ZN5Eigen12SparseMatrixIdLi0EiED1Ev, symObjAddr: 0x440, symBinAddr: 0x100000EB8, symSize: 0x48 }
  - { offsetInCU: 0x32392F, offset: 0x32392F, size: 0x8, addend: 0x0, symName: __ZNSt3__16vectorIdNS_9allocatorIdEEEC1B7v160006ESt16initializer_listIdE, symObjAddr: 0x57C, symBinAddr: 0x100000FF4, symSize: 0x90 }
  - { offsetInCU: 0x323FB8, offset: 0x323FB8, size: 0x8, addend: 0x0, symName: __ZNKSt3__16vectorIdNS_9allocatorIdEEE20__throw_length_errorB7v160006Ev, symObjAddr: 0x7A94, symBinAddr: 0x100008504, symSize: 0x14 }
  - { offsetInCU: 0x323FE1, offset: 0x323FE1, size: 0x8, addend: 0x0, symName: __ZN5Eigen8internal28conditional_aligned_new_autoIdLb1EEEPT_m, symObjAddr: 0x7AA8, symBinAddr: 0x100008518, symSize: 0x6C }
  - { offsetInCU: 0x324006, offset: 0x324006, size: 0x8, addend: 0x0, symName: __ZNSt3__16vectorIdNS_9allocatorIdEEED1B7v160006Ev, symObjAddr: 0x60C, symBinAddr: 0x100001084, symSize: 0x30 }
  - { offsetInCU: 0x3248A6, offset: 0x3248A6, size: 0x8, addend: 0x0, symName: __ZNSt3__16vectorIiNS_9allocatorIiEEEC1B7v160006ESt16initializer_listIiE, symObjAddr: 0x9B8, symBinAddr: 0x100001430, symSize: 0x90 }
  - { offsetInCU: 0x324C72, offset: 0x324C72, size: 0x8, addend: 0x0, symName: __ZNKSt3__16vectorIiNS_9allocatorIiEEE20__throw_length_errorB7v160006Ev, symObjAddr: 0x98B0, symBinAddr: 0x10000A320, symSize: 0x14 }
  - { offsetInCU: 0x324C9B, offset: 0x324C9B, size: 0x8, addend: 0x0, symName: __ZNKSt3__16vectorINS_7complexIdEENS_9allocatorIS2_EEE20__throw_length_errorB7v160006Ev, symObjAddr: 0x98C4, symBinAddr: 0x10000A334, symSize: 0x14 }
  - { offsetInCU: 0x324DDB, offset: 0x324DDB, size: 0x8, addend: 0x0, symName: __ZNSt3__16vectorIiNS_9allocatorIiEEED1B7v160006Ev, symObjAddr: 0xA48, symBinAddr: 0x1000014C0, symSize: 0x30 }
  - { offsetInCU: 0x325820, offset: 0x325820, size: 0x8, addend: 0x0, symName: __ZNKSt3__16vectorINS_7complexIdEENS_9allocatorIS2_EEE20__throw_length_errorB7v160006Ev, symObjAddr: 0x98C4, symBinAddr: 0x10000A334, symSize: 0x14 }
  - { offsetInCU: 0x325849, offset: 0x325849, size: 0x8, addend: 0x0, symName: __ZNSt3__16vectorIN5Eigen6MatrixIdLin1ELin1ELi0ELin1ELin1EEENS_9allocatorIS3_EEE21__push_back_slow_pathIRKS3_EEvOT_, symObjAddr: 0x98D8, symBinAddr: 0x10000A348, symSize: 0x1A8 }
  - { offsetInCU: 0x325E64, offset: 0x325E64, size: 0x8, addend: 0x0, symName: __ZNSt3__16vectorIN5Eigen6MatrixIdLin1ELin1ELi0ELin1ELin1EEENS_9allocatorIS3_EEE21__push_back_slow_pathIRKS3_EEvOT_, symObjAddr: 0x98D8, symBinAddr: 0x10000A348, symSize: 0x1A8 }
  - { offsetInCU: 0x326622, offset: 0x326622, size: 0x8, addend: 0x0, symName: __ZN4stan4test20ar_test_cov_matricesEiid.cold.1, symObjAddr: 0x32004, symBinAddr: 0x100062AB4, symSize: 0x40 }
  - { offsetInCU: 0x326970, offset: 0x326970, size: 0x8, addend: 0x0, symName: __ZNSt3__16vectorIN5Eigen6MatrixIdLin1ELin1ELi0ELin1ELin1EEENS_9allocatorIS3_EEED1B7v160006Ev, symObjAddr: 0x1110, symBinAddr: 0x100001B88, symSize: 0x58 }
  - { offsetInCU: 0x327046, offset: 0x327046, size: 0x8, addend: 0x0, symName: __ZN5Eigen16CommaInitializerINS_6MatrixIdLin1ELin1ELi0ELin1ELin1EEEED1Ev, symObjAddr: 0x1C80, symBinAddr: 0x1000026F8, symSize: 0x68 }
  - { offsetInCU: 0x3271B3, offset: 0x3271B3, size: 0x8, addend: 0x0, symName: __ZN7testing8internal16SuiteApiResolverINS_4TestEE19GetSetUpCaseOrSuiteEPKci, symObjAddr: 0x1CE8, symBinAddr: 0x100002760, symSize: 0xD0 }
  - { offsetInCU: 0x32733D, offset: 0x32733D, size: 0x8, addend: 0x0, symName: __ZN7testing8internal16SuiteApiResolverINS_4TestEE22GetTearDownCaseOrSuiteEPKci, symObjAddr: 0x1DB8, symBinAddr: 0x100002830, symSize: 0xD0 }
  - { offsetInCU: 0x3274C7, offset: 0x3274C7, size: 0x8, addend: 0x0, symName: __ZN36MathMixMatFun_simplexTransform0_Test8TestBodyEv, symObjAddr: 0x1E88, symBinAddr: 0x100002900, symSize: 0x68 }
  - { offsetInCU: 0x32789C, offset: 0x32789C, size: 0x8, addend: 0x0, symName: __ZN26simplex_row_constrain_test24expect_simplex_transformIN5Eigen6MatrixIdLin1ELin1ELi0ELin1ELin1EEEEEvRKT_, symObjAddr: 0x1EF0, symBinAddr: 0x100002968, symSize: 0x24C }
  - { offsetInCU: 0x329C4A, offset: 0x329C4A, size: 0x8, addend: 0x0, symName: __ZN26simplex_row_constrain_test2g3IN5Eigen6MatrixIN4stan4math9var_valueIdvEELin1ELin1ELi0ELin1ELin1EEEEENS3_11scalar_typeIT_vE4typeERKS9_, symObjAddr: 0x2DE40, symBinAddr: 0x10002E70C, symSize: 0x88 }
  - { offsetInCU: 0x32A0B3, offset: 0x32A0B3, size: 0x8, addend: 0x0, symName: __ZN36MathMixMatFun_simplexTransform1_Test8TestBodyEv, symObjAddr: 0x213C, symBinAddr: 0x100002BB4, symSize: 0x13C }
  - { offsetInCU: 0x32A527, offset: 0x32A527, size: 0x8, addend: 0x0, symName: __ZN36MathMixMatFun_simplexTransform0_TestD1Ev, symObjAddr: 0x2278, symBinAddr: 0x100002CF0, symSize: 0x4 }
  - { offsetInCU: 0x32A549, offset: 0x32A549, size: 0x8, addend: 0x0, symName: __ZN36MathMixMatFun_simplexTransform0_TestD1Ev, symObjAddr: 0x2278, symBinAddr: 0x100002CF0, symSize: 0x4 }
  - { offsetInCU: 0x32A57D, offset: 0x32A57D, size: 0x8, addend: 0x0, symName: __ZN36MathMixMatFun_simplexTransform0_TestD0Ev, symObjAddr: 0x227C, symBinAddr: 0x100002CF4, symSize: 0x14 }
  - { offsetInCU: 0x32A5DE, offset: 0x32A5DE, size: 0x8, addend: 0x0, symName: __ZN7testing4Test5SetupEv, symObjAddr: 0x2290, symBinAddr: 0x100002D08, symSize: 0x8 }
  - { offsetInCU: 0x32A625, offset: 0x32A625, size: 0x8, addend: 0x0, symName: __ZN36MathMixMatFun_simplexTransform1_TestD1Ev, symObjAddr: 0x2298, symBinAddr: 0x100002D10, symSize: 0x4 }
  - { offsetInCU: 0x32A647, offset: 0x32A647, size: 0x8, addend: 0x0, symName: __ZN36MathMixMatFun_simplexTransform1_TestD1Ev, symObjAddr: 0x2298, symBinAddr: 0x100002D10, symSize: 0x4 }
  - { offsetInCU: 0x32A67B, offset: 0x32A67B, size: 0x8, addend: 0x0, symName: __ZN36MathMixMatFun_simplexTransform1_TestD0Ev, symObjAddr: 0x229C, symBinAddr: 0x100002D14, symSize: 0x14 }
  - { offsetInCU: 0x32A6DC, offset: 0x32A6DC, size: 0x8, addend: 0x0, symName: __ZN5boost4math6detail15erf_initializerIdNS0_8policies6policyINS3_10pole_errorILNS3_17error_policy_typeE1EEENS3_14overflow_errorILS6_1EEENS3_13promote_floatILb0EEENS3_14promote_doubleILb0EEENS3_14default_policyESE_SE_SE_SE_SE_SE_SE_SE_EENSt3__117integral_constantIiLi53EEEE4init7do_initERKSI_, symObjAddr: 0x3F58, symBinAddr: 0x1000049C8, symSize: 0x220 }
  - { offsetInCU: 0x32AD96, offset: 0x32AD96, size: 0x8, addend: 0x0, symName: __ZN5boost4math6detail15erf_initializerIeNS0_8policies6policyINS3_13promote_floatILb0EEENS3_14promote_doubleILb0EEENS3_14default_policyES9_S9_S9_S9_S9_S9_S9_S9_S9_S9_EENSt3__117integral_constantIiLi53EEEE4init7do_initERKSD_, symObjAddr: 0x4940, symBinAddr: 0x1000053B0, symSize: 0x238 }
  - { offsetInCU: 0x32B766, offset: 0x32B766, size: 0x8, addend: 0x0, symName: __ZN5boost4math6detail19erf_inv_initializerIdNS0_8policies6policyINS3_10pole_errorILNS3_17error_policy_typeE1EEENS3_14overflow_errorILS6_1EEENS3_13promote_floatILb0EEENS3_14promote_doubleILb0EEENS3_14default_policyESE_SE_SE_SE_SE_SE_SE_SE_EEE4init7do_initEv, symObjAddr: 0x5270, symBinAddr: 0x100005CE0, symSize: 0x1F8 }
  - { offsetInCU: 0x32C69D, offset: 0x32C69D, size: 0x8, addend: 0x0, symName: __ZN5boost4math6detail19erf_inv_initializerIeNS0_8policies6policyINS3_13promote_floatILb0EEENS3_14promote_doubleILb0EEENS3_14default_policyES9_S9_S9_S9_S9_S9_S9_S9_S9_S9_EEE4init7do_initEv, symObjAddr: 0x7B14, symBinAddr: 0x100008584, symSize: 0x208 }
  - { offsetInCU: 0x32D3E9, offset: 0x32D3E9, size: 0x8, addend: 0x0, symName: __ZN4stan4math16ad_tape_observerC2Ev, symObjAddr: 0x22B0, symBinAddr: 0x100002D28, symSize: 0xC0 }
  - { offsetInCU: 0x32D7A8, offset: 0x32D7A8, size: 0x8, addend: 0x0, symName: __ZN4stan4math16ad_tape_observer18on_scheduler_entryEb, symObjAddr: 0x2370, symBinAddr: 0x100002DE8, symSize: 0x138 }
  - { offsetInCU: 0x32DC55, offset: 0x32DC55, size: 0x8, addend: 0x0, symName: __ZNSt3__112__hash_tableINS_17__hash_value_typeINS_11__thread_idENS_10unique_ptrIN4stan4math22AutodiffStackSingletonINS5_9vari_baseENS5_15chainable_allocEEENS_14default_deleteIS9_EEEEEENS_22__unordered_map_hasherIS2_SD_NS_4hashIS2_EENS_8equal_toIS2_EELb1EEENS_21__unordered_map_equalIS2_SD_SI_SG_Lb1EEENS_9allocatorISD_EEED2Ev, symObjAddr: 0x38C4, symBinAddr: 0x10000433C, symSize: 0x9C }
  - { offsetInCU: 0x32DFDD, offset: 0x32DFDD, size: 0x8, addend: 0x0, symName: __ZN3tbb10interface623task_scheduler_observerD2Ev, symObjAddr: 0x24A8, symBinAddr: 0x100002F20, symSize: 0x70 }
  - { offsetInCU: 0x32E3A6, offset: 0x32E3A6, size: 0x8, addend: 0x0, symName: __ZNSt3__112__hash_tableINS_17__hash_value_typeINS_11__thread_idENS_10unique_ptrIN4stan4math22AutodiffStackSingletonINS5_9vari_baseENS5_15chainable_allocEEENS_14default_deleteIS9_EEEEEENS_22__unordered_map_hasherIS2_SD_NS_4hashIS2_EENS_8equal_toIS2_EELb1EEENS_21__unordered_map_equalIS2_SD_SI_SG_Lb1EEENS_9allocatorISD_EEE4findIS2_EENS_15__hash_iteratorIPNS_11__hash_nodeISD_PvEEEERKT_, symObjAddr: 0x278C, symBinAddr: 0x100003204, symSize: 0x100 }
  - { offsetInCU: 0x32E400, offset: 0x32E400, size: 0x8, addend: 0x0, symName: __ZNSt3__112__hash_tableINS_17__hash_value_typeINS_11__thread_idENS_10unique_ptrIN4stan4math22AutodiffStackSingletonINS5_9vari_baseENS5_15chainable_allocEEENS_14default_deleteIS9_EEEEEENS_22__unordered_map_hasherIS2_SD_NS_4hashIS2_EENS_8equal_toIS2_EELb1EEENS_21__unordered_map_equalIS2_SD_SI_SG_Lb1EEENS_9allocatorISD_EEE4findIS2_EENS_15__hash_iteratorIPNS_11__hash_nodeISD_PvEEEERKT_, symObjAddr: 0x278C, symBinAddr: 0x100003204, symSize: 0x100 }
  - { offsetInCU: 0x32E41C, offset: 0x32E41C, size: 0x8, addend: 0x0, symName: __ZNSt3__112__hash_tableINS_17__hash_value_typeINS_11__thread_idENS_10unique_ptrIN4stan4math22AutodiffStackSingletonINS5_9vari_baseENS5_15chainable_allocEEENS_14default_deleteIS9_EEEEEENS_22__unordered_map_hasherIS2_SD_NS_4hashIS2_EENS_8equal_toIS2_EELb1EEENS_21__unordered_map_equalIS2_SD_SI_SG_Lb1EEENS_9allocatorISD_EEE4findIS2_EENS_15__hash_iteratorIPNS_11__hash_nodeISD_PvEEEERKT_, symObjAddr: 0x278C, symBinAddr: 0x100003204, symSize: 0x100 }
  - { offsetInCU: 0x32E557, offset: 0x32E557, size: 0x8, addend: 0x0, symName: __ZNSt3__112__hash_tableINS_17__hash_value_typeINS_11__thread_idENS_10unique_ptrIN4stan4math22AutodiffStackSingletonINS5_9vari_baseENS5_15chainable_allocEEENS_14default_deleteIS9_EEEEEENS_22__unordered_map_hasherIS2_SD_NS_4hashIS2_EENS_8equal_toIS2_EELb1EEENS_21__unordered_map_equalIS2_SD_SI_SG_Lb1EEENS_9allocatorISD_EEE25__emplace_unique_key_argsIS2_JNS_4pairIKS2_SC_EEEEENSQ_INS_15__hash_iteratorIPNS_11__hash_nodeISD_PvEEEEbEERKT_DpOT0_, symObjAddr: 0x288C, symBinAddr: 0x100003304, symSize: 0x288 }
  - { offsetInCU: 0x32ECC9, offset: 0x32ECC9, size: 0x8, addend: 0x0, symName: __ZN4stan4math22AutodiffStackSingletonINS0_9vari_baseENS0_15chainable_allocEE20AutodiffStackStorageD2Ev, symObjAddr: 0x37A0, symBinAddr: 0x100004218, symSize: 0x88 }
  - { offsetInCU: 0x32F49B, offset: 0x32F49B, size: 0x8, addend: 0x0, symName: __ZNSt3__14pairIKNS_11__thread_idENS_10unique_ptrIN4stan4math22AutodiffStackSingletonINS5_9vari_baseENS5_15chainable_allocEEENS_14default_deleteIS9_EEEEED1Ev, symObjAddr: 0x272C, symBinAddr: 0x1000031A4, symSize: 0x60 }
  - { offsetInCU: 0x32F607, offset: 0x32F607, size: 0x8, addend: 0x0, symName: __ZN4stan4math16ad_tape_observer17on_scheduler_exitEb, symObjAddr: 0x2518, symBinAddr: 0x100002F90, symSize: 0x7C }
  - { offsetInCU: 0x32F78A, offset: 0x32F78A, size: 0x8, addend: 0x0, symName: __ZNSt3__112__hash_tableINS_17__hash_value_typeINS_11__thread_idENS_10unique_ptrIN4stan4math22AutodiffStackSingletonINS5_9vari_baseENS5_15chainable_allocEEENS_14default_deleteIS9_EEEEEENS_22__unordered_map_hasherIS2_SD_NS_4hashIS2_EENS_8equal_toIS2_EELb1EEENS_21__unordered_map_equalIS2_SD_SI_SG_Lb1EEENS_9allocatorISD_EEE5eraseENS_21__hash_const_iteratorIPNS_11__hash_nodeISD_PvEEEE, symObjAddr: 0x3960, symBinAddr: 0x1000043D8, symSize: 0x8C }
  - { offsetInCU: 0x32FAD2, offset: 0x32FAD2, size: 0x8, addend: 0x0, symName: __ZN4stan4math16ad_tape_observerD0Ev, symObjAddr: 0x2594, symBinAddr: 0x10000300C, symSize: 0x14 }
  - { offsetInCU: 0x32FB2C, offset: 0x32FB2C, size: 0x8, addend: 0x0, symName: __ZN3tbb8internal26task_scheduler_observer_v318on_scheduler_entryEb, symObjAddr: 0x25A8, symBinAddr: 0x100003020, symSize: 0x4 }
  - { offsetInCU: 0x32FB60, offset: 0x32FB60, size: 0x8, addend: 0x0, symName: __ZN3tbb8internal26task_scheduler_observer_v317on_scheduler_exitEb, symObjAddr: 0x25AC, symBinAddr: 0x100003024, symSize: 0x4 }
  - { offsetInCU: 0x32FBAE, offset: 0x32FBAE, size: 0x8, addend: 0x0, symName: __ZN3tbb10interface623task_scheduler_observerD1Ev, symObjAddr: 0x25B0, symBinAddr: 0x100003028, symSize: 0x70 }
  - { offsetInCU: 0x32FC3A, offset: 0x32FC3A, size: 0x8, addend: 0x0, symName: __ZN3tbb10interface623task_scheduler_observerD0Ev, symObjAddr: 0x2620, symBinAddr: 0x100003098, symSize: 0x70 }
  - { offsetInCU: 0x32FCCB, offset: 0x32FCCB, size: 0x8, addend: 0x0, symName: __ZN3tbb8internal26task_scheduler_observer_v3D1Ev, symObjAddr: 0x2690, symBinAddr: 0x100003108, symSize: 0x48 }
  - { offsetInCU: 0x32FD1D, offset: 0x32FD1D, size: 0x8, addend: 0x0, symName: __ZN3tbb8internal26task_scheduler_observer_v3D0Ev, symObjAddr: 0x26D8, symBinAddr: 0x100003150, symSize: 0x48 }
  - { offsetInCU: 0x3303E2, offset: 0x3303E2, size: 0x8, addend: 0x0, symName: __ZNSt3__112__hash_tableINS_17__hash_value_typeINS_11__thread_idENS_10unique_ptrIN4stan4math22AutodiffStackSingletonINS5_9vari_baseENS5_15chainable_allocEEENS_14default_deleteIS9_EEEEEENS_22__unordered_map_hasherIS2_SD_NS_4hashIS2_EENS_8equal_toIS2_EELb1EEENS_21__unordered_map_equalIS2_SD_SI_SG_Lb1EEENS_9allocatorISD_EEE8__rehashILb1EEEvm, symObjAddr: 0x2BB8, symBinAddr: 0x100003630, symSize: 0xDC }
  - { offsetInCU: 0x3304C8, offset: 0x3304C8, size: 0x8, addend: 0x0, symName: __ZNSt3__110unique_ptrINS_11__hash_nodeINS_17__hash_value_typeINS_11__thread_idENS0_IN4stan4math22AutodiffStackSingletonINS5_9vari_baseENS5_15chainable_allocEEENS_14default_deleteIS9_EEEEEEPvEENS_22__hash_node_destructorINS_9allocatorISF_EEEEED1B7v160006Ev, symObjAddr: 0x2B14, symBinAddr: 0x10000358C, symSize: 0x7C }
  - { offsetInCU: 0x33084E, offset: 0x33084E, size: 0x8, addend: 0x0, symName: __ZNSt3__112__hash_tableINS_17__hash_value_typeINS_11__thread_idENS_10unique_ptrIN4stan4math22AutodiffStackSingletonINS5_9vari_baseENS5_15chainable_allocEEENS_14default_deleteIS9_EEEEEENS_22__unordered_map_hasherIS2_SD_NS_4hashIS2_EENS_8equal_toIS2_EELb1EEENS_21__unordered_map_equalIS2_SD_SI_SG_Lb1EEENS_9allocatorISD_EEE11__do_rehashILb1EEEvm, symObjAddr: 0x2C94, symBinAddr: 0x10000370C, symSize: 0x158 }
  - { offsetInCU: 0x330CC4, offset: 0x330CC4, size: 0x8, addend: 0x0, symName: __ZN4stan4math22AutodiffStackSingletonINS0_9vari_baseENS0_15chainable_allocEE4initEv, symObjAddr: 0x2DEC, symBinAddr: 0x100003864, symSize: 0x154 }
  - { offsetInCU: 0x330E7A, offset: 0x330E7A, size: 0x8, addend: 0x0, symName: __ZN4stan4math11stack_allocC2Em, symObjAddr: 0x2F40, symBinAddr: 0x1000039B8, symSize: 0x170 }
  - { offsetInCU: 0x331BED, offset: 0x331BED, size: 0x8, addend: 0x0, symName: __ZNSt3__118basic_stringstreamIcNS_11char_traitsIcEENS_9allocatorIcEEEC1B7v160006Ev, symObjAddr: 0x31AC, symBinAddr: 0x100003C24, symSize: 0x12C }
  - { offsetInCU: 0x331CF7, offset: 0x331CF7, size: 0x8, addend: 0x0, symName: __ZNSt3__118basic_stringstreamIcNS_11char_traitsIcEENS_9allocatorIcEEED1Ev, symObjAddr: 0x3368, symBinAddr: 0x100003DE0, symSize: 0x88 }
  - { offsetInCU: 0x3323FF, offset: 0x3323FF, size: 0x8, addend: 0x0, symName: __ZNKSt3__112basic_stringIcNS_11char_traitsIcEENS_9allocatorIcEEE20__throw_length_errorB7v160006Ev, symObjAddr: 0x36F0, symBinAddr: 0x100004168, symSize: 0x14 }
  - { offsetInCU: 0x332428, offset: 0x332428, size: 0x8, addend: 0x0, symName: __ZNSt3__120__throw_length_errorB7v160006EPKc, symObjAddr: 0x3704, symBinAddr: 0x10000417C, symSize: 0x50 }
  - { offsetInCU: 0x332433, offset: 0x332433, size: 0x8, addend: 0x0, symName: __ZNSt12length_errorC1B7v160006EPKc, symObjAddr: 0x3754, symBinAddr: 0x1000041CC, symSize: 0x24 }
  - { offsetInCU: 0x3324BB, offset: 0x3324BB, size: 0x8, addend: 0x0, symName: __ZNKSt3__16vectorIPcNS_9allocatorIS1_EEE20__throw_length_errorB7v160006Ev, symObjAddr: 0x3778, symBinAddr: 0x1000041F0, symSize: 0x14 }
  - { offsetInCU: 0x3324E4, offset: 0x3324E4, size: 0x8, addend: 0x0, symName: __ZNKSt3__16vectorImNS_9allocatorImEEE20__throw_length_errorB7v160006Ev, symObjAddr: 0x378C, symBinAddr: 0x100004204, symSize: 0x14 }
  - { offsetInCU: 0x3324EF, offset: 0x3324EF, size: 0x8, addend: 0x0, symName: __ZNKSt3__16vectorImNS_9allocatorImEEE20__throw_length_errorB7v160006Ev, symObjAddr: 0x378C, symBinAddr: 0x100004204, symSize: 0x14 }
  - { offsetInCU: 0x332518, offset: 0x332518, size: 0x8, addend: 0x0, symName: __ZN4stan4math22AutodiffStackSingletonINS0_9vari_baseENS0_15chainable_allocEE20AutodiffStackStorageD2Ev, symObjAddr: 0x37A0, symBinAddr: 0x100004218, symSize: 0x88 }
  - { offsetInCU: 0x332727, offset: 0x332727, size: 0x8, addend: 0x0, symName: __ZN4stan4math11stack_allocD2Ev, symObjAddr: 0x3828, symBinAddr: 0x1000042A0, symSize: 0x9C }
  - { offsetInCU: 0x332F1F, offset: 0x332F1F, size: 0x8, addend: 0x0, symName: __ZNSt3__112__hash_tableINS_17__hash_value_typeINS_11__thread_idENS_10unique_ptrIN4stan4math22AutodiffStackSingletonINS5_9vari_baseENS5_15chainable_allocEEENS_14default_deleteIS9_EEEEEENS_22__unordered_map_hasherIS2_SD_NS_4hashIS2_EENS_8equal_toIS2_EELb1EEENS_21__unordered_map_equalIS2_SD_SI_SG_Lb1EEENS_9allocatorISD_EEE6removeENS_21__hash_const_iteratorIPNS_11__hash_nodeISD_PvEEEE, symObjAddr: 0x39EC, symBinAddr: 0x100004464, symSize: 0x134 }
  - { offsetInCU: 0x332F95, offset: 0x332F95, size: 0x8, addend: 0x0, symName: __ZNSt3__112__hash_tableINS_17__hash_value_typeINS_11__thread_idENS_10unique_ptrIN4stan4math22AutodiffStackSingletonINS5_9vari_baseENS5_15chainable_allocEEENS_14default_deleteIS9_EEEEEENS_22__unordered_map_hasherIS2_SD_NS_4hashIS2_EENS_8equal_toIS2_EELb1EEENS_21__unordered_map_equalIS2_SD_SI_SG_Lb1EEENS_9allocatorISD_EEE6removeENS_21__hash_const_iteratorIPNS_11__hash_nodeISD_PvEEEE, symObjAddr: 0x39EC, symBinAddr: 0x100004464, symSize: 0x134 }
  - { offsetInCU: 0x332FB1, offset: 0x332FB1, size: 0x8, addend: 0x0, symName: __ZNSt3__112__hash_tableINS_17__hash_value_typeINS_11__thread_idENS_10unique_ptrIN4stan4math22AutodiffStackSingletonINS5_9vari_baseENS5_15chainable_allocEEENS_14default_deleteIS9_EEEEEENS_22__unordered_map_hasherIS2_SD_NS_4hashIS2_EENS_8equal_toIS2_EELb1EEENS_21__unordered_map_equalIS2_SD_SI_SG_Lb1EEENS_9allocatorISD_EEE6removeENS_21__hash_const_iteratorIPNS_11__hash_nodeISD_PvEEEE, symObjAddr: 0x39EC, symBinAddr: 0x100004464, symSize: 0x134 }
  - { offsetInCU: 0x333224, offset: 0x333224, size: 0x8, addend: 0x0, symName: __ZN7testing8internal15TestFactoryImplI36MathMixMatFun_simplexTransform0_TestED1Ev, symObjAddr: 0x3BAC, symBinAddr: 0x100004624, symSize: 0x4 }
  - { offsetInCU: 0x333250, offset: 0x333250, size: 0x8, addend: 0x0, symName: __ZN7testing8internal15TestFactoryImplI36MathMixMatFun_simplexTransform0_TestED0Ev, symObjAddr: 0x3BB0, symBinAddr: 0x100004628, symSize: 0x4 }
  - { offsetInCU: 0x3332B0, offset: 0x3332B0, size: 0x8, addend: 0x0, symName: __ZN7testing8internal15TestFactoryImplI36MathMixMatFun_simplexTransform0_TestE10CreateTestEv, symObjAddr: 0x3BB4, symBinAddr: 0x10000462C, symSize: 0x4C }
  - { offsetInCU: 0x333316, offset: 0x333316, size: 0x8, addend: 0x0, symName: __ZN7testing8internal15TestFactoryImplI36MathMixMatFun_simplexTransform1_TestED1Ev, symObjAddr: 0x3C00, symBinAddr: 0x100004678, symSize: 0x4 }
  - { offsetInCU: 0x333342, offset: 0x333342, size: 0x8, addend: 0x0, symName: __ZN7testing8internal15TestFactoryImplI36MathMixMatFun_simplexTransform1_TestED0Ev, symObjAddr: 0x3C04, symBinAddr: 0x10000467C, symSize: 0x4 }
  - { offsetInCU: 0x3333A2, offset: 0x3333A2, size: 0x8, addend: 0x0, symName: __ZN7testing8internal15TestFactoryImplI36MathMixMatFun_simplexTransform1_TestE10CreateTestEv, symObjAddr: 0x3C08, symBinAddr: 0x100004680, symSize: 0x4C }
  - { offsetInCU: 0x333440, offset: 0x333440, size: 0x8, addend: 0x0, symName: __ZN5boost16exception_detail10clone_baseD1Ev, symObjAddr: 0x3E18, symBinAddr: 0x100062908, symSize: 0x4 }
  - { offsetInCU: 0x333469, offset: 0x333469, size: 0x8, addend: 0x0, symName: __ZN5boost16exception_detail10clone_baseD0Ev, symObjAddr: 0x3E1C, symBinAddr: 0x10006290C, symSize: 0x4 }
  - { offsetInCU: 0x33377A, offset: 0x33377A, size: 0x8, addend: 0x0, symName: __ZN5boost10wrapexceptISt14overflow_errorEC1ERKS1_, symObjAddr: 0x4360, symBinAddr: 0x100004DD0, symSize: 0x5C }
  - { offsetInCU: 0x3338F6, offset: 0x3338F6, size: 0x8, addend: 0x0, symName: __ZN5boost10wrapexceptISt14overflow_errorED1Ev, symObjAddr: 0x43BC, symBinAddr: 0x100004E2C, symSize: 0x58 }
  - { offsetInCU: 0x333ABC, offset: 0x333ABC, size: 0x8, addend: 0x0, symName: __ZNK5boost10wrapexceptISt14overflow_errorE5cloneEv, symObjAddr: 0x4414, symBinAddr: 0x100004E84, symSize: 0x100 }
  - { offsetInCU: 0x333C7B, offset: 0x333C7B, size: 0x8, addend: 0x0, symName: __ZNK5boost10wrapexceptISt14overflow_errorE7rethrowEv, symObjAddr: 0x4514, symBinAddr: 0x100004F84, symSize: 0x50 }
  - { offsetInCU: 0x333CB6, offset: 0x333CB6, size: 0x8, addend: 0x0, symName: __ZN5boost10wrapexceptISt14overflow_errorEC1ERKS2_, symObjAddr: 0x4714, symBinAddr: 0x100005184, symSize: 0xC0 }
  - { offsetInCU: 0x333DF3, offset: 0x333DF3, size: 0x8, addend: 0x0, symName: __ZN5boost10wrapexceptISt14overflow_errorED0Ev, symObjAddr: 0x4564, symBinAddr: 0x100004FD4, symSize: 0x58 }
  - { offsetInCU: 0x333EAE, offset: 0x333EAE, size: 0x8, addend: 0x0, symName: __ZThn8_N5boost10wrapexceptISt14overflow_errorED1Ev, symObjAddr: 0x45BC, symBinAddr: 0x10000502C, symSize: 0x50 }
  - { offsetInCU: 0x333F8A, offset: 0x333F8A, size: 0x8, addend: 0x0, symName: __ZThn8_N5boost10wrapexceptISt14overflow_errorED0Ev, symObjAddr: 0x460C, symBinAddr: 0x10000507C, symSize: 0x5C }
  - { offsetInCU: 0x334050, offset: 0x334050, size: 0x8, addend: 0x0, symName: __ZThn24_N5boost10wrapexceptISt14overflow_errorED1Ev, symObjAddr: 0x4668, symBinAddr: 0x1000050D8, symSize: 0x50 }
  - { offsetInCU: 0x334110, offset: 0x334110, size: 0x8, addend: 0x0, symName: __ZThn24_N5boost10wrapexceptISt14overflow_errorED0Ev, symObjAddr: 0x46B8, symBinAddr: 0x100005128, symSize: 0x5C }
  - { offsetInCU: 0x3342E4, offset: 0x3342E4, size: 0x8, addend: 0x0, symName: __ZN5boost4math6detail19erf_inv_initializerIdNS0_8policies6policyINS3_10pole_errorILNS3_17error_policy_typeE1EEENS3_14overflow_errorILS6_1EEENS3_13promote_floatILb0EEENS3_14promote_doubleILb0EEENS3_14default_policyESE_SE_SE_SE_SE_SE_SE_SE_EEE4init17is_value_non_zeroEd, symObjAddr: 0x5468, symBinAddr: 0x100005ED8, symSize: 0xC }
  - { offsetInCU: 0x334426, offset: 0x334426, size: 0x8, addend: 0x0, symName: __ZN5boost10wrapexceptINS_4math16evaluation_errorEEC1ERKS2_, symObjAddr: 0x6C2C, symBinAddr: 0x10000769C, symSize: 0x5C }
  - { offsetInCU: 0x3344DA, offset: 0x3344DA, size: 0x8, addend: 0x0, symName: __ZN5boost4math16evaluation_errorD1Ev, symObjAddr: 0x6C28, symBinAddr: 0x100007698, symSize: 0x4 }
  - { offsetInCU: 0x3344FC, offset: 0x3344FC, size: 0x8, addend: 0x0, symName: __ZN5boost4math16evaluation_errorD1Ev, symObjAddr: 0x6C28, symBinAddr: 0x100007698, symSize: 0x4 }
  - { offsetInCU: 0x33457E, offset: 0x33457E, size: 0x8, addend: 0x0, symName: __ZN5boost10wrapexceptINS_4math16evaluation_errorEED1Ev, symObjAddr: 0x6C88, symBinAddr: 0x1000076F8, symSize: 0x58 }
  - { offsetInCU: 0x3346C7, offset: 0x3346C7, size: 0x8, addend: 0x0, symName: __ZNK5boost10wrapexceptINS_4math16evaluation_errorEE5cloneEv, symObjAddr: 0x6CE0, symBinAddr: 0x100007750, symSize: 0x100 }
  - { offsetInCU: 0x3348A2, offset: 0x3348A2, size: 0x8, addend: 0x0, symName: __ZNK5boost10wrapexceptINS_4math16evaluation_errorEE7rethrowEv, symObjAddr: 0x6DE0, symBinAddr: 0x100007850, symSize: 0x50 }
  - { offsetInCU: 0x3348DD, offset: 0x3348DD, size: 0x8, addend: 0x0, symName: __ZN5boost10wrapexceptINS_4math16evaluation_errorEEC1ERKS3_, symObjAddr: 0x6FF4, symBinAddr: 0x100007A64, symSize: 0xC0 }
  - { offsetInCU: 0x334A36, offset: 0x334A36, size: 0x8, addend: 0x0, symName: __ZN5boost10wrapexceptINS_4math16evaluation_errorEED0Ev, symObjAddr: 0x6E30, symBinAddr: 0x1000078A0, symSize: 0x58 }
  - { offsetInCU: 0x334B0D, offset: 0x334B0D, size: 0x8, addend: 0x0, symName: __ZThn8_N5boost10wrapexceptINS_4math16evaluation_errorEED1Ev, symObjAddr: 0x6E88, symBinAddr: 0x1000078F8, symSize: 0x50 }
  - { offsetInCU: 0x334C07, offset: 0x334C07, size: 0x8, addend: 0x0, symName: __ZThn8_N5boost10wrapexceptINS_4math16evaluation_errorEED0Ev, symObjAddr: 0x6ED8, symBinAddr: 0x100007948, symSize: 0x5C }
  - { offsetInCU: 0x334CE9, offset: 0x334CE9, size: 0x8, addend: 0x0, symName: __ZThn24_N5boost10wrapexceptINS_4math16evaluation_errorEED1Ev, symObjAddr: 0x6F34, symBinAddr: 0x1000079A4, symSize: 0x50 }
  - { offsetInCU: 0x334DC5, offset: 0x334DC5, size: 0x8, addend: 0x0, symName: __ZThn24_N5boost10wrapexceptINS_4math16evaluation_errorEED0Ev, symObjAddr: 0x6F84, symBinAddr: 0x1000079F4, symSize: 0x5C }
  - { offsetInCU: 0x334EA7, offset: 0x334EA7, size: 0x8, addend: 0x0, symName: __ZN5boost4math16evaluation_errorD0Ev, symObjAddr: 0x6FE0, symBinAddr: 0x100007A50, symSize: 0x14 }
  - { offsetInCU: 0x334F5A, offset: 0x334F5A, size: 0x8, addend: 0x0, symName: __ZN5Eigen8internal28conditional_aligned_new_autoIdLb1EEEPT_m.cold.1, symObjAddr: 0x32044, symBinAddr: 0x100062AF4, symSize: 0x24 }
  - { offsetInCU: 0x334FA5, offset: 0x334FA5, size: 0x8, addend: 0x0, symName: __ZN5boost4math6detail19erf_inv_initializerIeNS0_8policies6policyINS3_13promote_floatILb0EEENS3_14promote_doubleILb0EEENS3_14default_policyES9_S9_S9_S9_S9_S9_S9_S9_S9_S9_EEE4init17is_value_non_zeroEe, symObjAddr: 0x7D1C, symBinAddr: 0x10000878C, symSize: 0xC }
  - { offsetInCU: 0x335013, offset: 0x335013, size: 0x8, addend: 0x0, symName: __ZN5boost6random23mersenne_twister_engineIjLm32ELm624ELm397ELm31ELj2567483615ELm11ELj4294967295ELm7ELj2636928640ELm15ELj4022730752ELm18ELj1812433253EE5twistEv, symObjAddr: 0x8868, symBinAddr: 0x1000092D8, symSize: 0xF8 }
  - { offsetInCU: 0x33564A, offset: 0x33564A, size: 0x8, addend: 0x0, symName: __ZN5Eigen12SparseMatrixIdLi1EiE6resizeEll, symObjAddr: 0x9294, symBinAddr: 0x100009D04, symSize: 0x98 }
  - { offsetInCU: 0x3356D5, offset: 0x3356D5, size: 0x8, addend: 0x0, symName: __ZN5Eigen12SparseMatrixIdLi1EiE19reserveInnerVectorsINS_6MatrixIiLin1ELi1ELi0ELin1ELi1EEEEEvRKT_, symObjAddr: 0x9398, symBinAddr: 0x100009E08, symSize: 0x31C }
  - { offsetInCU: 0x335BBD, offset: 0x335BBD, size: 0x8, addend: 0x0, symName: __ZN5Eigen12SparseMatrixIdLi1EiE18collapseDuplicatesINS_8internal13scalar_sum_opIddEEEEvT_, symObjAddr: 0x8D00, symBinAddr: 0x100009770, symSize: 0x198 }
  - { offsetInCU: 0x33609A, offset: 0x33609A, size: 0x8, addend: 0x0, symName: __ZN5Eigen12SparseMatrixIdLi0EiEaSINS0_IdLi1EiEEEERS1_RKNS_16SparseMatrixBaseIT_EE, symObjAddr: 0x8E98, symBinAddr: 0x100009908, symSize: 0x3FC }
  - { offsetInCU: 0x336BB5, offset: 0x336BB5, size: 0x8, addend: 0x0, symName: __ZN5Eigen8internal17CompressedStorageIdiE6resizeEld, symObjAddr: 0x9794, symBinAddr: 0x10000A204, symSize: 0x11C }
  - { offsetInCU: 0x336EBC, offset: 0x336EBC, size: 0x8, addend: 0x0, symName: __ZN5Eigen12SparseMatrixIdLi1EiE18collapseDuplicatesINS_8internal13scalar_sum_opIddEEEEvT_.cold.1, symObjAddr: 0x32068, symBinAddr: 0x100062B18, symSize: 0x28 }
  - { offsetInCU: 0x336ED4, offset: 0x336ED4, size: 0x8, addend: 0x0, symName: __ZN5Eigen12SparseMatrixIdLi1EiE18collapseDuplicatesINS_8internal13scalar_sum_opIddEEEEvT_.cold.2, symObjAddr: 0x32090, symBinAddr: 0x100062B40, symSize: 0x24 }
  - { offsetInCU: 0x337459, offset: 0x337459, size: 0x8, addend: 0x0, symName: __ZN5Eigen8internal28conditional_aligned_new_autoIiLb1EEEPT_m.cold.1, symObjAddr: 0x320B4, symBinAddr: 0x100062B64, symSize: 0x24 }
  - { offsetInCU: 0x3375FB, offset: 0x3375FB, size: 0x8, addend: 0x0, symName: __ZN5Eigen8internal17CompressedStorageIdiE7reserveEl, symObjAddr: 0x96B4, symBinAddr: 0x10000A124, symSize: 0xE0 }
  - { offsetInCU: 0x33787D, offset: 0x33787D, size: 0x8, addend: 0x0, symName: __ZN5Eigen12SparseMatrixIdLi1EiE19reserveInnerVectorsINS_6MatrixIiLin1ELi1ELi0ELin1ELi1EEEEEvRKT_.cold.3, symObjAddr: 0x32120, symBinAddr: 0x100062BD0, symSize: 0x24 }
  - { offsetInCU: 0x3378AB, offset: 0x3378AB, size: 0x8, addend: 0x0, symName: __ZN5Eigen12SparseMatrixIdLi1EiE19reserveInnerVectorsINS_6MatrixIiLin1ELi1ELi0ELin1ELi1EEEEEvRKT_.cold.1, symObjAddr: 0x320D8, symBinAddr: 0x100062B88, symSize: 0x24 }
  - { offsetInCU: 0x3378D9, offset: 0x3378D9, size: 0x8, addend: 0x0, symName: __ZN5Eigen12SparseMatrixIdLi1EiE19reserveInnerVectorsINS_6MatrixIiLin1ELi1ELi0ELin1ELi1EEEEEvRKT_.cold.2, symObjAddr: 0x320FC, symBinAddr: 0x100062BAC, symSize: 0x24 }
  - { offsetInCU: 0x337EE0, offset: 0x337EE0, size: 0x8, addend: 0x0, symName: __ZNKSt3__16vectorIN5Eigen6MatrixIdLin1ELin1ELi0ELin1ELin1EEENS_9allocatorIS3_EEE20__throw_length_errorB7v160006Ev, symObjAddr: 0x9AD0, symBinAddr: 0x10000A540, symSize: 0x14 }
  - { offsetInCU: 0x337F09, offset: 0x337F09, size: 0x8, addend: 0x0, symName: __ZN4stan4test8internal11expect_ad_vIZN26simplex_row_constrain_test24expect_simplex_transformIN5Eigen6MatrixIdLin1ELin1ELi0ELin1ELin1EEEEEvRKT_EUlSA_E_S7_EEvRKNS0_13ad_tolerancesESA_RKT0_, symObjAddr: 0x9AE4, symBinAddr: 0x10000A554, symSize: 0x100 }
  - { offsetInCU: 0x337F14, offset: 0x337F14, size: 0x8, addend: 0x0, symName: __ZNSt3__114__split_bufferIN5Eigen6MatrixIdLin1ELin1ELi0ELin1ELin1EEERNS_9allocatorIS3_EEED1Ev, symObjAddr: 0x9A80, symBinAddr: 0x10000A4F0, symSize: 0x50 }
  - { offsetInCU: 0x338364, offset: 0x338364, size: 0x8, addend: 0x0, symName: __ZZN4stan4test8internal11expect_ad_vIZN26simplex_row_constrain_test24expect_simplex_transformIN5Eigen6MatrixIdLin1ELin1ELi0ELin1ELin1EEEEEvRKT_EUlSA_E_S7_EEvRKNS0_13ad_tolerancesESA_RKT0_ENKUlSA_E_clINS6_IdLin1ELi1ELi0ELin1ELi1EEEEEDaSA_, symObjAddr: 0xA0D4, symBinAddr: 0x10000AB44, symSize: 0x150 }
  - { offsetInCU: 0x33931F, offset: 0x33931F, size: 0x8, addend: 0x0, symName: __ZN5Eigen15PlainObjectBaseINS_6MatrixIdLin1ELi1ELi0ELin1ELi1EEEEC2INS_3MapIKS2_Li0ENS_6StrideILi0ELi0EEEEEEERKNS_9DenseBaseIT_EE, symObjAddr: 0x19F3C, symBinAddr: 0x10001A9AC, symSize: 0x164 }
  - { offsetInCU: 0x339B3A, offset: 0x339B3A, size: 0x8, addend: 0x0, symName: __ZN4stan4math12deserializerIdE4readIdLin1ELin1EEEN5Eigen6MatrixIdXT0_EXT1_EXorLNS4_14StorageOptionsE0EquaaeqT0_Li1EneT1_Li1ELS6_1EquaaeqT1_Li1EneT0_Li1ELS6_0ELS6_0EEXT0_EXT1_EEERKNS5_IT_XT0_EXT1_EXorLS6_0EquaaeqT0_Li1EneT1_Li1ELS6_1EquaaeqT1_Li1EneT0_Li1ELS6_0ELS6_0EEXT0_EXT1_EEE, symObjAddr: 0xB024, symBinAddr: 0x10000BA94, symSize: 0x124 }
  - { offsetInCU: 0x339E87, offset: 0x339E87, size: 0x8, addend: 0x0, symName: __ZN4stan4math10serializerIdE5writeIdLPv0EEEvRKT_, symObjAddr: 0xB3B8, symBinAddr: 0x10000BE28, symSize: 0xF8 }
  - { offsetInCU: 0x33A34E, offset: 0x33A34E, size: 0x8, addend: 0x0, symName: __ZN7testing15AssertionResultD1Ev, symObjAddr: 0xB4B0, symBinAddr: 0x10000BF20, symSize: 0x44 }
  - { offsetInCU: 0x33A7DC, offset: 0x33A7DC, size: 0x8, addend: 0x0, symName: __ZN7testing15AssertionResultD1Ev, symObjAddr: 0xB4B0, symBinAddr: 0x10000BF20, symSize: 0x44 }
  - { offsetInCU: 0x33B993, offset: 0x33B993, size: 0x8, addend: 0x0, symName: __ZN5Eigen15PlainObjectBaseINS_5ArrayIdLin1ELi1ELi0ELin1ELi1EEEEC2INS_14CwiseNullaryOpINS_8internal18scalar_constant_opIdEES2_EEEERKNS_9DenseBaseIT_EE, symObjAddr: 0xAF00, symBinAddr: 0x10000B970, symSize: 0x124 }
  - { offsetInCU: 0x33BE72, offset: 0x33BE72, size: 0x8, addend: 0x0, symName: __ZN4stan4math21simplex_row_constrainIN5Eigen6MatrixIdLin1ELin1ELi0ELin1ELin1EEELPv0ELS5_0EEEDaRKT_.cold.1, symObjAddr: 0x32144, symBinAddr: 0x100062BF4, symSize: 0x24 }
  - { offsetInCU: 0x33C0D8, offset: 0x33C0D8, size: 0x8, addend: 0x0, symName: __ZN5Eigen6MatrixIdLin1ELin1ELi0ELin1ELin1EEC2IllEERKT_RKT0_, symObjAddr: 0xB2C4, symBinAddr: 0x10000BD34, symSize: 0xF4 }
  - { offsetInCU: 0x33D4EF, offset: 0x33D4EF, size: 0x8, addend: 0x0, symName: __ZN4stan4math10vari_valueIdvEC2IdLPv0EEET_b, symObjAddr: 0xDFCC, symBinAddr: 0x10000EA3C, symSize: 0x1C4 }
  - { offsetInCU: 0x33DC4A, offset: 0x33DC4A, size: 0x8, addend: 0x0, symName: __ZN4stan4math11stack_alloc18move_to_next_blockEm, symObjAddr: 0xDCE4, symBinAddr: 0x10000E754, symSize: 0xF4 }
  - { offsetInCU: 0x33DD79, offset: 0x33DD79, size: 0x8, addend: 0x0, symName: __ZZN4stan4test8internal11expect_ad_vIZN26simplex_row_constrain_test24expect_simplex_transformIN5Eigen6MatrixIdLin1ELin1ELi0ELin1ELin1EEEEEvRKT_EUlSA_E_S7_EEvRKNS0_13ad_tolerancesESA_RKT0_ENKUlSA_E_clINS6_INS_4math9var_valueIdvEELin1ELi1ELi0ELin1ELi1EEEEEDaSA_, symObjAddr: 0xE1B0, symBinAddr: 0x10000EC20, symSize: 0x170 }
  - { offsetInCU: 0x33F11C, offset: 0x33F11C, size: 0x8, addend: 0x0, symName: __ZZN4stan4test8internal11expect_ad_vIZN26simplex_row_constrain_test24expect_simplex_transformIN5Eigen6MatrixIdLin1ELin1ELi0ELin1ELin1EEEEEvRKT_EUlSA_E_S7_EEvRKNS0_13ad_tolerancesESA_RKT0_ENKUlSA_E_clINS6_INS_4math4fvarIdEELin1ELi1ELi0ELin1ELi1EEEEEDaSA_, symObjAddr: 0xF944, symBinAddr: 0x1000103B4, symSize: 0x120 }
  - { offsetInCU: 0x3404FD, offset: 0x3404FD, size: 0x8, addend: 0x0, symName: __ZZN4stan4test8internal11expect_ad_vIZN26simplex_row_constrain_test24expect_simplex_transformIN5Eigen6MatrixIdLin1ELin1ELi0ELin1ELin1EEEEEvRKT_EUlSA_E_S7_EEvRKNS0_13ad_tolerancesESA_RKT0_ENKUlSA_E_clINS6_INS_4math4fvarINSL_IdEEEELin1ELi1ELi0ELin1ELi1EEEEEDaSA_, symObjAddr: 0x106AC, symBinAddr: 0x10001111C, symSize: 0x120 }
  - { offsetInCU: 0x341899, offset: 0x341899, size: 0x8, addend: 0x0, symName: __ZN4stan4math4fvarINS0_9var_valueIdvEEEC2IdLPv0ELS6_0EEERKT_, symObjAddr: 0x117EC, symBinAddr: 0x10001225C, symSize: 0xB4 }
  - { offsetInCU: 0x341A77, offset: 0x341A77, size: 0x8, addend: 0x0, symName: __ZZN4stan4test8internal11expect_ad_vIZN26simplex_row_constrain_test24expect_simplex_transformIN5Eigen6MatrixIdLin1ELin1ELi0ELin1ELin1EEEEEvRKT_EUlSA_E_S7_EEvRKNS0_13ad_tolerancesESA_RKT0_ENKUlSA_E_clINS6_INS_4math4fvarINSK_9var_valueIdvEEEELin1ELi1ELi0ELin1ELi1EEEEEDaSA_, symObjAddr: 0x118A0, symBinAddr: 0x100012310, symSize: 0x130 }
  - { offsetInCU: 0x342EB7, offset: 0x342EB7, size: 0x8, addend: 0x0, symName: __ZN4stan4math4fvarINS0_9var_valueIdvEEEC2IiLPv0ELS6_0EEERKT_, symObjAddr: 0x11F54, symBinAddr: 0x1000129C4, symSize: 0xB4 }
  - { offsetInCU: 0x34309A, offset: 0x34309A, size: 0x8, addend: 0x0, symName: __ZZN4stan4test8internal11expect_ad_vIZN26simplex_row_constrain_test24expect_simplex_transformIN5Eigen6MatrixIdLin1ELin1ELi0ELin1ELin1EEEEEvRKT_EUlSA_E_S7_EEvRKNS0_13ad_tolerancesESA_RKT0_ENKUlSA_E_clINS6_INS_4math4fvarINSL_INSK_9var_valueIdvEEEEEELin1ELi1ELi0ELin1ELi1EEEEEDaSA_, symObjAddr: 0x13058, symBinAddr: 0x100013AC8, symSize: 0x19C }
  - { offsetInCU: 0x344273, offset: 0x344273, size: 0x8, addend: 0x0, symName: __ZN5Eigen8IOFormatC2EiiRKNSt3__112basic_stringIcNS1_11char_traitsIcEENS1_9allocatorIcEEEES9_S9_S9_S9_S9_c, symObjAddr: 0xD98C, symBinAddr: 0x10000E3FC, symSize: 0x228 }
  - { offsetInCU: 0x344BD4, offset: 0x344BD4, size: 0x8, addend: 0x0, symName: __ZN5Eigen8IOFormatD2Ev, symObjAddr: 0xDBB4, symBinAddr: 0x10000E624, symSize: 0xC4 }
  - { offsetInCU: 0x345454, offset: 0x345454, size: 0x8, addend: 0x0, symName: __ZN5Eigen8internal28conditional_aligned_new_autoIN4stan4math9var_valueIdvEELb1EEEPT_m.cold.1, symObjAddr: 0x32168, symBinAddr: 0x100062C18, symSize: 0x24 }
  - { offsetInCU: 0x345513, offset: 0x345513, size: 0x8, addend: 0x0, symName: __ZNSt3__16vectorIPcNS_9allocatorIS1_EEE9push_backB7v160006EOS1_, symObjAddr: 0xDDD8, symBinAddr: 0x10000E848, symSize: 0xFC }
  - { offsetInCU: 0x3459BD, offset: 0x3459BD, size: 0x8, addend: 0x0, symName: __ZNSt3__16vectorImNS_9allocatorImEEE9push_backB7v160006ERKm, symObjAddr: 0xDED4, symBinAddr: 0x10000E944, symSize: 0xF8 }
  - { offsetInCU: 0x3459C8, offset: 0x3459C8, size: 0x8, addend: 0x0, symName: __ZNSt3__16vectorImNS_9allocatorImEEE9push_backB7v160006ERKm, symObjAddr: 0xDED4, symBinAddr: 0x10000E944, symSize: 0xF8 }
  - { offsetInCU: 0x345E65, offset: 0x345E65, size: 0x8, addend: 0x0, symName: __ZN4stan4math10vari_valueIdvEC2IdLPv0EEET_b, symObjAddr: 0xDFCC, symBinAddr: 0x10000EA3C, symSize: 0x1C4 }
  - { offsetInCU: 0x346784, offset: 0x346784, size: 0x8, addend: 0x0, symName: __ZNKSt3__16vectorIPN4stan4math9vari_baseENS_9allocatorIS4_EEE20__throw_length_errorB7v160006Ev, symObjAddr: 0xE19C, symBinAddr: 0x10000EC0C, symSize: 0x14 }
  - { offsetInCU: 0x3467AD, offset: 0x3467AD, size: 0x8, addend: 0x0, symName: __ZZN4stan4test8internal11expect_ad_vIZN26simplex_row_constrain_test24expect_simplex_transformIN5Eigen6MatrixIdLin1ELin1ELi0ELin1ELin1EEEEEvRKT_EUlSA_E_S7_EEvRKNS0_13ad_tolerancesESA_RKT0_ENKUlSA_E_clINS6_INS_4math9var_valueIdvEELin1ELi1ELi0ELin1ELi1EEEEEDaSA_, symObjAddr: 0xE1B0, symBinAddr: 0x10000EC20, symSize: 0x170 }
  - { offsetInCU: 0x3467B8, offset: 0x3467B8, size: 0x8, addend: 0x0, symName: __ZN4stan4math10vari_valueIdvE5chainEv, symObjAddr: 0xE190, symBinAddr: 0x10000EC00, symSize: 0x4 }
  - { offsetInCU: 0x3467DD, offset: 0x3467DD, size: 0x8, addend: 0x0, symName: __ZN4stan4math10vari_valueIdvE16set_zero_adjointEv, symObjAddr: 0xE194, symBinAddr: 0x10000EC04, symSize: 0x8 }
  - { offsetInCU: 0x346BB9, offset: 0x346BB9, size: 0x8, addend: 0x0, symName: __ZN4stan4math12deserializerINS0_9var_valueIdvEEE4readIdLin1ELin1EEEN5Eigen6MatrixIS3_XT0_EXT1_EXorLNS6_14StorageOptionsE0EquaaeqT0_Li1EneT1_Li1ELS8_1EquaaeqT1_Li1EneT0_Li1ELS8_0ELS8_0EEXT0_EXT1_EEERKNS7_IT_XT0_EXT1_EXorLS8_0EquaaeqT0_Li1EneT1_Li1ELS8_1EquaaeqT1_Li1EneT0_Li1ELS8_0ELS8_0EEXT0_EXT1_EEE, symObjAddr: 0xE320, symBinAddr: 0x10000ED90, symSize: 0x120 }
  - { offsetInCU: 0x346FF1, offset: 0x346FF1, size: 0x8, addend: 0x0, symName: __ZN4stan4math10vari_valueIdvEC2IiLPv0EEET_b, symObjAddr: 0xE870, symBinAddr: 0x10000F2E0, symSize: 0x1C8 }
  - { offsetInCU: 0x347941, offset: 0x347941, size: 0x8, addend: 0x0, symName: __ZN5Eigen6MatrixIN4stan4math9var_valueIdvEELin1ELin1ELi0ELin1ELin1EEC2IllEERKT_RKT0_, symObjAddr: 0xE540, symBinAddr: 0x10000EFB0, symSize: 0xF4 }
  - { offsetInCU: 0x348074, offset: 0x348074, size: 0x8, addend: 0x0, symName: __ZNKSt3__16vectorIN4stan4math9var_valueIdvEENS_9allocatorIS4_EEE20__throw_length_errorB7v160006Ev, symObjAddr: 0xE52C, symBinAddr: 0x10000EF9C, symSize: 0x14 }
  - { offsetInCU: 0x34809D, offset: 0x34809D, size: 0x8, addend: 0x0, symName: __ZN5Eigen6MatrixIN4stan4math9var_valueIdvEELin1ELin1ELi0ELin1ELin1EEC2IllEERKT_RKT0_, symObjAddr: 0xE540, symBinAddr: 0x10000EFB0, symSize: 0xF4 }
  - { offsetInCU: 0x3484B1, offset: 0x3484B1, size: 0x8, addend: 0x0, symName: __ZN4stan4math10serializerINS0_9var_valueIdvEEE5writeIS3_LPv0EEEvRKT_, symObjAddr: 0xE778, symBinAddr: 0x10000F1E8, symSize: 0xF8 }
  - { offsetInCU: 0x34897F, offset: 0x34897F, size: 0x8, addend: 0x0, symName: __ZN4stan4math10vari_valueIdvEC2IiLPv0EEET_b, symObjAddr: 0xE870, symBinAddr: 0x10000F2E0, symSize: 0x1C8 }
  - { offsetInCU: 0x34A14B, offset: 0x34A14B, size: 0x8, addend: 0x0, symName: __ZN4stan4math12arena_matrixIN5Eigen6MatrixINS0_9var_valueIdvEELin1ELin1ELi0ELin1ELin1EEEEC2IS6_LPv0EEERKT_, symObjAddr: 0xF2E4, symBinAddr: 0x10000FD54, symSize: 0xE8 }
  - { offsetInCU: 0x34A6C6, offset: 0x34A6C6, size: 0x8, addend: 0x0, symName: __ZN5Eigen8internal17resize_if_allowedINS_6MatrixIN4stan4math9var_valueIdvEELin1ELin1ELi0ELin1ELin1EEENS_3MapINS2_IdLin1ELin1ELi0ELin1ELin1EEELi0ENS_6StrideILi0ELi0EEEEES6_dEEvRT_RKT0_RKNS0_9assign_opIT1_T2_EE, symObjAddr: 0xF3CC, symBinAddr: 0x10000FE3C, symSize: 0xD0 }
  - { offsetInCU: 0x34A6E1, offset: 0x34A6E1, size: 0x8, addend: 0x0, symName: __ZN4stan4math12arena_matrixIN5Eigen6MatrixINS0_9var_valueIdvEELin1ELin1ELi0ELin1ELin1EEEEaSINS1_INS3_IdLin1ELin1ELi0ELin1ELin1EEEEEEERS7_RKT_, symObjAddr: 0xF49C, symBinAddr: 0x10000FF0C, symSize: 0x118 }
  - { offsetInCU: 0x34ABF9, offset: 0x34ABF9, size: 0x8, addend: 0x0, symName: __ZN4stan4math8internal26reverse_pass_callback_variIZNS0_21simplex_row_constrainIN5Eigen6MatrixINS0_9var_valueIdvEELin1ELin1ELi0ELin1ELin1EEELPv0EEEDaRKT_EUlvE_EC2EOSE_, symObjAddr: 0xF5B4, symBinAddr: 0x100010024, symSize: 0x15C }
  - { offsetInCU: 0x34B552, offset: 0x34B552, size: 0x8, addend: 0x0, symName: __ZN4stan4math8internal26reverse_pass_callback_variIZNS0_21simplex_row_constrainIN5Eigen6MatrixINS0_9var_valueIdvEELin1ELin1ELi0ELin1ELin1EEELPv0EEEDaRKT_EUlvE_E5chainEv, symObjAddr: 0xF710, symBinAddr: 0x100010180, symSize: 0xDC }
  - { offsetInCU: 0x34B55D, offset: 0x34B55D, size: 0x8, addend: 0x0, symName: __ZN4stan4math21simplex_row_constrainIN5Eigen6MatrixINS0_9var_valueIdvEELin1ELin1ELi0ELin1ELin1EEELPv0EEEDaRKT_.cold.1, symObjAddr: 0x3218C, symBinAddr: 0x100062C3C, symSize: 0x24 }
  - { offsetInCU: 0x34B5DF, offset: 0x34B5DF, size: 0x8, addend: 0x0, symName: __ZN4stan4math21simplex_row_constrainIN5Eigen6MatrixINS0_9var_valueIdvEELin1ELin1ELi0ELin1ELin1EEELPv0EEEDaRKT_.cold.2, symObjAddr: 0x321B0, symBinAddr: 0x100062C60, symSize: 0x24 }
  - { offsetInCU: 0x34B661, offset: 0x34B661, size: 0x8, addend: 0x0, symName: __ZN5Eigen6MatrixIN4stan4math9var_valueIdvEELin1ELin1ELi0ELin1ELin1EEC1INS2_12arena_matrixINS0_IdLin1ELin1ELi0ELin1ELin1EEEEEEERKT_, symObjAddr: 0xF208, symBinAddr: 0x10000FC78, symSize: 0xDC }
  - { offsetInCU: 0x34BAE4, offset: 0x34BAE4, size: 0x8, addend: 0x0, symName: __ZN4stan4math21simplex_row_constrainIN5Eigen6MatrixINS0_9var_valueIdvEELin1ELin1ELi0ELin1ELin1EEELPv0EEEDaRKT_.cold.3, symObjAddr: 0x321D4, symBinAddr: 0x100062C84, symSize: 0x24 }
  - { offsetInCU: 0x34BF68, offset: 0x34BF68, size: 0x8, addend: 0x0, symName: __ZN4stan4math12arena_matrixIN5Eigen6MatrixINS0_9var_valueIdvEELin1ELin1ELi0ELin1ELin1EEEEC2IS6_LPv0EEERKT_.cold.1, symObjAddr: 0x321F8, symBinAddr: 0x100062CA8, symSize: 0x24 }
  - { offsetInCU: 0x34BFC0, offset: 0x34BFC0, size: 0x8, addend: 0x0, symName: __ZN4stan4math12arena_matrixIN5Eigen6MatrixINS0_9var_valueIdvEELin1ELin1ELi0ELin1ELin1EEEEC2IS6_LPv0EEERKT_.cold.2, symObjAddr: 0x3221C, symBinAddr: 0x100062CCC, symSize: 0x24 }
  - { offsetInCU: 0x34C042, offset: 0x34C042, size: 0x8, addend: 0x0, symName: __ZN5Eigen8internal17resize_if_allowedINS_6MatrixIN4stan4math9var_valueIdvEELin1ELin1ELi0ELin1ELin1EEENS_3MapINS2_IdLin1ELin1ELi0ELin1ELin1EEELi0ENS_6StrideILi0ELi0EEEEES6_dEEvRT_RKT0_RKNS0_9assign_opIT1_T2_EE.cold.1, symObjAddr: 0x32240, symBinAddr: 0x100062CF0, symSize: 0x24 }
  - { offsetInCU: 0x34C05A, offset: 0x34C05A, size: 0x8, addend: 0x0, symName: __ZN5Eigen8internal17resize_if_allowedINS_6MatrixIN4stan4math9var_valueIdvEELin1ELin1ELi0ELin1ELin1EEENS_3MapINS2_IdLin1ELin1ELi0ELin1ELin1EEELi0ENS_6StrideILi0ELi0EEEEES6_dEEvRT_RKT0_RKNS0_9assign_opIT1_T2_EE.cold.2, symObjAddr: 0x32264, symBinAddr: 0x100062D14, symSize: 0x24 }
  - { offsetInCU: 0x34C1EA, offset: 0x34C1EA, size: 0x8, addend: 0x0, symName: __ZN4stan4math12arena_matrixIN5Eigen6MatrixINS0_9var_valueIdvEELin1ELin1ELi0ELin1ELin1EEEEaSINS1_INS3_IdLin1ELin1ELi0ELin1ELin1EEEEEEERS7_RKT_.cold.1, symObjAddr: 0x32288, symBinAddr: 0x100062D38, symSize: 0x24 }
  - { offsetInCU: 0x34C257, offset: 0x34C257, size: 0x8, addend: 0x0, symName: __ZN4stan4math12arena_matrixIN5Eigen6MatrixINS0_9var_valueIdvEELin1ELin1ELi0ELin1ELin1EEEEaSINS1_INS3_IdLin1ELin1ELi0ELin1ELin1EEEEEEERS7_RKT_.cold.2, symObjAddr: 0x322AC, symBinAddr: 0x100062D5C, symSize: 0x24 }
  - { offsetInCU: 0x34C397, offset: 0x34C397, size: 0x8, addend: 0x0, symName: __ZN4stan4math8internal26reverse_pass_callback_variIZNS0_21simplex_row_constrainIN5Eigen6MatrixINS0_9var_valueIdvEELin1ELin1ELi0ELin1ELin1EEELPv0EEEDaRKT_EUlvE_EC2EOSE_.cold.1, symObjAddr: 0x322D0, symBinAddr: 0x100062D80, symSize: 0x24 }
  - { offsetInCU: 0x34C444, offset: 0x34C444, size: 0x8, addend: 0x0, symName: __ZN4stan4math8internal26reverse_pass_callback_variIZNS0_21simplex_row_constrainIN5Eigen6MatrixINS0_9var_valueIdvEELin1ELin1ELi0ELin1ELin1EEELPv0EEEDaRKT_EUlvE_EC2EOSE_.cold.2, symObjAddr: 0x322F4, symBinAddr: 0x100062DA4, symSize: 0x24 }
  - { offsetInCU: 0x34C4F1, offset: 0x34C4F1, size: 0x8, addend: 0x0, symName: __ZN4stan4math8internal26reverse_pass_callback_variIZNS0_21simplex_row_constrainIN5Eigen6MatrixINS0_9var_valueIdvEELin1ELin1ELi0ELin1ELin1EEELPv0EEEDaRKT_EUlvE_EC2EOSE_.cold.3, symObjAddr: 0x32318, symBinAddr: 0x100062DC8, symSize: 0x24 }
  - { offsetInCU: 0x34C87B, offset: 0x34C87B, size: 0x8, addend: 0x0, symName: __ZN4stan4math8internal26reverse_pass_callback_variIZNS0_21simplex_row_constrainIN5Eigen6MatrixINS0_9var_valueIdvEELin1ELin1ELi0ELin1ELin1EEELPv0EEEDaRKT_EUlvE_E5chainEv, symObjAddr: 0xF710, symBinAddr: 0x100010180, symSize: 0xDC }
  - { offsetInCU: 0x34C8A2, offset: 0x34C8A2, size: 0x8, addend: 0x0, symName: __ZN4stan4math8internal26reverse_pass_callback_variIZNS0_21simplex_row_constrainIN5Eigen6MatrixINS0_9var_valueIdvEELin1ELin1ELi0ELin1ELin1EEELPv0EEEDaRKT_EUlvE_E5chainEv, symObjAddr: 0xF710, symBinAddr: 0x100010180, symSize: 0xDC }
  - { offsetInCU: 0x34C8D2, offset: 0x34C8D2, size: 0x8, addend: 0x0, symName: __ZN4stan4math8internal26reverse_pass_callback_variIZNS0_21simplex_row_constrainIN5Eigen6MatrixINS0_9var_valueIdvEELin1ELin1ELi0ELin1ELin1EEELPv0EEEDaRKT_EUlvE_E5chainEv, symObjAddr: 0xF710, symBinAddr: 0x100010180, symSize: 0xDC }
  - { offsetInCU: 0x34C8EF, offset: 0x34C8EF, size: 0x8, addend: 0x0, symName: __ZN4stan4math8internal26reverse_pass_callback_variIZNS0_21simplex_row_constrainIN5Eigen6MatrixINS0_9var_valueIdvEELin1ELin1ELi0ELin1ELin1EEELPv0EEEDaRKT_EUlvE_E5chainEv, symObjAddr: 0xF710, symBinAddr: 0x100010180, symSize: 0xDC }
  - { offsetInCU: 0x34CDC2, offset: 0x34CDC2, size: 0x8, addend: 0x0, symName: __ZN4stan4math8internal26reverse_pass_callback_variIZNS0_21simplex_row_constrainIN5Eigen6MatrixINS0_9var_valueIdvEELin1ELin1ELi0ELin1ELin1EEELPv0EEEDaRKT_EUlvE_E16set_zero_adjointEv, symObjAddr: 0xF7EC, symBinAddr: 0x10001025C, symSize: 0x4 }
  - { offsetInCU: 0x34CDE7, offset: 0x34CDE7, size: 0x8, addend: 0x0, symName: __ZN5Eigen8internal17resize_if_allowedINS_6MatrixIN4stan4math9var_valueIdvEELin1ELin1ELi0ELin1ELin1EEENS_3MapIS7_Li0ENS_6StrideILi0ELi0EEEEES6_S6_EEvRT_RKT0_RKNS0_9assign_opIT1_T2_EE.cold.1, symObjAddr: 0x3233C, symBinAddr: 0x100062DEC, symSize: 0x24 }
  - { offsetInCU: 0x34CDFF, offset: 0x34CDFF, size: 0x8, addend: 0x0, symName: __ZN5Eigen8internal17resize_if_allowedINS_6MatrixIN4stan4math9var_valueIdvEELin1ELin1ELi0ELin1ELin1EEENS_3MapIS7_Li0ENS_6StrideILi0ELi0EEEEES6_S6_EEvRT_RKT0_RKNS0_9assign_opIT1_T2_EE.cold.2, symObjAddr: 0x32360, symBinAddr: 0x100062E10, symSize: 0x24 }
  - { offsetInCU: 0x34CE61, offset: 0x34CE61, size: 0x8, addend: 0x0, symName: __ZN5Eigen8internal28conditional_aligned_new_autoIN4stan4math4fvarIdEELb1EEEPT_m.cold.1, symObjAddr: 0x32384, symBinAddr: 0x100062E34, symSize: 0x24 }
  - { offsetInCU: 0x34D231, offset: 0x34D231, size: 0x8, addend: 0x0, symName: __ZN4stan4math12deserializerINS0_4fvarIdEEE4readIdLin1ELin1EEEN5Eigen6MatrixIS3_XT0_EXT1_EXorLNS6_14StorageOptionsE0EquaaeqT0_Li1EneT1_Li1ELS8_1EquaaeqT1_Li1EneT0_Li1ELS8_0ELS8_0EEXT0_EXT1_EEERKNS7_IT_XT0_EXT1_EXorLS8_0EquaaeqT0_Li1EneT1_Li1ELS8_1EquaaeqT1_Li1EneT0_Li1ELS8_0ELS8_0EEXT0_EXT1_EEE, symObjAddr: 0xFA64, symBinAddr: 0x1000104D4, symSize: 0x128 }
  - { offsetInCU: 0x34D87E, offset: 0x34D87E, size: 0x8, addend: 0x0, symName: __ZN5Eigen6MatrixIN4stan4math4fvarIdEELin1ELin1ELi0ELin1ELin1EEC2IllEERKT_RKT0_, symObjAddr: 0xFC8C, symBinAddr: 0x1000106FC, symSize: 0xF4 }
  - { offsetInCU: 0x34DF54, offset: 0x34DF54, size: 0x8, addend: 0x0, symName: __ZNKSt3__16vectorIN4stan4math4fvarIdEENS_9allocatorIS4_EEE20__throw_length_errorB7v160006Ev, symObjAddr: 0xFC78, symBinAddr: 0x1000106E8, symSize: 0x14 }
  - { offsetInCU: 0x34DF7D, offset: 0x34DF7D, size: 0x8, addend: 0x0, symName: __ZN5Eigen6MatrixIN4stan4math4fvarIdEELin1ELin1ELi0ELin1ELin1EEC2IllEERKT_RKT0_, symObjAddr: 0xFC8C, symBinAddr: 0x1000106FC, symSize: 0xF4 }
  - { offsetInCU: 0x34E391, offset: 0x34E391, size: 0x8, addend: 0x0, symName: __ZN4stan4math10serializerINS0_4fvarIdEEE5writeIS3_LPv0EEEvRKT_, symObjAddr: 0xFEC4, symBinAddr: 0x100010934, symSize: 0x114 }
  - { offsetInCU: 0x34E8B3, offset: 0x34E8B3, size: 0x8, addend: 0x0, symName: __ZN4stan4math21simplex_row_constrainIN5Eigen6MatrixINS0_4fvarIdEELin1ELin1ELi0ELin1ELin1EEELPv0ELS7_0EEEDaRKT_, symObjAddr: 0xFFD8, symBinAddr: 0x100010A48, symSize: 0x52C }
  - { offsetInCU: 0x34F886, offset: 0x34F886, size: 0x8, addend: 0x0, symName: __ZN5Eigen15PlainObjectBaseINS_5ArrayIN4stan4math4fvarIdEELin1ELi1ELi0ELin1ELi1EEEEC2INS_14CwiseNullaryOpINS_8internal18scalar_constant_opIS5_EES6_EEEERKNS_9DenseBaseIT_EE, symObjAddr: 0x10504, symBinAddr: 0x100010F74, symSize: 0x124 }
  - { offsetInCU: 0x34FD5C, offset: 0x34FD5C, size: 0x8, addend: 0x0, symName: __ZN4stan4math21simplex_row_constrainIN5Eigen6MatrixINS0_4fvarIdEELin1ELin1ELi0ELin1ELin1EEELPv0ELS7_0EEEDaRKT_.cold.1, symObjAddr: 0x323A8, symBinAddr: 0x100062E58, symSize: 0x24 }
  - { offsetInCU: 0x34FF0A, offset: 0x34FF0A, size: 0x8, addend: 0x0, symName: __ZN5Eigen8internal28conditional_aligned_new_autoIN4stan4math4fvarINS4_IdEEEELb1EEEPT_m.cold.1, symObjAddr: 0x323CC, symBinAddr: 0x100062E7C, symSize: 0x24 }
  - { offsetInCU: 0x3502DA, offset: 0x3502DA, size: 0x8, addend: 0x0, symName: __ZN4stan4math12deserializerINS0_4fvarINS2_IdEEEEE4readIdLin1ELin1EEEN5Eigen6MatrixIS4_XT0_EXT1_EXorLNS7_14StorageOptionsE0EquaaeqT0_Li1EneT1_Li1ELS9_1EquaaeqT1_Li1EneT0_Li1ELS9_0ELS9_0EEXT0_EXT1_EEERKNS8_IT_XT0_EXT1_EXorLS9_0EquaaeqT0_Li1EneT1_Li1ELS9_1EquaaeqT1_Li1EneT0_Li1ELS9_0ELS9_0EEXT0_EXT1_EEE, symObjAddr: 0x107CC, symBinAddr: 0x10001123C, symSize: 0x130 }
  - { offsetInCU: 0x350927, offset: 0x350927, size: 0x8, addend: 0x0, symName: __ZN5Eigen6MatrixIN4stan4math4fvarINS3_IdEEEELin1ELin1ELi0ELin1ELin1EEC2IllEERKT_RKT0_, symObjAddr: 0x109FC, symBinAddr: 0x10001146C, symSize: 0xF4 }
  - { offsetInCU: 0x350FFD, offset: 0x350FFD, size: 0x8, addend: 0x0, symName: __ZNKSt3__16vectorIN4stan4math4fvarINS3_IdEEEENS_9allocatorIS5_EEE20__throw_length_errorB7v160006Ev, symObjAddr: 0x109E8, symBinAddr: 0x100011458, symSize: 0x14 }
  - { offsetInCU: 0x351026, offset: 0x351026, size: 0x8, addend: 0x0, symName: __ZN5Eigen6MatrixIN4stan4math4fvarINS3_IdEEEELin1ELin1ELi0ELin1ELin1EEC2IllEERKT_RKT0_, symObjAddr: 0x109FC, symBinAddr: 0x10001146C, symSize: 0xF4 }
  - { offsetInCU: 0x35143A, offset: 0x35143A, size: 0x8, addend: 0x0, symName: __ZN4stan4math10serializerINS0_4fvarINS2_IdEEEEE5writeIS4_LPv0EEEvRKT_, symObjAddr: 0x10C34, symBinAddr: 0x1000116A4, symSize: 0x114 }
  - { offsetInCU: 0x351942, offset: 0x351942, size: 0x8, addend: 0x0, symName: __ZN4stan4math21simplex_row_constrainIN5Eigen6MatrixINS0_4fvarINS4_IdEEEELin1ELin1ELi0ELin1ELin1EEELPv0ELS8_0EEEDaRKT_, symObjAddr: 0x10D48, symBinAddr: 0x1000117B8, symSize: 0x4B0 }
  - { offsetInCU: 0x35298D, offset: 0x35298D, size: 0x8, addend: 0x0, symName: __ZN5Eigen15PlainObjectBaseINS_5ArrayIN4stan4math4fvarINS4_IdEEEELin1ELi1ELi0ELin1ELi1EEEEC2INS_14CwiseNullaryOpINS_8internal18scalar_constant_opIS6_EES7_EEEERKNS_9DenseBaseIT_EE, symObjAddr: 0x111F8, symBinAddr: 0x100011C68, symSize: 0x130 }
  - { offsetInCU: 0x352E63, offset: 0x352E63, size: 0x8, addend: 0x0, symName: __ZN4stan4math21simplex_row_constrainIN5Eigen6MatrixINS0_4fvarINS4_IdEEEELin1ELin1ELi0ELin1ELin1EEELPv0ELS8_0EEEDaRKT_.cold.1, symObjAddr: 0x323F0, symBinAddr: 0x100062EA0, symSize: 0x24 }
  - { offsetInCU: 0x352FF7, offset: 0x352FF7, size: 0x8, addend: 0x0, symName: __ZN4stan4math4fvarINS0_9var_valueIdvEEEC2Ev, symObjAddr: 0x11744, symBinAddr: 0x1000121B4, symSize: 0xA8 }
  - { offsetInCU: 0x3531BA, offset: 0x3531BA, size: 0x8, addend: 0x0, symName: __ZN5Eigen8internal28conditional_aligned_new_autoIN4stan4math4fvarINS3_9var_valueIdvEEEELb1EEEPT_m.cold.1, symObjAddr: 0x32414, symBinAddr: 0x100062EC4, symSize: 0x24 }
  - { offsetInCU: 0x35358A, offset: 0x35358A, size: 0x8, addend: 0x0, symName: __ZN4stan4math12deserializerINS0_4fvarINS0_9var_valueIdvEEEEE4readIdLin1ELin1EEEN5Eigen6MatrixIS5_XT0_EXT1_EXorLNS8_14StorageOptionsE0EquaaeqT0_Li1EneT1_Li1ELSA_1EquaaeqT1_Li1EneT0_Li1ELSA_0ELSA_0EEXT0_EXT1_EEERKNS9_IT_XT0_EXT1_EXorLSA_0EquaaeqT0_Li1EneT1_Li1ELSA_1EquaaeqT1_Li1EneT0_Li1ELSA_0ELSA_0EEXT0_EXT1_EEE, symObjAddr: 0x119D0, symBinAddr: 0x100012440, symSize: 0x128 }
  - { offsetInCU: 0x353BD7, offset: 0x353BD7, size: 0x8, addend: 0x0, symName: __ZN5Eigen6MatrixIN4stan4math4fvarINS2_9var_valueIdvEEEELin1ELin1ELi0ELin1ELin1EEC2IllEERKT_RKT0_, symObjAddr: 0x11C08, symBinAddr: 0x100012678, symSize: 0xF4 }
  - { offsetInCU: 0x3542AD, offset: 0x3542AD, size: 0x8, addend: 0x0, symName: __ZNKSt3__16vectorIN4stan4math4fvarINS2_9var_valueIdvEEEENS_9allocatorIS6_EEE20__throw_length_errorB7v160006Ev, symObjAddr: 0x11BF4, symBinAddr: 0x100012664, symSize: 0x14 }
  - { offsetInCU: 0x3542D6, offset: 0x3542D6, size: 0x8, addend: 0x0, symName: __ZN5Eigen6MatrixIN4stan4math4fvarINS2_9var_valueIdvEEEELin1ELin1ELi0ELin1ELin1EEC2IllEERKT_RKT0_, symObjAddr: 0x11C08, symBinAddr: 0x100012678, symSize: 0xF4 }
  - { offsetInCU: 0x3546EA, offset: 0x3546EA, size: 0x8, addend: 0x0, symName: __ZN4stan4math10serializerINS0_4fvarINS0_9var_valueIdvEEEEE5writeIS5_LPv0EEEvRKT_, symObjAddr: 0x11E40, symBinAddr: 0x1000128B0, symSize: 0x114 }
  - { offsetInCU: 0x354C0C, offset: 0x354C0C, size: 0x8, addend: 0x0, symName: __ZN4stan4math4fvarINS0_9var_valueIdvEEEC2IiLPv0ELS6_0EEERKT_, symObjAddr: 0x11F54, symBinAddr: 0x1000129C4, symSize: 0xB4 }
  - { offsetInCU: 0x35635B, offset: 0x35635B, size: 0x8, addend: 0x0, symName: __ZN5Eigen15PlainObjectBaseINS_5ArrayIN4stan4math4fvarINS3_9var_valueIdvEEEELin1ELi1ELi0ELin1ELi1EEEEC2INS_14CwiseNullaryOpINS_8internal18scalar_constant_opIS7_EES8_EEEERKNS_9DenseBaseIT_EE, symObjAddr: 0x12524, symBinAddr: 0x100012F94, symSize: 0x124 }
  - { offsetInCU: 0x356837, offset: 0x356837, size: 0x8, addend: 0x0, symName: __ZN5Eigen8internal21dense_assignment_loopINS0_31generic_dense_assignment_kernelINS0_9evaluatorINS_12ArrayWrapperINS_5BlockINS_6MatrixIN4stan4math4fvarINS8_9var_valueIdvEEEELin1ELin1ELi0ELin1ELin1EEELin1ELi1ELb1EEEEEEENS3_INS_13CwiseBinaryOpINS0_17scalar_product_opISC_SC_EEKNS_5ArrayISC_Lin1ELi1ELi0ELin1ELi1EEEKNS_12CwiseUnaryOpIZNS8_18apply_scalar_unaryINS8_13inv_logit_funENSH_INS0_20scalar_difference_opISC_dEEKNS4_IKNS5_IKSD_Lin1ELi1ELb1EEEEEKNS_14CwiseNullaryOpINS0_18scalar_constant_opIdEEKNSK_IdLin1ELi1ELi0ELin1ELi1EEEEEEEvE5applyERKS14_EUlOT_E_S16_EEEEEENS0_9assign_opISC_SC_EELi0EEELi1ELi0EE3runERS1H_, symObjAddr: 0x12648, symBinAddr: 0x1000130B8, symSize: 0x11C }
  - { offsetInCU: 0x356C58, offset: 0x356C58, size: 0x8, addend: 0x0, symName: __ZN4stan4math4fvarINS0_9var_valueIdvEEEmIERKS4_, symObjAddr: 0x12E30, symBinAddr: 0x1000138A0, symSize: 0xFC }
  - { offsetInCU: 0x357352, offset: 0x357352, size: 0x8, addend: 0x0, symName: __ZN4stan4math10vari_valueIdvEC2IdLPv0EEET_, symObjAddr: 0x1295C, symBinAddr: 0x1000133CC, symSize: 0x114 }
  - { offsetInCU: 0x357943, offset: 0x357943, size: 0x8, addend: 0x0, symName: __ZN4stan4math8internal16multiply_vv_vari5chainEv, symObjAddr: 0x12930, symBinAddr: 0x1000133A0, symSize: 0x2C }
  - { offsetInCU: 0x3579AE, offset: 0x3579AE, size: 0x8, addend: 0x0, symName: __ZN4stan4math8internal13callback_variIdZNS0_plERKNS0_9var_valueIdvEES6_EUlRKT_E_E5chainEv, symObjAddr: 0x12A70, symBinAddr: 0x1000134E0, symSize: 0x28 }
  - { offsetInCU: 0x3579D5, offset: 0x3579D5, size: 0x8, addend: 0x0, symName: __ZN4stan4math8internal13callback_variIdZNS0_plERKNS0_9var_valueIdvEES6_EUlRKT_E_E5chainEv, symObjAddr: 0x12A70, symBinAddr: 0x1000134E0, symSize: 0x28 }
  - { offsetInCU: 0x357BA4, offset: 0x357BA4, size: 0x8, addend: 0x0, symName: __ZN4stan4math8internal13callback_variIdZNS0_9inv_logitIdLPv0EEEDaRKNS0_9var_valueIT_vEEEUlRS7_E_E5chainEv, symObjAddr: 0x12DDC, symBinAddr: 0x10001384C, symSize: 0x24 }
  - { offsetInCU: 0x357BCB, offset: 0x357BCB, size: 0x8, addend: 0x0, symName: __ZN4stan4math8internal13callback_variIdZNS0_9inv_logitIdLPv0EEEDaRKNS0_9var_valueIT_vEEEUlRS7_E_E5chainEv, symObjAddr: 0x12DDC, symBinAddr: 0x10001384C, symSize: 0x24 }
  - { offsetInCU: 0x357C54, offset: 0x357C54, size: 0x8, addend: 0x0, symName: __ZN4stan4math8internal13callback_variIdZNS0_miIiLPv0EEENS0_9var_valueIdvEET_RKS6_EUlRKS7_E_E5chainEv, symObjAddr: 0x12E00, symBinAddr: 0x100013870, symSize: 0x18 }
  - { offsetInCU: 0x357C7B, offset: 0x357C7B, size: 0x8, addend: 0x0, symName: __ZN4stan4math8internal13callback_variIdZNS0_miIiLPv0EEENS0_9var_valueIdvEET_RKS6_EUlRKS7_E_E5chainEv, symObjAddr: 0x12E00, symBinAddr: 0x100013870, symSize: 0x18 }
  - { offsetInCU: 0x357CE5, offset: 0x357CE5, size: 0x8, addend: 0x0, symName: __ZN4stan4math8internal13callback_variIdZNS0_miIdLPv0EEENS0_9var_valueIdvEERKS6_T_EUlRKS9_E_E5chainEv, symObjAddr: 0x12E18, symBinAddr: 0x100013888, symSize: 0x18 }
  - { offsetInCU: 0x357D0C, offset: 0x357D0C, size: 0x8, addend: 0x0, symName: __ZN4stan4math8internal13callback_variIdZNS0_miIdLPv0EEENS0_9var_valueIdvEERKS6_T_EUlRKS9_E_E5chainEv, symObjAddr: 0x12E18, symBinAddr: 0x100013888, symSize: 0x18 }
  - { offsetInCU: 0x357E30, offset: 0x357E30, size: 0x8, addend: 0x0, symName: __ZN4stan4math8internal13callback_variIdZNS0_miERKNS0_9var_valueIdvEES6_EUlRKT_E_E5chainEv, symObjAddr: 0x12F2C, symBinAddr: 0x10001399C, symSize: 0x28 }
  - { offsetInCU: 0x357E57, offset: 0x357E57, size: 0x8, addend: 0x0, symName: __ZN4stan4math8internal13callback_variIdZNS0_miERKNS0_9var_valueIdvEES6_EUlRKT_E_E5chainEv, symObjAddr: 0x12F2C, symBinAddr: 0x10001399C, symSize: 0x28 }
  - { offsetInCU: 0x357EAF, offset: 0x357EAF, size: 0x8, addend: 0x0, symName: __ZN5Eigen8internal28conditional_aligned_new_autoIN4stan4math4fvarINS4_INS3_9var_valueIdvEEEEEELb1EEEPT_m.cold.1, symObjAddr: 0x32438, symBinAddr: 0x100062EE8, symSize: 0x24 }
  - { offsetInCU: 0x3585B8, offset: 0x3585B8, size: 0x8, addend: 0x0, symName: __ZNSt3__16vectorIN4stan4math4fvarINS3_INS2_9var_valueIdvEEEEEENS_9allocatorIS7_EEEC2Em, symObjAddr: 0x13318, symBinAddr: 0x100013D88, symSize: 0xC4 }
  - { offsetInCU: 0x35898D, offset: 0x35898D, size: 0x8, addend: 0x0, symName: __ZN4stan4math12deserializerINS0_4fvarINS2_INS0_9var_valueIdvEEEEEEE4readIdLin1ELin1EEEN5Eigen6MatrixIS6_XT0_EXT1_EXorLNS9_14StorageOptionsE0EquaaeqT0_Li1EneT1_Li1ELSB_1EquaaeqT1_Li1EneT0_Li1ELSB_0ELSB_0EEXT0_EXT1_EEERKNSA_IT_XT0_EXT1_EXorLSB_0EquaaeqT0_Li1EneT1_Li1ELSB_1EquaaeqT1_Li1EneT0_Li1ELSB_0ELSB_0EEXT0_EXT1_EEE, symObjAddr: 0x131F4, symBinAddr: 0x100013C64, symSize: 0x124 }
  - { offsetInCU: 0x358E05, offset: 0x358E05, size: 0x8, addend: 0x0, symName: __ZN5Eigen6MatrixIN4stan4math4fvarINS3_INS2_9var_valueIdvEEEEEELin1ELin1ELi0ELin1ELin1EEC2IllEERKT_RKT0_, symObjAddr: 0x133F0, symBinAddr: 0x100013E60, symSize: 0xF4 }
  - { offsetInCU: 0x35921E, offset: 0x35921E, size: 0x8, addend: 0x0, symName: __ZNKSt3__16vectorIN4stan4math4fvarINS3_INS2_9var_valueIdvEEEEEENS_9allocatorIS7_EEE20__throw_length_errorB7v160006Ev, symObjAddr: 0x133DC, symBinAddr: 0x100013E4C, symSize: 0x14 }
  - { offsetInCU: 0x359247, offset: 0x359247, size: 0x8, addend: 0x0, symName: __ZN5Eigen6MatrixIN4stan4math4fvarINS3_INS2_9var_valueIdvEEEEEELin1ELin1ELi0ELin1ELin1EEC2IllEERKT_RKT0_, symObjAddr: 0x133F0, symBinAddr: 0x100013E60, symSize: 0xF4 }
  - { offsetInCU: 0x359669, offset: 0x359669, size: 0x8, addend: 0x0, symName: __ZN4stan4math10serializerINS0_4fvarINS2_INS0_9var_valueIdvEEEEEEE5writeIS6_LPv0EEEvRKT_, symObjAddr: 0x13628, symBinAddr: 0x100014098, symSize: 0x114 }
  - { offsetInCU: 0x359B71, offset: 0x359B71, size: 0x8, addend: 0x0, symName: __ZN4stan4math21simplex_row_constrainIN5Eigen6MatrixINS0_4fvarINS4_INS0_9var_valueIdvEEEEEELin1ELin1ELi0ELin1ELin1EEELPv0ELSA_0EEEDaRKT_, symObjAddr: 0x1373C, symBinAddr: 0x1000141AC, symSize: 0x52C }
  - { offsetInCU: 0x35AA1D, offset: 0x35AA1D, size: 0x8, addend: 0x0, symName: __ZN5Eigen15PlainObjectBaseINS_5ArrayIN4stan4math4fvarINS4_INS3_9var_valueIdvEEEEEELin1ELi1ELi0ELin1ELi1EEEEC2INS_14CwiseNullaryOpINS_8internal18scalar_constant_opIS8_EES9_EEEERKNS_9DenseBaseIT_EE, symObjAddr: 0x13C68, symBinAddr: 0x1000146D8, symSize: 0x134 }
  - { offsetInCU: 0x35B988, offset: 0x35B988, size: 0x8, addend: 0x0, symName: __ZNK5Eigen8internal15unary_evaluatorINS_12CwiseUnaryOpIZN4stan4math18apply_scalar_unaryINS4_13inv_logit_funENS_13CwiseBinaryOpINS0_20scalar_difference_opINS4_4fvarINS9_INS4_9var_valueIdvEEEEEEdEEKNS_12ArrayWrapperIKNS_5BlockIKNS_6MatrixISD_Lin1ELin1ELi0ELin1ELin1EEELin1ELi1ELb1EEEEEKNS_14CwiseNullaryOpINS0_18scalar_constant_opIdEEKNS_5ArrayIdLin1ELi1ELi0ELin1ELi1EEEEEEEvE5applyERKSW_EUlOT_E_SY_EENS0_10IndexBasedESD_E5coeffEl, symObjAddr: 0x13EB0, symBinAddr: 0x100014920, symSize: 0x124 }
  - { offsetInCU: 0x35BD0E, offset: 0x35BD0E, size: 0x8, addend: 0x0, symName: __ZN5Eigen8internal26call_dense_assignment_loopINS_12ArrayWrapperINS_5BlockINS_6MatrixIN4stan4math4fvarINS7_INS6_9var_valueIdvEEEEEELin1ELin1ELi0ELin1ELin1EEELin1ELi1ELb1EEEEENS_13CwiseBinaryOpINS0_17scalar_product_opISB_SB_EEKNS_5ArrayISB_Lin1ELi1ELi0ELin1ELi1EEEKNS_12CwiseUnaryOpIZNS6_18apply_scalar_unaryINS6_13inv_logit_funENSF_INS0_20scalar_difference_opISB_dEEKNS2_IKNS3_IKSC_Lin1ELi1ELb1EEEEEKNS_14CwiseNullaryOpINS0_18scalar_constant_opIdEEKNSI_IdLin1ELi1ELi0ELin1ELi1EEEEEEEvE5applyERKS12_EUlOT_E_S14_EEEENS0_9assign_opISB_SB_EEEEvRS16_RKT0_RKT1_.cold.1, symObjAddr: 0x3245C, symBinAddr: 0x100062F0C, symSize: 0x24 }
  - { offsetInCU: 0x35C087, offset: 0x35C087, size: 0x8, addend: 0x0, symName: __ZN4stan4math8internal13callback_variIdZNS0_miIdLPv0EEENS0_9var_valueIdvEET_RKS6_EUlRKS7_E_E5chainEv, symObjAddr: 0x141E8, symBinAddr: 0x100014C58, symSize: 0x18 }
  - { offsetInCU: 0x35C0AE, offset: 0x35C0AE, size: 0x8, addend: 0x0, symName: __ZN4stan4math8internal13callback_variIdZNS0_miIdLPv0EEENS0_9var_valueIdvEET_RKS6_EUlRKS7_E_E5chainEv, symObjAddr: 0x141E8, symBinAddr: 0x100014C58, symSize: 0x18 }
  - { offsetInCU: 0x35C118, offset: 0x35C118, size: 0x8, addend: 0x0, symName: __ZN4stan4math8internal13callback_variIdZNS0_ngERKNS0_9var_valueIdvEEEUlRKT_E_E5chainEv, symObjAddr: 0x14200, symBinAddr: 0x100014C70, symSize: 0x18 }
  - { offsetInCU: 0x35C13F, offset: 0x35C13F, size: 0x8, addend: 0x0, symName: __ZN4stan4math8internal13callback_variIdZNS0_ngERKNS0_9var_valueIdvEEEUlRKT_E_E5chainEv, symObjAddr: 0x14200, symBinAddr: 0x100014C70, symSize: 0x18 }
  - { offsetInCU: 0x35C69D, offset: 0x35C69D, size: 0x8, addend: 0x0, symName: __ZN4stan4math19nested_rev_autodiffC2Ev, symObjAddr: 0x15F70, symBinAddr: 0x1000169E0, symSize: 0x288 }
  - { offsetInCU: 0x35D37A, offset: 0x35D37A, size: 0x8, addend: 0x0, symName: __ZN4stan4math11stack_alloc12start_nestedEv, symObjAddr: 0x161F8, symBinAddr: 0x100016C68, symSize: 0x260 }
  - { offsetInCU: 0x35D385, offset: 0x35D385, size: 0x8, addend: 0x0, symName: __ZN4stan4math19nested_rev_autodiffD2Ev, symObjAddr: 0x16538, symBinAddr: 0x100016FA8, symSize: 0x1DC }
  - { offsetInCU: 0x35DE55, offset: 0x35DE55, size: 0x8, addend: 0x0, symName: __ZN4stan4math11stack_alloc12start_nestedEv, symObjAddr: 0x161F8, symBinAddr: 0x100016C68, symSize: 0x260 }
  - { offsetInCU: 0x35EB87, offset: 0x35EB87, size: 0x8, addend: 0x0, symName: __ZN5Eigen8internal26call_dense_assignment_loopINS_6MatrixIN4stan4math9var_valueIdvEELin1ELi1ELi0ELin1ELi1EEENS2_IdLin1ELi1ELi0ELin1ELi1EEENS0_9assign_opIS6_dEEEEvRT_RKT0_RKT1_, symObjAddr: 0x16458, symBinAddr: 0x100016EC8, symSize: 0xE0 }
  - { offsetInCU: 0x35ED17, offset: 0x35ED17, size: 0x8, addend: 0x0, symName: __ZN5Eigen8internal26call_dense_assignment_loopINS_6MatrixIN4stan4math9var_valueIdvEELin1ELi1ELi0ELin1ELi1EEENS2_IdLin1ELi1ELi0ELin1ELi1EEENS0_9assign_opIS6_dEEEEvRT_RKT0_RKT1_.cold.1, symObjAddr: 0x32480, symBinAddr: 0x100062F30, symSize: 0x24 }
  - { offsetInCU: 0x35ED45, offset: 0x35ED45, size: 0x8, addend: 0x0, symName: __ZN5Eigen8internal26call_dense_assignment_loopINS_6MatrixIN4stan4math9var_valueIdvEELin1ELi1ELi0ELin1ELi1EEENS2_IdLin1ELi1ELi0ELin1ELi1EEENS0_9assign_opIS6_dEEEEvRT_RKT0_RKT1_.cold.2, symObjAddr: 0x324A4, symBinAddr: 0x100062F54, symSize: 0x24 }
  - { offsetInCU: 0x35EEFD, offset: 0x35EEFD, size: 0x8, addend: 0x0, symName: __ZNSt3__16vectorIPN4stan4math9vari_baseENS_9allocatorIS4_EEE8__appendEm, symObjAddr: 0x16714, symBinAddr: 0x100017184, symSize: 0x118 }
  - { offsetInCU: 0x35F375, offset: 0x35F375, size: 0x8, addend: 0x0, symName: __ZNSt3__16vectorIPN4stan4math15chainable_allocENS_9allocatorIS4_EEE8__appendEm, symObjAddr: 0x1682C, symBinAddr: 0x10001729C, symSize: 0x118 }
  - { offsetInCU: 0x35F380, offset: 0x35F380, size: 0x8, addend: 0x0, symName: __ZNSt3__16vectorIPN4stan4math15chainable_allocENS_9allocatorIS4_EEE8__appendEm, symObjAddr: 0x1682C, symBinAddr: 0x10001729C, symSize: 0x118 }
  - { offsetInCU: 0x35F7F8, offset: 0x35F7F8, size: 0x8, addend: 0x0, symName: __ZNKSt3__16vectorIPN4stan4math15chainable_allocENS_9allocatorIS4_EEE20__throw_length_errorB7v160006Ev, symObjAddr: 0x16944, symBinAddr: 0x1000173B4, symSize: 0x14 }
  - { offsetInCU: 0x35FBF5, offset: 0x35FBF5, size: 0x8, addend: 0x0, symName: __ZNKSt3__16vectorIPN4stan4math15chainable_allocENS_9allocatorIS4_EEE20__throw_length_errorB7v160006Ev, symObjAddr: 0x16944, symBinAddr: 0x1000173B4, symSize: 0x14 }
  - { offsetInCU: 0x35FC1E, offset: 0x35FC1E, size: 0x8, addend: 0x0, symName: __ZN7testing8internal18CmpHelperEQFailureIllEENS_15AssertionResultEPKcS4_RKT_RKT0_, symObjAddr: 0x16958, symBinAddr: 0x1000173C8, symSize: 0xE4 }
  - { offsetInCU: 0x35FD89, offset: 0x35FD89, size: 0x8, addend: 0x0, symName: __ZN4stan4math4fvarINS0_9var_valueIdvEEEC2IdbEERKT_RKT0_, symObjAddr: 0x1840C, symBinAddr: 0x100018E7C, symSize: 0xC8 }
  - { offsetInCU: 0x35FF54, offset: 0x35FF54, size: 0x8, addend: 0x0, symName: __ZN4stan4math7hessianIZZNS_4test8internal16expect_ad_helperIZN26simplex_row_constrain_test24expect_simplex_transformIN5Eigen6MatrixIdLin1ELin1ELi0ELin1ELin1EEEEEvRKT_EUlSC_E_ZNS3_11expect_ad_vISD_S9_EEvRKNS2_13ad_tolerancesESC_RKT0_EUlSC_E_JS9_EEEvSH_SC_SK_RKNS8_IdLin1ELi1ELi0ELin1ELi1EEEDpT1_ENKUliE_clEiEUlSC_E_EEvSC_SO_RdRSM_RS9_.cold.1, symObjAddr: 0x324C8, symBinAddr: 0x100062F78, symSize: 0x24 }
  - { offsetInCU: 0x35FF83, offset: 0x35FF83, size: 0x8, addend: 0x0, symName: __ZN4stan4math7hessianIZZNS_4test8internal16expect_ad_helperIZN26simplex_row_constrain_test24expect_simplex_transformIN5Eigen6MatrixIdLin1ELin1ELi0ELin1ELin1EEEEEvRKT_EUlSC_E_ZNS3_11expect_ad_vISD_S9_EEvRKNS2_13ad_tolerancesESC_RKT0_EUlSC_E_JS9_EEEvSH_SC_SK_RKNS8_IdLin1ELi1ELi0ELin1ELi1EEEDpT1_ENKUliE_clEiEUlSC_E_EEvSC_SO_RdRSM_RS9_.cold.2, symObjAddr: 0x324EC, symBinAddr: 0x100062F9C, symSize: 0x24 }
  - { offsetInCU: 0x36033E, offset: 0x36033E, size: 0x8, addend: 0x0, symName: __ZN4stan4math8internal24finite_diff_hessian_autoIZZNS_4test8internal16expect_ad_helperIZN26simplex_row_constrain_test24expect_simplex_transformIN5Eigen6MatrixIdLin1ELin1ELi0ELin1ELin1EEEEEvRKT_EUlSD_E_ZNS4_11expect_ad_vISE_SA_EEvRKNS3_13ad_tolerancesESD_RKT0_EUlSD_E_JSA_EEEvSI_SD_SL_RKNS9_IdLin1ELi1ELi0ELin1ELi1EEEDpT1_ENKUliE_clEiEUlSD_E_EEvSD_SP_RdRSN_RSA_.cold.1, symObjAddr: 0x32510, symBinAddr: 0x100062FC0, symSize: 0x30 }
  - { offsetInCU: 0x3604A2, offset: 0x3604A2, size: 0x8, addend: 0x0, symName: __ZN4stan4math8internal24finite_diff_hessian_autoIZZNS_4test8internal16expect_ad_helperIZN26simplex_row_constrain_test24expect_simplex_transformIN5Eigen6MatrixIdLin1ELin1ELi0ELin1ELin1EEEEEvRKT_EUlSD_E_ZNS4_11expect_ad_vISE_SA_EEvRKNS3_13ad_tolerancesESD_RKT0_EUlSD_E_JSA_EEEvSI_SD_SL_RKNS9_IdLin1ELi1ELi0ELin1ELi1EEEDpT1_ENKUliE_clEiEUlSD_E_EEvSD_SP_RdRSN_RSA_.cold.2, symObjAddr: 0x32540, symBinAddr: 0x100062FF0, symSize: 0x30 }
  - { offsetInCU: 0x360606, offset: 0x360606, size: 0x8, addend: 0x0, symName: __ZNSt3__16vectorIN5Eigen6MatrixIdLin1ELi1ELi0ELin1ELi1EEENS_9allocatorIS3_EEED1B7v160006Ev, symObjAddr: 0x1869C, symBinAddr: 0x10001910C, symSize: 0x58 }
  - { offsetInCU: 0x360993, offset: 0x360993, size: 0x8, addend: 0x0, symName: __ZN4stan4math10vari_valueIdvEC2IbLPv0EEET_b, symObjAddr: 0x184D4, symBinAddr: 0x100018F44, symSize: 0x1C8 }
  - { offsetInCU: 0x3611FF, offset: 0x3611FF, size: 0x8, addend: 0x0, symName: __ZN4stan4math7hessianIdZZNS_4test8internal16expect_ad_helperIZN26simplex_row_constrain_test24expect_simplex_transformIN5Eigen6MatrixIdLin1ELin1ELi0ELin1ELin1EEEEEvRKT_EUlSC_E_ZNS3_11expect_ad_vISD_S9_EEvRKNS2_13ad_tolerancesESC_RKT0_EUlSC_E_JS9_EEEvSH_SC_SK_RKNS8_IdLin1ELi1ELi0ELin1ELi1EEEDpT1_ENKUliE_clEiEUlSC_E_EEvSK_RKNS8_ISA_Lin1ELi1ELi0ELin1ELi1EEERSA_RST_RNS8_ISA_Lin1ELin1ELi0ELin1ELin1EEE.cold.1, symObjAddr: 0x32570, symBinAddr: 0x100063020, symSize: 0x24 }
  - { offsetInCU: 0x36122E, offset: 0x36122E, size: 0x8, addend: 0x0, symName: __ZN4stan4math7hessianIdZZNS_4test8internal16expect_ad_helperIZN26simplex_row_constrain_test24expect_simplex_transformIN5Eigen6MatrixIdLin1ELin1ELi0ELin1ELin1EEEEEvRKT_EUlSC_E_ZNS3_11expect_ad_vISD_S9_EEvRKNS2_13ad_tolerancesESC_RKT0_EUlSC_E_JS9_EEEvSH_SC_SK_RKNS8_IdLin1ELi1ELi0ELin1ELi1EEEDpT1_ENKUliE_clEiEUlSC_E_EEvSK_RKNS8_ISA_Lin1ELi1ELi0ELin1ELi1EEERSA_RST_RNS8_ISA_Lin1ELin1ELi0ELin1ELin1EEE.cold.2, symObjAddr: 0x32594, symBinAddr: 0x100063044, symSize: 0x24 }
  - { offsetInCU: 0x3613E8, offset: 0x3613E8, size: 0x8, addend: 0x0, symName: __ZNSt3__16vectorIN5Eigen6MatrixIdLin1ELin1ELi0ELin1ELin1EEENS_9allocatorIS3_EEE8__appendEmRKS3_, symObjAddr: 0x198B0, symBinAddr: 0x10001A320, symSize: 0x250 }
  - { offsetInCU: 0x361E67, offset: 0x361E67, size: 0x8, addend: 0x0, symName: __ZN4stan4math4fvarINS0_9var_valueIdvEEEC2IbiEERKT_RKT0_, symObjAddr: 0x19B00, symBinAddr: 0x10001A570, symSize: 0xC0 }
  - { offsetInCU: 0x362037, offset: 0x362037, size: 0x8, addend: 0x0, symName: __ZN4stan4math12grad_hessianIZZNS_4test8internal16expect_ad_helperIZN26simplex_row_constrain_test24expect_simplex_transformIN5Eigen6MatrixIdLin1ELin1ELi0ELin1ELin1EEEEEvRKT_EUlSC_E_ZNS3_11expect_ad_vISD_S9_EEvRKNS2_13ad_tolerancesESC_RKT0_EUlSC_E_JS9_EEEvSH_SC_SK_RKNS8_IdLin1ELi1ELi0ELin1ELi1EEEDpT1_ENKUliE_clEiEUlSC_E_EEvSC_SO_RdRS9_RNSt3__16vectorIS9_NSV_9allocatorIS9_EEEE.cold.1, symObjAddr: 0x325B8, symBinAddr: 0x100063068, symSize: 0x24 }
  - { offsetInCU: 0x362DEB, offset: 0x362DEB, size: 0x8, addend: 0x0, symName: __ZNSt3__16vectorIN5Eigen6MatrixIdLin1ELin1ELi0ELin1ELin1EEENS_9allocatorIS3_EEE7reserveEm, symObjAddr: 0x19BC0, symBinAddr: 0x10001A630, symSize: 0xF4 }
  - { offsetInCU: 0x363358, offset: 0x363358, size: 0x8, addend: 0x0, symName: __ZN5Eigen8internal17resize_if_allowedINS_6MatrixIdLin1ELin1ELi0ELin1ELin1EEENS_14CwiseNullaryOpINS0_18scalar_constant_opIdEES3_EEddEEvRT_RKT0_RKNS0_9assign_opIT1_T2_EE, symObjAddr: 0x19CB4, symBinAddr: 0x10001A724, symSize: 0xD0 }
  - { offsetInCU: 0x363454, offset: 0x363454, size: 0x8, addend: 0x0, symName: __ZN5Eigen8internal17resize_if_allowedINS_6MatrixIdLin1ELin1ELi0ELin1ELin1EEENS_14CwiseNullaryOpINS0_18scalar_constant_opIdEES3_EEddEEvRT_RKT0_RKNS0_9assign_opIT1_T2_EE.cold.1, symObjAddr: 0x325DC, symBinAddr: 0x10006308C, symSize: 0x24 }
  - { offsetInCU: 0x36346C, offset: 0x36346C, size: 0x8, addend: 0x0, symName: __ZN5Eigen8internal17resize_if_allowedINS_6MatrixIdLin1ELin1ELi0ELin1ELin1EEENS_14CwiseNullaryOpINS0_18scalar_constant_opIdEES3_EEddEEvRT_RKT0_RKNS0_9assign_opIT1_T2_EE.cold.2, symObjAddr: 0x32600, symBinAddr: 0x1000630B0, symSize: 0x24 }
  - { offsetInCU: 0x3634B0, offset: 0x3634B0, size: 0x8, addend: 0x0, symName: __ZN5Eigen8internal17resize_if_allowedINS_6MatrixIdLin1ELin1ELi0ELin1ELin1EEENS_12CwiseUnaryOpINS0_18scalar_opposite_opIdEEKS3_EEddEEvRT_RKT0_RKNS0_9assign_opIT1_T2_EE.cold.1, symObjAddr: 0x32624, symBinAddr: 0x1000630D4, symSize: 0x24 }
  - { offsetInCU: 0x3634C8, offset: 0x3634C8, size: 0x8, addend: 0x0, symName: __ZN5Eigen8internal17resize_if_allowedINS_6MatrixIdLin1ELin1ELi0ELin1ELin1EEENS_12CwiseUnaryOpINS0_18scalar_opposite_opIdEEKS3_EEddEEvRT_RKT0_RKNS0_9assign_opIT1_T2_EE.cold.2, symObjAddr: 0x32648, symBinAddr: 0x1000630F8, symSize: 0x24 }
  - { offsetInCU: 0x363CD3, offset: 0x363CD3, size: 0x8, addend: 0x0, symName: __ZN4stan4math10vari_valueIN5Eigen6MatrixIdLin1ELin1ELi0ELin1ELin1EEEvEC2IS4_LPv0EEERKT_b, symObjAddr: 0x1AAD0, symBinAddr: 0x10001B540, symSize: 0x318 }
  - { offsetInCU: 0x364B32, offset: 0x364B32, size: 0x8, addend: 0x0, symName: __ZN4stan4math10vari_valueIN5Eigen6MatrixIdLin1ELin1ELi0ELin1ELin1EEEvE5chainEv, symObjAddr: 0x1ADE8, symBinAddr: 0x10001B858, symSize: 0x4 }
  - { offsetInCU: 0x36501B, offset: 0x36501B, size: 0x8, addend: 0x0, symName: __ZZN4stan4test22expect_near_rel_matvarIJNS_4math9var_valueIN5Eigen6MatrixIdLin1ELin1ELi0ELin1ELin1EEEvEEEJNS5_INS3_IdvEELin1ELin1ELi0ELin1ELin1EEEEEEvRKNSt3__112basic_stringIcNSA_11char_traitsIcEENSA_9allocatorIcEEEERKNSA_5tupleIJDpT_EEERKNSJ_IJDpT0_EEERKNS0_13ad_tolerancesEENKUlRKT_RKT0_RKT1_E_clIS7_S9_mEEDaSZ_S12_S15_, symObjAddr: 0x1CB14, symBinAddr: 0x10001D584, symSize: 0x200 }
  - { offsetInCU: 0x365DC0, offset: 0x365DC0, size: 0x8, addend: 0x0, symName: __ZN4stan4test20test_matvar_gradientIN5Eigen6MatrixINS_4math9var_valueIdvEELin1ELin1ELi0ELin1ELin1EEENS5_INS3_IdLin1ELin1ELi0ELin1ELin1EEEvEEJS7_EJS9_ELPv0EEEvRKNS0_13ad_tolerancesERT_RT0_RKNSt3__15tupleIJDpT1_EEERKNSJ_IJDpT2_EEE.cold.2, symObjAddr: 0x32694, symBinAddr: 0x100063144, symSize: 0x28 }
  - { offsetInCU: 0x365DED, offset: 0x365DED, size: 0x8, addend: 0x0, symName: __ZN4stan4test20test_matvar_gradientIN5Eigen6MatrixINS_4math9var_valueIdvEELin1ELin1ELi0ELin1ELin1EEENS5_INS3_IdLin1ELin1ELi0ELin1ELin1EEEvEEJS7_EJS9_ELPv0EEEvRKNS0_13ad_tolerancesERT_RT0_RKNSt3__15tupleIJDpT1_EEERKNSJ_IJDpT2_EEE.cold.1, symObjAddr: 0x3266C, symBinAddr: 0x10006311C, symSize: 0x28 }
  - { offsetInCU: 0x365E1A, offset: 0x365E1A, size: 0x8, addend: 0x0, symName: __ZN5Eigen8internal17resize_if_allowedINS_6MatrixIN4stan4math9var_valueIdvEELin1ELin1ELi0ELin1ELin1EEENS2_IdLin1ELin1ELi0ELin1ELin1EEES6_dEEvRT_RKT0_RKNS0_9assign_opIT1_T2_EE.cold.1, symObjAddr: 0x326BC, symBinAddr: 0x10006316C, symSize: 0x24 }
  - { offsetInCU: 0x365E32, offset: 0x365E32, size: 0x8, addend: 0x0, symName: __ZN5Eigen8internal17resize_if_allowedINS_6MatrixIN4stan4math9var_valueIdvEELin1ELin1ELi0ELin1ELin1EEENS2_IdLin1ELin1ELi0ELin1ELin1EEES6_dEEvRT_RKT0_RKNS0_9assign_opIT1_T2_EE.cold.2, symObjAddr: 0x326E0, symBinAddr: 0x100063190, symSize: 0x24 }
  - { offsetInCU: 0x366102, offset: 0x366102, size: 0x8, addend: 0x0, symName: __ZN4stan4math12arena_matrixIN5Eigen6MatrixIdLin1ELin1ELi0ELin1ELin1EEEEaSIS4_EERS5_RKT_, symObjAddr: 0x1AEC8, symBinAddr: 0x10001B938, symSize: 0x128 }
  - { offsetInCU: 0x366788, offset: 0x366788, size: 0x8, addend: 0x0, symName: __ZN4stan4math21simplex_row_constrainINS0_9var_valueIN5Eigen6MatrixIdLin1ELin1ELi0ELin1ELin1EEEvEELPv0EEEDaRKT_, symObjAddr: 0x1AFF0, symBinAddr: 0x10001BA60, symSize: 0x724 }
  - { offsetInCU: 0x36679C, offset: 0x36679C, size: 0x8, addend: 0x0, symName: __ZN4stan4math10vari_valueIN5Eigen6MatrixIdLin1ELin1ELi0ELin1ELin1EEEvEC2IS4_LPv0EEERKT_b.cold.1, symObjAddr: 0x32704, symBinAddr: 0x1000631B4, symSize: 0x24 }
  - { offsetInCU: 0x36681F, offset: 0x36681F, size: 0x8, addend: 0x0, symName: __ZN4stan4math10vari_valueIN5Eigen6MatrixIdLin1ELin1ELi0ELin1ELin1EEEvEC2IS4_LPv0EEERKT_b.cold.2, symObjAddr: 0x32728, symBinAddr: 0x1000631D8, symSize: 0x24 }
  - { offsetInCU: 0x3668A2, offset: 0x3668A2, size: 0x8, addend: 0x0, symName: __ZN4stan4math10vari_valueIN5Eigen6MatrixIdLin1ELin1ELi0ELin1ELin1EEEvEC2IS4_LPv0EEERKT_b.cold.3, symObjAddr: 0x3274C, symBinAddr: 0x1000631FC, symSize: 0x24 }
  - { offsetInCU: 0x36693B, offset: 0x36693B, size: 0x8, addend: 0x0, symName: __ZN4stan4math10vari_valueIN5Eigen6MatrixIdLin1ELin1ELi0ELin1ELin1EEEvE5chainEv, symObjAddr: 0x1ADE8, symBinAddr: 0x10001B858, symSize: 0x4 }
  - { offsetInCU: 0x366960, offset: 0x366960, size: 0x8, addend: 0x0, symName: __ZN4stan4math10vari_valueIN5Eigen6MatrixIdLin1ELin1ELi0ELin1ELin1EEEvE16set_zero_adjointEv, symObjAddr: 0x1ADEC, symBinAddr: 0x10001B85C, symSize: 0xDC }
  - { offsetInCU: 0x366DC7, offset: 0x366DC7, size: 0x8, addend: 0x0, symName: __ZN4stan4math12arena_matrixIN5Eigen6MatrixIdLin1ELin1ELi0ELin1ELin1EEEEaSIS4_EERS5_RKT_, symObjAddr: 0x1AEC8, symBinAddr: 0x10001B938, symSize: 0x128 }
  - { offsetInCU: 0x366DD2, offset: 0x366DD2, size: 0x8, addend: 0x0, symName: __ZN4stan4math10vari_valueIN5Eigen6MatrixIdLin1ELin1ELi0ELin1ELin1EEEvE16set_zero_adjointEv.cold.1, symObjAddr: 0x32770, symBinAddr: 0x100063220, symSize: 0x24 }
  - { offsetInCU: 0x367074, offset: 0x367074, size: 0x8, addend: 0x0, symName: __ZN4stan4math12arena_matrixIN5Eigen6MatrixIdLin1ELin1ELi0ELin1ELin1EEEEaSIS4_EERS5_RKT_.cold.1, symObjAddr: 0x32794, symBinAddr: 0x100063244, symSize: 0x24 }
  - { offsetInCU: 0x367489, offset: 0x367489, size: 0x8, addend: 0x0, symName: __ZN4stan4math10vari_valueIN5Eigen6MatrixIdLin1ELin1ELi0ELin1ELin1EEEvEC2INS0_12arena_matrixIS4_EELPv0EEERKT_b, symObjAddr: 0x1B780, symBinAddr: 0x10001C1F0, symSize: 0x2D4 }
  - { offsetInCU: 0x368229, offset: 0x368229, size: 0x8, addend: 0x0, symName: __ZN4stan4math8internal26reverse_pass_callback_variIZNS0_21simplex_row_constrainINS0_9var_valueIN5Eigen6MatrixIdLin1ELin1ELi0ELin1ELin1EEEvEELPv0EEEDaRKT_EUlvE_EC2EOSE_, symObjAddr: 0x1BA54, symBinAddr: 0x10001C4C4, symSize: 0x128 }
  - { offsetInCU: 0x368244, offset: 0x368244, size: 0x8, addend: 0x0, symName: __ZN4stan4math8internal26reverse_pass_callback_variIZNS0_21simplex_row_constrainINS0_9var_valueIN5Eigen6MatrixIdLin1ELin1ELi0ELin1ELin1EEEvEELPv0EEEDaRKT_EUlvE_EC2EOSE_, symObjAddr: 0x1BA54, symBinAddr: 0x10001C4C4, symSize: 0x128 }
  - { offsetInCU: 0x36889E, offset: 0x36889E, size: 0x8, addend: 0x0, symName: __ZN4stan4math8internal26reverse_pass_callback_variIZNS0_21simplex_row_constrainINS0_9var_valueIN5Eigen6MatrixIdLin1ELin1ELi0ELin1ELin1EEEvEELPv0EEEDaRKT_EUlvE_E5chainEv, symObjAddr: 0x1BB7C, symBinAddr: 0x10001C5EC, symSize: 0x128 }
  - { offsetInCU: 0x3688A9, offset: 0x3688A9, size: 0x8, addend: 0x0, symName: __ZN4stan4math21simplex_row_constrainINS0_9var_valueIN5Eigen6MatrixIdLin1ELin1ELi0ELin1ELin1EEEvEELPv0EEEDaRKT_.cold.1, symObjAddr: 0x327B8, symBinAddr: 0x100063268, symSize: 0x24 }
  - { offsetInCU: 0x36892B, offset: 0x36892B, size: 0x8, addend: 0x0, symName: __ZN4stan4math21simplex_row_constrainINS0_9var_valueIN5Eigen6MatrixIdLin1ELin1ELi0ELin1ELin1EEEvEELPv0EEEDaRKT_.cold.2, symObjAddr: 0x327DC, symBinAddr: 0x10006328C, symSize: 0x24 }
  - { offsetInCU: 0x3689AD, offset: 0x3689AD, size: 0x8, addend: 0x0, symName: __ZN4stan4math9var_valueIN5Eigen6MatrixIdLin1ELin1ELi0ELin1ELin1EEEvEC1IRNS0_12arena_matrixIS4_EELPv0EEEOT_, symObjAddr: 0x1B714, symBinAddr: 0x10001C184, symSize: 0x6C }
  - { offsetInCU: 0x368A90, offset: 0x368A90, size: 0x8, addend: 0x0, symName: __ZN4stan4math21simplex_row_constrainINS0_9var_valueIN5Eigen6MatrixIdLin1ELin1ELi0ELin1ELin1EEEvEELPv0EEEDaRKT_.cold.3, symObjAddr: 0x32800, symBinAddr: 0x1000632B0, symSize: 0x24 }
  - { offsetInCU: 0x368B12, offset: 0x368B12, size: 0x8, addend: 0x0, symName: __ZN4stan4math10vari_valueIN5Eigen6MatrixIdLin1ELin1ELi0ELin1ELin1EEEvEC2INS0_12arena_matrixIS4_EELPv0EEERKT_b.cold.1, symObjAddr: 0x32824, symBinAddr: 0x1000632D4, symSize: 0x24 }
  - { offsetInCU: 0x368B95, offset: 0x368B95, size: 0x8, addend: 0x0, symName: __ZN4stan4math10vari_valueIN5Eigen6MatrixIdLin1ELin1ELi0ELin1ELin1EEEvEC2INS0_12arena_matrixIS4_EELPv0EEERKT_b.cold.2, symObjAddr: 0x32848, symBinAddr: 0x1000632F8, symSize: 0x24 }
  - { offsetInCU: 0x368C18, offset: 0x368C18, size: 0x8, addend: 0x0, symName: __ZN4stan4math10vari_valueIN5Eigen6MatrixIdLin1ELin1ELi0ELin1ELin1EEEvEC2INS0_12arena_matrixIS4_EELPv0EEERKT_b.cold.3, symObjAddr: 0x3286C, symBinAddr: 0x10006331C, symSize: 0x24 }
  - { offsetInCU: 0x368CFF, offset: 0x368CFF, size: 0x8, addend: 0x0, symName: __ZN4stan4math8internal26reverse_pass_callback_variIZNS0_21simplex_row_constrainINS0_9var_valueIN5Eigen6MatrixIdLin1ELin1ELi0ELin1ELin1EEEvEELPv0EEEDaRKT_EUlvE_EC2EOSE_.cold.1, symObjAddr: 0x32890, symBinAddr: 0x100063340, symSize: 0x24 }
  - { offsetInCU: 0x368E47, offset: 0x368E47, size: 0x8, addend: 0x0, symName: __ZN4stan4math8internal26reverse_pass_callback_variIZNS0_21simplex_row_constrainINS0_9var_valueIN5Eigen6MatrixIdLin1ELin1ELi0ELin1ELin1EEEvEELPv0EEEDaRKT_EUlvE_E5chainEv, symObjAddr: 0x1BB7C, symBinAddr: 0x10001C5EC, symSize: 0x128 }
  - { offsetInCU: 0x368FA8, offset: 0x368FA8, size: 0x8, addend: 0x0, symName: __ZN4stan4math8internal26reverse_pass_callback_variIZNS0_21simplex_row_constrainINS0_9var_valueIN5Eigen6MatrixIdLin1ELin1ELi0ELin1ELin1EEEvEELPv0EEEDaRKT_EUlvE_E16set_zero_adjointEv, symObjAddr: 0x1BCA4, symBinAddr: 0x10001C714, symSize: 0x4 }
  - { offsetInCU: 0x3695D5, offset: 0x3695D5, size: 0x8, addend: 0x0, symName: __ZN5Eigen8internal17resize_if_allowedINS_6MatrixIdLin1ELin1ELi0ELin1ELin1EEENS_3MapIS3_Li0ENS_6StrideILi0ELi0EEEEEddEEvRT_RKT0_RKNS0_9assign_opIT1_T2_EE.cold.1, symObjAddr: 0x328B4, symBinAddr: 0x100063364, symSize: 0x24 }
  - { offsetInCU: 0x3695ED, offset: 0x3695ED, size: 0x8, addend: 0x0, symName: __ZN5Eigen8internal17resize_if_allowedINS_6MatrixIdLin1ELin1ELi0ELin1ELin1EEENS_3MapIS3_Li0ENS_6StrideILi0ELi0EEEEEddEEvRT_RKT0_RKNS0_9assign_opIT1_T2_EE.cold.2, symObjAddr: 0x328D8, symBinAddr: 0x100063388, symSize: 0x24 }
  - { offsetInCU: 0x36961B, offset: 0x36961B, size: 0x8, addend: 0x0, symName: __ZN5Eigen8internal17resize_if_allowedINS_6MatrixIdLin1ELin1ELi0ELin1ELin1EEENS_12CwiseUnaryOpIZZN4stan4math8value_ofIRNS2_INS6_9var_valueIdvEELin1ELin1ELi0ELin1ELin1EEELPv0ELSC_0EEEDaOT_ENKUlRSE_E_clISA_EESD_SG_EUlRKSE_E_KSA_EEddEEvSG_RKT0_RKNS0_9assign_opIT1_T2_EE.cold.1, symObjAddr: 0x328FC, symBinAddr: 0x1000633AC, symSize: 0x24 }
  - { offsetInCU: 0x369633, offset: 0x369633, size: 0x8, addend: 0x0, symName: __ZN5Eigen8internal17resize_if_allowedINS_6MatrixIdLin1ELin1ELi0ELin1ELin1EEENS_12CwiseUnaryOpIZZN4stan4math8value_ofIRNS2_INS6_9var_valueIdvEELin1ELin1ELi0ELin1ELin1EEELPv0ELSC_0EEEDaOT_ENKUlRSE_E_clISA_EESD_SG_EUlRKSE_E_KSA_EEddEEvSG_RKT0_RKNS0_9assign_opIT1_T2_EE.cold.2, symObjAddr: 0x32920, symBinAddr: 0x1000633D0, symSize: 0x24 }
  - { offsetInCU: 0x369EA3, offset: 0x369EA3, size: 0x8, addend: 0x0, symName: __ZN5Eigen8internal17resize_if_allowedINS_6MatrixIdLin1ELin1ELi0ELin1ELin1EEENS_12CwiseUnaryOpINS_10MatrixBaseINS2_IN4stan4math9var_valueIdvEELin1ELin1ELi0ELin1ELin1EEEE6val_OpEKSA_EEddEEvRT_RKT0_RKNS0_9assign_opIT1_T2_EE.cold.1, symObjAddr: 0x32944, symBinAddr: 0x1000633F4, symSize: 0x24 }
  - { offsetInCU: 0x369EBB, offset: 0x369EBB, size: 0x8, addend: 0x0, symName: __ZN5Eigen8internal17resize_if_allowedINS_6MatrixIdLin1ELin1ELi0ELin1ELin1EEENS_12CwiseUnaryOpINS_10MatrixBaseINS2_IN4stan4math9var_valueIdvEELin1ELin1ELi0ELin1ELin1EEEE6val_OpEKSA_EEddEEvRT_RKT0_RKNS0_9assign_opIT1_T2_EE.cold.2, symObjAddr: 0x32968, symBinAddr: 0x100063418, symSize: 0x24 }
  - { offsetInCU: 0x369EE9, offset: 0x369EE9, size: 0x8, addend: 0x0, symName: __ZN5Eigen8internal17resize_if_allowedINS_6MatrixIdLin1ELin1ELi0ELin1ELin1EEENS_12CwiseUnaryOpINS_10MatrixBaseINS2_IN4stan4math9var_valueIdvEELin1ELin1ELi0ELin1ELin1EEEE6adj_OpEKSA_EEddEEvRT_RKT0_RKNS0_9assign_opIT1_T2_EE.cold.1, symObjAddr: 0x3298C, symBinAddr: 0x10006343C, symSize: 0x24 }
  - { offsetInCU: 0x369F01, offset: 0x369F01, size: 0x8, addend: 0x0, symName: __ZN5Eigen8internal17resize_if_allowedINS_6MatrixIdLin1ELin1ELi0ELin1ELin1EEENS_12CwiseUnaryOpINS_10MatrixBaseINS2_IN4stan4math9var_valueIdvEELin1ELin1ELi0ELin1ELin1EEEE6adj_OpEKSA_EEddEEvRT_RKT0_RKNS0_9assign_opIT1_T2_EE.cold.2, symObjAddr: 0x329B0, symBinAddr: 0x100063460, symSize: 0x24 }
  - { offsetInCU: 0x36A09F, offset: 0x36A09F, size: 0x8, addend: 0x0, symName: __ZZN4stan4test8internal11expect_ad_vIZN26simplex_row_constrain_test24expect_simplex_transformIN5Eigen6MatrixIdLin1ELin1ELi0ELin1ELin1EEEEEvRKT_EUlSA_E0_S7_EEvRKNS0_13ad_tolerancesESA_RKT0_ENKUlSA_E_clINS6_IdLin1ELi1ELi0ELin1ELi1EEEEEDaSA_, symObjAddr: 0x1EDA4, symBinAddr: 0x10001F814, symSize: 0x158 }
  - { offsetInCU: 0x36C039, offset: 0x36C039, size: 0x8, addend: 0x0, symName: __ZN5Eigen8internal10redux_implINS0_13scalar_sum_opIddEENS0_15redux_evaluatorINS_12CwiseUnaryOpINS0_13scalar_log_opIdEEKNS_5ArrayIdLin1ELi1ELi0ELin1ELi1EEEEEEELi3ELi0EE3runISB_EEdRKSC_RKS3_RKT_, symObjAddr: 0x1F8C0, symBinAddr: 0x100020330, symSize: 0x994 }
  - { offsetInCU: 0x36E2AE, offset: 0x36E2AE, size: 0x8, addend: 0x0, symName: __ZN5Eigen8internal10redux_implINS0_13scalar_sum_opIddEENS0_15redux_evaluatorINS_12CwiseUnaryOpIZN4stan4math18apply_scalar_unaryINS7_13log1p_exp_funENS5_INS0_18scalar_opposite_opIdEEKNS_5ArrayIdLin1ELi1ELi0ELin1ELi1EEEEEvE5applyERKSF_EUlOT_E_SH_EEEELi0ELi0EE3runISM_EEdRKSN_RKS3_RKSJ_, symObjAddr: 0x20254, symBinAddr: 0x100020CC4, symSize: 0x1FC }
  - { offsetInCU: 0x36E76F, offset: 0x36E76F, size: 0x8, addend: 0x0, symName: __ZN5Eigen8internal10redux_implINS0_13scalar_sum_opIddEENS0_15redux_evaluatorINS_12CwiseUnaryOpIZN4stan4math18apply_scalar_unaryINS7_13log1p_exp_funENS_5ArrayIdLin1ELi1ELi0ELin1ELi1EEEvE5applyERKSB_EUlOT_E_SD_EEEELi0ELi0EE3runISI_EEdRKSJ_RKS3_RKSF_, symObjAddr: 0x20840, symBinAddr: 0x10002110C, symSize: 0x1FC }
  - { offsetInCU: 0x36EB7F, offset: 0x36EB7F, size: 0x8, addend: 0x0, symName: __ZN4stan4math21simplex_row_constrainIN5Eigen6MatrixIdLin1ELin1ELi0ELin1ELin1EEELPv0ELS5_0EEEDaRKT_RNS_10value_typeIS7_vE4typeE.cold.1, symObjAddr: 0x329D4, symBinAddr: 0x100063484, symSize: 0x24 }
  - { offsetInCU: 0x36EEF3, offset: 0x36EEF3, size: 0x8, addend: 0x0, symName: __ZZN4stan4math22check_greater_or_equalIddLPv0EJEEEvPKcS4_RKT_RKT0_DpT2_ENKUlS5_S8_T1_T2_DpT3_E_clIddS4_S4_JEEEDaS5_S8_SD_SE_SG_, symObjAddr: 0x20450, symBinAddr: 0x100062910, symSize: 0x1A4 }
  - { offsetInCU: 0x36FBDB, offset: 0x36FBDB, size: 0x8, addend: 0x0, symName: __ZN5Eigen8internal10redux_implINS0_13scalar_sum_opIddEENS0_15redux_evaluatorINS_12CwiseUnaryOpIZN4stan4math18apply_scalar_unaryINS7_13log1p_exp_funENS5_INS0_18scalar_opposite_opIdEEKNS_5ArrayIdLin1ELi1ELi0ELin1ELi1EEEEEvE5applyERKSF_EUlOT_E_SH_EEEELi0ELi0EE3runISM_EEdRKSN_RKS3_RKSJ_.cold.1, symObjAddr: 0x329F8, symBinAddr: 0x1000634A8, symSize: 0x28 }
  - { offsetInCU: 0x36FDD2, offset: 0x36FDD2, size: 0x8, addend: 0x0, symName: __ZN5Eigen8internal10redux_implINS0_13scalar_sum_opIddEENS0_15redux_evaluatorINS_12CwiseUnaryOpIZN4stan4math18apply_scalar_unaryINS7_13log1p_exp_funENS_5ArrayIdLin1ELi1ELi0ELin1ELi1EEEvE5applyERKSB_EUlOT_E_SD_EEEELi0ELi0EE3runISI_EEdRKSJ_RKS3_RKSF_.cold.1, symObjAddr: 0x32A20, symBinAddr: 0x1000634D0, symSize: 0x28 }
  - { offsetInCU: 0x36FE19, offset: 0x36FE19, size: 0x8, addend: 0x0, symName: __ZZN4stan4test8internal11expect_ad_vIZN26simplex_row_constrain_test24expect_simplex_transformIN5Eigen6MatrixIdLin1ELin1ELi0ELin1ELin1EEEEEvRKT_EUlSA_E0_S7_EEvRKNS0_13ad_tolerancesESA_RKT0_ENKUlSA_E_clINS6_INS_4math9var_valueIdvEELin1ELi1ELi0ELin1ELi1EEEEEDaSA_, symObjAddr: 0x21C4C, symBinAddr: 0x100022518, symSize: 0x178 }
  - { offsetInCU: 0x370D20, offset: 0x370D20, size: 0x8, addend: 0x0, symName: __ZZN4stan4test8internal11expect_ad_vIZN26simplex_row_constrain_test24expect_simplex_transformIN5Eigen6MatrixIdLin1ELin1ELi0ELin1ELin1EEEEEvRKT_EUlSA_E0_S7_EEvRKNS0_13ad_tolerancesESA_RKT0_ENKUlSA_E_clINS6_INS_4math4fvarIdEELin1ELi1ELi0ELin1ELi1EEEEEDaSA_, symObjAddr: 0x22DB0, symBinAddr: 0x10002367C, symSize: 0x128 }
  - { offsetInCU: 0x371C83, offset: 0x371C83, size: 0x8, addend: 0x0, symName: __ZZN4stan4test8internal11expect_ad_vIZN26simplex_row_constrain_test24expect_simplex_transformIN5Eigen6MatrixIdLin1ELin1ELi0ELin1ELin1EEEEEvRKT_EUlSA_E0_S7_EEvRKNS0_13ad_tolerancesESA_RKT0_ENKUlSA_E_clINS6_INS_4math4fvarINSL_IdEEEELin1ELi1ELi0ELin1ELi1EEEEEDaSA_, symObjAddr: 0x23D64, symBinAddr: 0x100024630, symSize: 0x12C }
  - { offsetInCU: 0x372C06, offset: 0x372C06, size: 0x8, addend: 0x0, symName: __ZZN4stan4test8internal11expect_ad_vIZN26simplex_row_constrain_test24expect_simplex_transformIN5Eigen6MatrixIdLin1ELin1ELi0ELin1ELin1EEEEEvRKT_EUlSA_E0_S7_EEvRKNS0_13ad_tolerancesESA_RKT0_ENKUlSA_E_clINS6_INS_4math4fvarINSK_9var_valueIdvEEEELin1ELi1ELi0ELin1ELi1EEEEEDaSA_, symObjAddr: 0x24F10, symBinAddr: 0x1000257DC, symSize: 0x134 }
  - { offsetInCU: 0x373B48, offset: 0x373B48, size: 0x8, addend: 0x0, symName: __ZZN4stan4test8internal11expect_ad_vIZN26simplex_row_constrain_test24expect_simplex_transformIN5Eigen6MatrixIdLin1ELin1ELi0ELin1ELin1EEEEEvRKT_EUlSA_E0_S7_EEvRKNS0_13ad_tolerancesESA_RKT0_ENKUlSA_E_clINS6_INS_4math4fvarINSL_INSK_9var_valueIdvEEEEEELin1ELi1ELi0ELin1ELi1EEEEEDaSA_, symObjAddr: 0x265A4, symBinAddr: 0x100026E70, symSize: 0x1A0 }
  - { offsetInCU: 0x3750D4, offset: 0x3750D4, size: 0x8, addend: 0x0, symName: __ZN5Eigen15PlainObjectBaseINS_5ArrayIdLin1ELi1ELi0ELin1ELi1EEEEC2INS_13CwiseBinaryOpINS_8internal20scalar_difference_opIddEEKNS_12ArrayWrapperINS_5BlockINS_12CwiseUnaryOpINS_10MatrixBaseINS_3MapINS_6MatrixIN4stan4math9var_valueIdvEELin1ELin1ELi0ELin1ELin1EEELi0ENS_6StrideILi0ELi0EEEEEE6val_OpESM_EELin1ELi1ELb1EEEEEKNS_14CwiseNullaryOpINS6_18scalar_constant_opIdEEKS2_EEEEEERKNS_9DenseBaseIT_EE, symObjAddr: 0x228A0, symBinAddr: 0x10002316C, symSize: 0x150 }
  - { offsetInCU: 0x375A68, offset: 0x375A68, size: 0x8, addend: 0x0, symName: __ZN4stan4math8internal26reverse_pass_callback_variIZNS0_21simplex_row_constrainIN5Eigen6MatrixINS0_9var_valueIdvEELin1ELin1ELi0ELin1ELin1EEELPv0EEEDaRKT_RNS_11scalar_typeISB_vE4typeEEUlvE_EC2EOSI_, symObjAddr: 0x22A08, symBinAddr: 0x1000232D4, symSize: 0x164 }
  - { offsetInCU: 0x3763C1, offset: 0x3763C1, size: 0x8, addend: 0x0, symName: __ZN4stan4math8internal26reverse_pass_callback_variIZNS0_21simplex_row_constrainIN5Eigen6MatrixINS0_9var_valueIdvEELin1ELin1ELi0ELin1ELin1EEELPv0EEEDaRKT_RNS_11scalar_typeISB_vE4typeEEUlvE_E5chainEv, symObjAddr: 0x22B6C, symBinAddr: 0x100023438, symSize: 0x8 }
  - { offsetInCU: 0x3763CC, offset: 0x3763CC, size: 0x8, addend: 0x0, symName: __ZN4stan4math21simplex_row_constrainIN5Eigen6MatrixINS0_9var_valueIdvEELin1ELin1ELi0ELin1ELin1EEELPv0EEEDaRKT_RNS_11scalar_typeIS9_vE4typeE.cold.1, symObjAddr: 0x32A48, symBinAddr: 0x1000634F8, symSize: 0x24 }
  - { offsetInCU: 0x37644E, offset: 0x37644E, size: 0x8, addend: 0x0, symName: __ZN4stan4math21simplex_row_constrainIN5Eigen6MatrixINS0_9var_valueIdvEELin1ELin1ELi0ELin1ELin1EEELPv0EEEDaRKT_RNS_11scalar_typeIS9_vE4typeE.cold.2, symObjAddr: 0x32A6C, symBinAddr: 0x10006351C, symSize: 0x24 }
  - { offsetInCU: 0x3764D0, offset: 0x3764D0, size: 0x8, addend: 0x0, symName: __ZN4stan4math21simplex_row_constrainIN5Eigen6MatrixINS0_9var_valueIdvEELin1ELin1ELi0ELin1ELin1EEELPv0EEEDaRKT_RNS_11scalar_typeIS9_vE4typeE.cold.3, symObjAddr: 0x32A90, symBinAddr: 0x100063540, symSize: 0x24 }
  - { offsetInCU: 0x376A0E, offset: 0x376A0E, size: 0x8, addend: 0x0, symName: __ZN4stan4math8internal13callback_variIdZNS0_plIdLPv0EEENS0_9var_valueIdvEERKS6_T_EUlRKS9_E_E5chainEv, symObjAddr: 0x229F0, symBinAddr: 0x1000232BC, symSize: 0x18 }
  - { offsetInCU: 0x376A35, offset: 0x376A35, size: 0x8, addend: 0x0, symName: __ZN4stan4math8internal13callback_variIdZNS0_plIdLPv0EEENS0_9var_valueIdvEERKS6_T_EUlRKS9_E_E5chainEv, symObjAddr: 0x229F0, symBinAddr: 0x1000232BC, symSize: 0x18 }
  - { offsetInCU: 0x376AA7, offset: 0x376AA7, size: 0x8, addend: 0x0, symName: __ZN4stan4math8internal26reverse_pass_callback_variIZNS0_21simplex_row_constrainIN5Eigen6MatrixINS0_9var_valueIdvEELin1ELin1ELi0ELin1ELin1EEELPv0EEEDaRKT_RNS_11scalar_typeISB_vE4typeEEUlvE_EC2EOSI_.cold.1, symObjAddr: 0x32AB4, symBinAddr: 0x100063564, symSize: 0x24 }
  - { offsetInCU: 0x376B54, offset: 0x376B54, size: 0x8, addend: 0x0, symName: __ZN4stan4math8internal26reverse_pass_callback_variIZNS0_21simplex_row_constrainIN5Eigen6MatrixINS0_9var_valueIdvEELin1ELin1ELi0ELin1ELin1EEELPv0EEEDaRKT_RNS_11scalar_typeISB_vE4typeEEUlvE_EC2EOSI_.cold.2, symObjAddr: 0x32AD8, symBinAddr: 0x100063588, symSize: 0x24 }
  - { offsetInCU: 0x376C01, offset: 0x376C01, size: 0x8, addend: 0x0, symName: __ZN4stan4math8internal26reverse_pass_callback_variIZNS0_21simplex_row_constrainIN5Eigen6MatrixINS0_9var_valueIdvEELin1ELin1ELi0ELin1ELin1EEELPv0EEEDaRKT_RNS_11scalar_typeISB_vE4typeEEUlvE_EC2EOSI_.cold.3, symObjAddr: 0x32AFC, symBinAddr: 0x1000635AC, symSize: 0x24 }
  - { offsetInCU: 0x376CAE, offset: 0x376CAE, size: 0x8, addend: 0x0, symName: __ZN4stan4math8internal26reverse_pass_callback_variIZNS0_21simplex_row_constrainIN5Eigen6MatrixINS0_9var_valueIdvEELin1ELin1ELi0ELin1ELin1EEELPv0EEEDaRKT_RNS_11scalar_typeISB_vE4typeEEUlvE_E5chainEv, symObjAddr: 0x22B6C, symBinAddr: 0x100023438, symSize: 0x8 }
  - { offsetInCU: 0x376CD8, offset: 0x376CD8, size: 0x8, addend: 0x0, symName: __ZN4stan4math8internal26reverse_pass_callback_variIZNS0_21simplex_row_constrainIN5Eigen6MatrixINS0_9var_valueIdvEELin1ELin1ELi0ELin1ELin1EEELPv0EEEDaRKT_RNS_11scalar_typeISB_vE4typeEEUlvE_E16set_zero_adjointEv, symObjAddr: 0x22B74, symBinAddr: 0x100023440, symSize: 0x4 }
  - { offsetInCU: 0x376CE3, offset: 0x376CE3, size: 0x8, addend: 0x0, symName: __ZZN4stan4math21simplex_row_constrainIN5Eigen6MatrixINS0_9var_valueIdvEELin1ELin1ELi0ELin1ELin1EEELPv0EEEDaRKT_RNS_11scalar_typeIS9_vE4typeEENUlvE_clEv, symObjAddr: 0x22B78, symBinAddr: 0x100023444, symSize: 0x238 }
  - { offsetInCU: 0x377686, offset: 0x377686, size: 0x8, addend: 0x0, symName: __ZN4stan4math8internal26reverse_pass_callback_variIZNS0_21simplex_row_constrainIN5Eigen6MatrixINS0_9var_valueIdvEELin1ELin1ELi0ELin1ELin1EEELPv0EEEDaRKT_RNS_11scalar_typeISB_vE4typeEEUlvE_E16set_zero_adjointEv, symObjAddr: 0x22B74, symBinAddr: 0x100023440, symSize: 0x4 }
  - { offsetInCU: 0x377E91, offset: 0x377E91, size: 0x8, addend: 0x0, symName: __ZN4stan4math21simplex_row_constrainIN5Eigen6MatrixINS0_4fvarIdEELin1ELin1ELi0ELin1ELin1EEELPv0ELS7_0EEEDaRKT_RNS_10value_typeIS9_vE4typeE.cold.1, symObjAddr: 0x32B20, symBinAddr: 0x1000635D0, symSize: 0x24 }
  - { offsetInCU: 0x378727, offset: 0x378727, size: 0x8, addend: 0x0, symName: __ZN5Eigen3RefIKNS_5ArrayIN4stan4math4fvarIdEELin1ELi1ELi0ELin1ELi1EEELi0ENS_11InnerStrideILi1EEEE9constructINS_12CwiseUnaryOpIZNS3_18apply_scalar_unaryINS3_7log_funES6_vE5applyERS7_EUlOT_E_S7_EEEEvRKSH_NS_8internal10false_typeE, symObjAddr: 0x2388C, symBinAddr: 0x100024158, symSize: 0xE4 }
  - { offsetInCU: 0x378CD3, offset: 0x378CD3, size: 0x8, addend: 0x0, symName: __ZN5Eigen8internal26call_dense_assignment_loopINS_5ArrayIN4stan4math4fvarIdEELin1ELi1ELi0ELin1ELi1EEENS_12CwiseUnaryOpIZNS4_18apply_scalar_unaryINS4_13log1p_exp_funENS8_INS0_18scalar_opposite_opIS6_EEKS7_EEvE5applyERKSE_EUlOT_E_SG_EENS0_9assign_opIS6_S6_EEEEvRSI_RKT0_RKT1_, symObjAddr: 0x23970, symBinAddr: 0x10002423C, symSize: 0x1C0 }
  - { offsetInCU: 0x378FDE, offset: 0x378FDE, size: 0x8, addend: 0x0, symName: __ZN5Eigen3RefIKNS_5ArrayIN4stan4math4fvarIdEELin1ELi1ELi0ELin1ELi1EEELi0ENS_11InnerStrideILi1EEEE9constructINS_12CwiseUnaryOpIZNS3_18apply_scalar_unaryINS3_13log1p_exp_funES6_vE5applyERS7_EUlOT_E_S7_EEEEvRKSH_NS_8internal10false_typeE, symObjAddr: 0x23B30, symBinAddr: 0x1000243FC, symSize: 0xD8 }
  - { offsetInCU: 0x379717, offset: 0x379717, size: 0x8, addend: 0x0, symName: __ZN5Eigen8internal31generic_dense_assignment_kernelINS0_9evaluatorINS_5ArrayIN4stan4math4fvarIdEELin1ELi1ELi0ELin1ELi1EEEEENS2_INS_12CwiseUnaryOpIZNS5_18apply_scalar_unaryINS5_13log1p_exp_funES8_vE5applyERKS8_EUlOT_E_SE_EEEENS0_9assign_opIS7_S7_EELi0EE11assignCoeffEl, symObjAddr: 0x23C08, symBinAddr: 0x1000244D4, symSize: 0x15C }
  - { offsetInCU: 0x379A66, offset: 0x379A66, size: 0x8, addend: 0x0, symName: __ZN5Eigen3RefIKNS_5ArrayIN4stan4math4fvarIdEELin1ELi1ELi0ELin1ELi1EEELi0ENS_11InnerStrideILi1EEEE9constructINS_12CwiseUnaryOpIZNS3_18apply_scalar_unaryINS3_7log_funES6_vE5applyERS7_EUlOT_E_S7_EEEEvRKSH_NS_8internal10false_typeE.cold.2, symObjAddr: 0x32B68, symBinAddr: 0x100063618, symSize: 0x24 }
  - { offsetInCU: 0x379AD6, offset: 0x379AD6, size: 0x8, addend: 0x0, symName: __ZN5Eigen3RefIKNS_5ArrayIN4stan4math4fvarIdEELin1ELi1ELi0ELin1ELi1EEELi0ENS_11InnerStrideILi1EEEE9constructINS_12CwiseUnaryOpIZNS3_18apply_scalar_unaryINS3_7log_funES6_vE5applyERS7_EUlOT_E_S7_EEEEvRKSH_NS_8internal10false_typeE.cold.3, symObjAddr: 0x32B8C, symBinAddr: 0x10006363C, symSize: 0x24 }
  - { offsetInCU: 0x379B5C, offset: 0x379B5C, size: 0x8, addend: 0x0, symName: __ZN5Eigen3RefIKNS_5ArrayIN4stan4math4fvarIdEELin1ELi1ELi0ELin1ELi1EEELi0ENS_11InnerStrideILi1EEEE9constructINS_12CwiseUnaryOpIZNS3_18apply_scalar_unaryINS3_7log_funES6_vE5applyERS7_EUlOT_E_S7_EEEEvRKSH_NS_8internal10false_typeE.cold.1, symObjAddr: 0x32B44, symBinAddr: 0x1000635F4, symSize: 0x24 }
  - { offsetInCU: 0x379F90, offset: 0x379F90, size: 0x8, addend: 0x0, symName: __ZN5Eigen8internal26call_dense_assignment_loopINS_5ArrayIN4stan4math4fvarIdEELin1ELi1ELi0ELin1ELi1EEENS_12CwiseUnaryOpIZNS4_18apply_scalar_unaryINS4_13log1p_exp_funENS8_INS0_18scalar_opposite_opIS6_EEKS7_EEvE5applyERKSE_EUlOT_E_SG_EENS0_9assign_opIS6_S6_EEEEvRSI_RKT0_RKT1_.cold.1, symObjAddr: 0x32BB0, symBinAddr: 0x100063660, symSize: 0x24 }
  - { offsetInCU: 0x379FBE, offset: 0x379FBE, size: 0x8, addend: 0x0, symName: __ZN5Eigen8internal26call_dense_assignment_loopINS_5ArrayIN4stan4math4fvarIdEELin1ELi1ELi0ELin1ELi1EEENS_12CwiseUnaryOpIZNS4_18apply_scalar_unaryINS4_13log1p_exp_funENS8_INS0_18scalar_opposite_opIS6_EEKS7_EEvE5applyERKSE_EUlOT_E_SG_EENS0_9assign_opIS6_S6_EEEEvRSI_RKT0_RKT1_.cold.2, symObjAddr: 0x32BD4, symBinAddr: 0x100063684, symSize: 0x24 }
  - { offsetInCU: 0x37A2E3, offset: 0x37A2E3, size: 0x8, addend: 0x0, symName: __ZN5Eigen8internal31generic_dense_assignment_kernelINS0_9evaluatorINS_5ArrayIN4stan4math4fvarIdEELin1ELi1ELi0ELin1ELi1EEEEENS2_INS_12CwiseUnaryOpIZNS5_18apply_scalar_unaryINS5_13log1p_exp_funES8_vE5applyERKS8_EUlOT_E_SE_EEEENS0_9assign_opIS7_S7_EELi0EE11assignCoeffEl, symObjAddr: 0x23C08, symBinAddr: 0x1000244D4, symSize: 0x15C }
  - { offsetInCU: 0x37A502, offset: 0x37A502, size: 0x8, addend: 0x0, symName: __ZN5Eigen3RefIKNS_5ArrayIN4stan4math4fvarIdEELin1ELi1ELi0ELin1ELi1EEELi0ENS_11InnerStrideILi1EEEE9constructINS_12CwiseUnaryOpIZNS3_18apply_scalar_unaryINS3_13log1p_exp_funES6_vE5applyERS7_EUlOT_E_S7_EEEEvRKSH_NS_8internal10false_typeE.cold.2, symObjAddr: 0x32C1C, symBinAddr: 0x1000636CC, symSize: 0x24 }
  - { offsetInCU: 0x37A572, offset: 0x37A572, size: 0x8, addend: 0x0, symName: __ZN5Eigen3RefIKNS_5ArrayIN4stan4math4fvarIdEELin1ELi1ELi0ELin1ELi1EEELi0ENS_11InnerStrideILi1EEEE9constructINS_12CwiseUnaryOpIZNS3_18apply_scalar_unaryINS3_13log1p_exp_funES6_vE5applyERS7_EUlOT_E_S7_EEEEvRKSH_NS_8internal10false_typeE.cold.3, symObjAddr: 0x32C40, symBinAddr: 0x1000636F0, symSize: 0x24 }
  - { offsetInCU: 0x37A5F8, offset: 0x37A5F8, size: 0x8, addend: 0x0, symName: __ZN5Eigen3RefIKNS_5ArrayIN4stan4math4fvarIdEELin1ELi1ELi0ELin1ELi1EEELi0ENS_11InnerStrideILi1EEEE9constructINS_12CwiseUnaryOpIZNS3_18apply_scalar_unaryINS3_13log1p_exp_funES6_vE5applyERS7_EUlOT_E_S7_EEEEvRKSH_NS_8internal10false_typeE.cold.1, symObjAddr: 0x32BF8, symBinAddr: 0x1000636A8, symSize: 0x24 }
  - { offsetInCU: 0x37B157, offset: 0x37B157, size: 0x8, addend: 0x0, symName: __ZN5Eigen3RefIKNS_5ArrayIN4stan4math4fvarINS4_IdEEEELin1ELi1ELi0ELin1ELi1EEELi0ENS_11InnerStrideILi1EEEE9constructINS_12CwiseUnaryOpIZNS3_18apply_scalar_unaryINS3_13log1p_exp_funES7_vE5applyERS8_EUlOT_E_S8_EEEEvRKSI_NS_8internal10false_typeE, symObjAddr: 0x24E54, symBinAddr: 0x100025720, symSize: 0xBC }
  - { offsetInCU: 0x37B758, offset: 0x37B758, size: 0x8, addend: 0x0, symName: __ZZN4stan4test8internal11expect_ad_vIZN26simplex_row_constrain_test24expect_simplex_transformIN5Eigen6MatrixIdLin1ELin1ELi0ELin1ELin1EEEEEvRKT_EUlSA_E0_S7_EEvRKNS0_13ad_tolerancesESA_RKT0_ENKUlSA_E_clINS6_INS_4math4fvarINSK_9var_valueIdvEEEELin1ELi1ELi0ELin1ELi1EEEEEDaSA_, symObjAddr: 0x24F10, symBinAddr: 0x1000257DC, symSize: 0x134 }
  - { offsetInCU: 0x37B76C, offset: 0x37B76C, size: 0x8, addend: 0x0, symName: __ZN4stan4math21simplex_row_constrainIN5Eigen6MatrixINS0_4fvarINS4_IdEEEELin1ELin1ELi0ELin1ELin1EEELPv0ELS8_0EEEDaRKT_RNS_10value_typeISA_vE4typeE.cold.1, symObjAddr: 0x32C64, symBinAddr: 0x100063714, symSize: 0x24 }
  - { offsetInCU: 0x37BF03, offset: 0x37BF03, size: 0x8, addend: 0x0, symName: __ZN5Eigen3RefIKNS_5ArrayIN4stan4math4fvarIdEELin1ELi1ELi0ELin1ELi1EEELi0ENS_11InnerStrideILi1EEEE9constructINS_12CwiseUnaryOpINS_9ArrayBaseINS0_IKNS1_INS4_IS5_EELin1ELi1ELi0ELin1ELi1EEELi0ES9_EEE6val_OpEKSH_EEEEvRKT_NS_8internal10false_typeE, symObjAddr: 0x249EC, symBinAddr: 0x1000252B8, symSize: 0xB0 }
  - { offsetInCU: 0x37C47A, offset: 0x37C47A, size: 0x8, addend: 0x0, symName: __ZN5Eigen3RefIKNS_5ArrayIN4stan4math4fvarIdEELin1ELi1ELi0ELin1ELi1EEELi0ENS_11InnerStrideILi1EEEE9constructINS_12CwiseUnaryOpINS_9ArrayBaseINS0_IKNS1_INS4_IS5_EELin1ELi1ELi0ELin1ELi1EEELi0ES9_EEE4d_OpEKSH_EEEEvRKT_NS_8internal10false_typeE, symObjAddr: 0x24A9C, symBinAddr: 0x100025368, symSize: 0xB0 }
  - { offsetInCU: 0x37C54A, offset: 0x37C54A, size: 0x8, addend: 0x0, symName: __ZN5Eigen3RefIKNS_5ArrayIN4stan4math4fvarIdEELin1ELi1ELi0ELin1ELi1EEELi0ENS_11InnerStrideILi1EEEE9constructINS_12CwiseUnaryOpINS_9ArrayBaseINS0_IKNS1_INS4_IS5_EELin1ELi1ELi0ELin1ELi1EEELi0ES9_EEE4d_OpEKSH_EEEEvRKT_NS_8internal10false_typeE, symObjAddr: 0x24A9C, symBinAddr: 0x100025368, symSize: 0xB0 }
  - { offsetInCU: 0x37CAC1, offset: 0x37CAC1, size: 0x8, addend: 0x0, symName: __ZN5Eigen8internal26call_dense_assignment_loopINS_5ArrayIN4stan4math4fvarINS5_IdEEEELin1ELi1ELi0ELin1ELi1EEENS_12CwiseUnaryOpIZNS4_18apply_scalar_unaryINS4_13log1p_exp_funENS9_INS0_18scalar_opposite_opIS7_EEKS8_EEvE5applyERKSF_EUlOT_E_SH_EENS0_9assign_opIS7_S7_EEEEvRSJ_RKT0_RKT1_, symObjAddr: 0x24B4C, symBinAddr: 0x100025418, symSize: 0xD0 }
  - { offsetInCU: 0x37CDDD, offset: 0x37CDDD, size: 0x8, addend: 0x0, symName: __ZN5Eigen3RefIKNS_5ArrayIN4stan4math4fvarIdEELin1ELi1ELi0ELin1ELi1EEELi0ENS_11InnerStrideILi1EEEE9constructINS_12CwiseUnaryOpINS_9ArrayBaseINS0_IKNS1_INS4_IS5_EELin1ELi1ELi0ELin1ELi1EEELi0ES9_EEE6val_OpEKSH_EEEEvRKT_NS_8internal10false_typeE.cold.2, symObjAddr: 0x32CAC, symBinAddr: 0x10006375C, symSize: 0x24 }
  - { offsetInCU: 0x37CE4D, offset: 0x37CE4D, size: 0x8, addend: 0x0, symName: __ZN5Eigen3RefIKNS_5ArrayIN4stan4math4fvarIdEELin1ELi1ELi0ELin1ELi1EEELi0ENS_11InnerStrideILi1EEEE9constructINS_12CwiseUnaryOpINS_9ArrayBaseINS0_IKNS1_INS4_IS5_EELin1ELi1ELi0ELin1ELi1EEELi0ES9_EEE6val_OpEKSH_EEEEvRKT_NS_8internal10false_typeE.cold.3, symObjAddr: 0x32CD0, symBinAddr: 0x100063780, symSize: 0x24 }
  - { offsetInCU: 0x37CED3, offset: 0x37CED3, size: 0x8, addend: 0x0, symName: __ZN5Eigen3RefIKNS_5ArrayIN4stan4math4fvarIdEELin1ELi1ELi0ELin1ELi1EEELi0ENS_11InnerStrideILi1EEEE9constructINS_12CwiseUnaryOpINS_9ArrayBaseINS0_IKNS1_INS4_IS5_EELin1ELi1ELi0ELin1ELi1EEELi0ES9_EEE6val_OpEKSH_EEEEvRKT_NS_8internal10false_typeE.cold.1, symObjAddr: 0x32C88, symBinAddr: 0x100063738, symSize: 0x24 }
  - { offsetInCU: 0x37D136, offset: 0x37D136, size: 0x8, addend: 0x0, symName: __ZN5Eigen3RefIKNS_5ArrayIN4stan4math4fvarIdEELin1ELi1ELi0ELin1ELi1EEELi0ENS_11InnerStrideILi1EEEE9constructINS_12CwiseUnaryOpINS_9ArrayBaseINS0_IKNS1_INS4_IS5_EELin1ELi1ELi0ELin1ELi1EEELi0ES9_EEE4d_OpEKSH_EEEEvRKT_NS_8internal10false_typeE.cold.2, symObjAddr: 0x32D18, symBinAddr: 0x1000637C8, symSize: 0x24 }
  - { offsetInCU: 0x37D1A6, offset: 0x37D1A6, size: 0x8, addend: 0x0, symName: __ZN5Eigen3RefIKNS_5ArrayIN4stan4math4fvarIdEELin1ELi1ELi0ELin1ELi1EEELi0ENS_11InnerStrideILi1EEEE9constructINS_12CwiseUnaryOpINS_9ArrayBaseINS0_IKNS1_INS4_IS5_EELin1ELi1ELi0ELin1ELi1EEELi0ES9_EEE4d_OpEKSH_EEEEvRKT_NS_8internal10false_typeE.cold.3, symObjAddr: 0x32D3C, symBinAddr: 0x1000637EC, symSize: 0x24 }
  - { offsetInCU: 0x37D22C, offset: 0x37D22C, size: 0x8, addend: 0x0, symName: __ZN5Eigen3RefIKNS_5ArrayIN4stan4math4fvarIdEELin1ELi1ELi0ELin1ELi1EEELi0ENS_11InnerStrideILi1EEEE9constructINS_12CwiseUnaryOpINS_9ArrayBaseINS0_IKNS1_INS4_IS5_EELin1ELi1ELi0ELin1ELi1EEELi0ES9_EEE4d_OpEKSH_EEEEvRKT_NS_8internal10false_typeE.cold.1, symObjAddr: 0x32CF4, symBinAddr: 0x1000637A4, symSize: 0x24 }
  - { offsetInCU: 0x37D660, offset: 0x37D660, size: 0x8, addend: 0x0, symName: __ZN5Eigen8internal26call_dense_assignment_loopINS_5ArrayIN4stan4math4fvarINS5_IdEEEELin1ELi1ELi0ELin1ELi1EEENS_12CwiseUnaryOpIZNS4_18apply_scalar_unaryINS4_13log1p_exp_funENS9_INS0_18scalar_opposite_opIS7_EEKS8_EEvE5applyERKSF_EUlOT_E_SH_EENS0_9assign_opIS7_S7_EEEEvRSJ_RKT0_RKT1_.cold.1, symObjAddr: 0x32D60, symBinAddr: 0x100063810, symSize: 0x24 }
  - { offsetInCU: 0x37D68E, offset: 0x37D68E, size: 0x8, addend: 0x0, symName: __ZN5Eigen8internal26call_dense_assignment_loopINS_5ArrayIN4stan4math4fvarINS5_IdEEEELin1ELi1ELi0ELin1ELi1EEENS_12CwiseUnaryOpIZNS4_18apply_scalar_unaryINS4_13log1p_exp_funENS9_INS0_18scalar_opposite_opIS7_EEKS8_EEvE5applyERKSF_EUlOT_E_SH_EENS0_9assign_opIS7_S7_EEEEvRSJ_RKT0_RKT1_.cold.2, symObjAddr: 0x32D84, symBinAddr: 0x100063834, symSize: 0x24 }
  - { offsetInCU: 0x37D917, offset: 0x37D917, size: 0x8, addend: 0x0, symName: __ZN5Eigen3RefIKNS_5ArrayIN4stan4math4fvarINS4_IdEEEELin1ELi1ELi0ELin1ELi1EEELi0ENS_11InnerStrideILi1EEEE9constructINS_12CwiseUnaryOpIZNS3_18apply_scalar_unaryINS3_13log1p_exp_funES7_vE5applyERS8_EUlOT_E_S8_EEEEvRKSI_NS_8internal10false_typeE.cold.2, symObjAddr: 0x32DCC, symBinAddr: 0x10006387C, symSize: 0x24 }
  - { offsetInCU: 0x37D987, offset: 0x37D987, size: 0x8, addend: 0x0, symName: __ZN5Eigen3RefIKNS_5ArrayIN4stan4math4fvarINS4_IdEEEELin1ELi1ELi0ELin1ELi1EEELi0ENS_11InnerStrideILi1EEEE9constructINS_12CwiseUnaryOpIZNS3_18apply_scalar_unaryINS3_13log1p_exp_funES7_vE5applyERS8_EUlOT_E_S8_EEEEvRKSI_NS_8internal10false_typeE.cold.3, symObjAddr: 0x32DF0, symBinAddr: 0x1000638A0, symSize: 0x24 }
  - { offsetInCU: 0x37DA0D, offset: 0x37DA0D, size: 0x8, addend: 0x0, symName: __ZN5Eigen3RefIKNS_5ArrayIN4stan4math4fvarINS4_IdEEEELin1ELi1ELi0ELin1ELi1EEELi0ENS_11InnerStrideILi1EEEE9constructINS_12CwiseUnaryOpIZNS3_18apply_scalar_unaryINS3_13log1p_exp_funES7_vE5applyERS8_EUlOT_E_S8_EEEEvRKSI_NS_8internal10false_typeE.cold.1, symObjAddr: 0x32DA8, symBinAddr: 0x100063858, symSize: 0x24 }
  - { offsetInCU: 0x37E0DE, offset: 0x37E0DE, size: 0x8, addend: 0x0, symName: __ZN4stan4math4fvarINS0_9var_valueIdvEEEpLERKS4_, symObjAddr: 0x25588, symBinAddr: 0x100025E54, symSize: 0xFC }
  - { offsetInCU: 0x37E2E2, offset: 0x37E2E2, size: 0x8, addend: 0x0, symName: __ZN4stan4math21simplex_row_constrainIN5Eigen6MatrixINS0_4fvarINS0_9var_valueIdvEEEELin1ELin1ELi0ELin1ELin1EEELPv0ELS9_0EEEDaRKT_RNS_10value_typeISB_vE4typeE.cold.1, symObjAddr: 0x32E14, symBinAddr: 0x1000638C4, symSize: 0x24 }
  - { offsetInCU: 0x37E665, offset: 0x37E665, size: 0x8, addend: 0x0, symName: __ZN5Eigen3RefIKNS_5ArrayIN4stan4math4fvarINS3_9var_valueIdvEEEELin1ELi1ELi0ELin1ELi1EEELi0ENS_11InnerStrideILi1EEEE9constructINS_12CwiseUnaryOpIZNS3_18apply_scalar_unaryINS3_7log_funES8_vE5applyERS9_EUlOT_E_S9_EEEEvRKSJ_NS_8internal10false_typeE, symObjAddr: 0x25C40, symBinAddr: 0x10002650C, symSize: 0xB0 }
  - { offsetInCU: 0x37EC6E, offset: 0x37EC6E, size: 0x8, addend: 0x0, symName: __ZN4stan4math3logINS0_9var_valueIdvEEEENS0_4fvarIT_EERKS6_, symObjAddr: 0x25CF0, symBinAddr: 0x1000265BC, symSize: 0x124 }
  - { offsetInCU: 0x37F363, offset: 0x37F363, size: 0x8, addend: 0x0, symName: __ZN5Eigen3RefIKNS_5ArrayIN4stan4math4fvarINS3_9var_valueIdvEEEELin1ELi1ELi0ELin1ELi1EEELi0ENS_11InnerStrideILi1EEEE9constructINS_12CwiseUnaryOpIZNS3_18apply_scalar_unaryINS3_13log1p_exp_funES8_vE5applyERS9_EUlOT_E_S9_EEEEvRKSJ_NS_8internal10false_typeE, symObjAddr: 0x264F4, symBinAddr: 0x100026DC0, symSize: 0xB0 }
  - { offsetInCU: 0x37F964, offset: 0x37F964, size: 0x8, addend: 0x0, symName: __ZZN4stan4test8internal11expect_ad_vIZN26simplex_row_constrain_test24expect_simplex_transformIN5Eigen6MatrixIdLin1ELin1ELi0ELin1ELin1EEEEEvRKT_EUlSA_E0_S7_EEvRKNS0_13ad_tolerancesESA_RKT0_ENKUlSA_E_clINS6_INS_4math4fvarINSL_INSK_9var_valueIdvEEEEEELin1ELi1ELi0ELin1ELi1EEEEEDaSA_, symObjAddr: 0x265A4, symBinAddr: 0x100026E70, symSize: 0x1A0 }
  - { offsetInCU: 0x37FBB2, offset: 0x37FBB2, size: 0x8, addend: 0x0, symName: __ZN5Eigen8internal26call_dense_assignment_loopINS_5ArrayIN4stan4math4fvarINS4_9var_valueIdvEEEELin1ELi1ELi0ELin1ELi1EEENS_13CwiseBinaryOpINS0_13scalar_sum_opIS8_dEEKNS_12ArrayWrapperIKNS_5BlockIKNS_6MatrixIS8_Lin1ELin1ELi0ELin1ELin1EEELin1ELi1ELb1EEEEEKNS_14CwiseNullaryOpINS0_18scalar_constant_opIdEEKNS2_IdLin1ELi1ELi0ELin1ELi1EEEEEEENS0_9assign_opIS8_S8_EEEEvRT_RKT0_RKT1_.cold.1, symObjAddr: 0x32E38, symBinAddr: 0x1000638E8, symSize: 0x24 }
  - { offsetInCU: 0x37FBE0, offset: 0x37FBE0, size: 0x8, addend: 0x0, symName: __ZN5Eigen8internal26call_dense_assignment_loopINS_5ArrayIN4stan4math4fvarINS4_9var_valueIdvEEEELin1ELi1ELi0ELin1ELi1EEENS_13CwiseBinaryOpINS0_13scalar_sum_opIS8_dEEKNS_12ArrayWrapperIKNS_5BlockIKNS_6MatrixIS8_Lin1ELin1ELi0ELin1ELin1EEELin1ELi1ELb1EEEEEKNS_14CwiseNullaryOpINS0_18scalar_constant_opIdEEKNS2_IdLin1ELi1ELi0ELin1ELi1EEEEEEENS0_9assign_opIS8_S8_EEEEvRT_RKT0_RKT1_.cold.2, symObjAddr: 0x32E5C, symBinAddr: 0x10006390C, symSize: 0x24 }
  - { offsetInCU: 0x3801B5, offset: 0x3801B5, size: 0x8, addend: 0x0, symName: __ZN4stan4math12arena_matrixIN5Eigen5ArrayINS0_9var_valueIdvEELin1ELi1ELi0ELin1ELi1EEEEaSINS2_12CwiseUnaryOpINS2_9ArrayBaseINS2_3RefIKNS3_INS0_4fvarIS5_EELin1ELi1ELi0ELin1ELi1EEELi0ENS2_11InnerStrideILi1EEEEEE6val_OpEKSI_EEEERS7_RKT_, symObjAddr: 0x25F30, symBinAddr: 0x1000267FC, symSize: 0xA0 }
  - { offsetInCU: 0x3805DB, offset: 0x3805DB, size: 0x8, addend: 0x0, symName: __ZN4stan4math8internal13callback_variIdZNS0_3sumIN5Eigen12CwiseUnaryOpINS4_9ArrayBaseINS4_3RefIKNS4_5ArrayINS0_4fvarINS0_9var_valueIdvEEEELin1ELi1ELi0ELin1ELi1EEELi0ENS4_11InnerStrideILi1EEEEEE6val_OpEKSH_EELPv0EEESB_RKT_EUlRSN_E_E5chainEv, symObjAddr: 0x25FD0, symBinAddr: 0x10002689C, symSize: 0x40 }
  - { offsetInCU: 0x3805EF, offset: 0x3805EF, size: 0x8, addend: 0x0, symName: __ZN4stan4math3sumIN5Eigen12CwiseUnaryOpINS2_9ArrayBaseINS2_3RefIKNS2_5ArrayINS0_4fvarINS0_9var_valueIdvEEEELin1ELi1ELi0ELin1ELi1EEELi0ENS2_11InnerStrideILi1EEEEEE6val_OpEKSF_EELPv0EEES9_RKT_.cold.3, symObjAddr: 0x32EC8, symBinAddr: 0x100063978, symSize: 0x28 }
  - { offsetInCU: 0x380649, offset: 0x380649, size: 0x8, addend: 0x0, symName: __ZN4stan4math3sumIN5Eigen12CwiseUnaryOpINS2_9ArrayBaseINS2_3RefIKNS2_5ArrayINS0_4fvarINS0_9var_valueIdvEEEELin1ELi1ELi0ELin1ELi1EEELi0ENS2_11InnerStrideILi1EEEEEE6val_OpEKSF_EELPv0EEES9_RKT_.cold.1, symObjAddr: 0x32E80, symBinAddr: 0x100063930, symSize: 0x24 }
  - { offsetInCU: 0x3806CC, offset: 0x3806CC, size: 0x8, addend: 0x0, symName: __ZN4stan4math3sumIN5Eigen12CwiseUnaryOpINS2_9ArrayBaseINS2_3RefIKNS2_5ArrayINS0_4fvarINS0_9var_valueIdvEEEELin1ELi1ELi0ELin1ELi1EEELi0ENS2_11InnerStrideILi1EEEEEE6val_OpEKSF_EELPv0EEES9_RKT_.cold.2, symObjAddr: 0x32EA4, symBinAddr: 0x100063954, symSize: 0x24 }
  - { offsetInCU: 0x3808E7, offset: 0x3808E7, size: 0x8, addend: 0x0, symName: __ZN4stan4math12arena_matrixIN5Eigen5ArrayINS0_9var_valueIdvEELin1ELi1ELi0ELin1ELi1EEEEaSINS2_12CwiseUnaryOpINS2_9ArrayBaseINS2_3RefIKNS3_INS0_4fvarIS5_EELin1ELi1ELi0ELin1ELi1EEELi0ENS2_11InnerStrideILi1EEEEEE4d_OpEKSI_EEEERS7_RKT_, symObjAddr: 0x26010, symBinAddr: 0x1000268DC, symSize: 0xA4 }
  - { offsetInCU: 0x380D01, offset: 0x380D01, size: 0x8, addend: 0x0, symName: __ZN4stan4math8internal13callback_variIdZNS0_3sumIN5Eigen12CwiseUnaryOpINS4_9ArrayBaseINS4_3RefIKNS4_5ArrayINS0_4fvarINS0_9var_valueIdvEEEELin1ELi1ELi0ELin1ELi1EEELi0ENS4_11InnerStrideILi1EEEEEE4d_OpEKSH_EELPv0EEESB_RKT_EUlRSN_E_E5chainEv, symObjAddr: 0x260B4, symBinAddr: 0x100026980, symSize: 0x40 }
  - { offsetInCU: 0x380D15, offset: 0x380D15, size: 0x8, addend: 0x0, symName: __ZN4stan4math3sumIN5Eigen12CwiseUnaryOpINS2_9ArrayBaseINS2_3RefIKNS2_5ArrayINS0_4fvarINS0_9var_valueIdvEEEELin1ELi1ELi0ELin1ELi1EEELi0ENS2_11InnerStrideILi1EEEEEE4d_OpEKSF_EELPv0EEES9_RKT_.cold.3, symObjAddr: 0x32F38, symBinAddr: 0x1000639E8, symSize: 0x28 }
  - { offsetInCU: 0x380D6F, offset: 0x380D6F, size: 0x8, addend: 0x0, symName: __ZN4stan4math3sumIN5Eigen12CwiseUnaryOpINS2_9ArrayBaseINS2_3RefIKNS2_5ArrayINS0_4fvarINS0_9var_valueIdvEEEELin1ELi1ELi0ELin1ELi1EEELi0ENS2_11InnerStrideILi1EEEEEE4d_OpEKSF_EELPv0EEES9_RKT_.cold.1, symObjAddr: 0x32EF0, symBinAddr: 0x1000639A0, symSize: 0x24 }
  - { offsetInCU: 0x380DF2, offset: 0x380DF2, size: 0x8, addend: 0x0, symName: __ZN4stan4math3sumIN5Eigen12CwiseUnaryOpINS2_9ArrayBaseINS2_3RefIKNS2_5ArrayINS0_4fvarINS0_9var_valueIdvEEEELin1ELi1ELi0ELin1ELi1EEELi0ENS2_11InnerStrideILi1EEEEEE4d_OpEKSF_EELPv0EEES9_RKT_.cold.2, symObjAddr: 0x32F14, symBinAddr: 0x1000639C4, symSize: 0x24 }
  - { offsetInCU: 0x3810F3, offset: 0x3810F3, size: 0x8, addend: 0x0, symName: __ZN5Eigen3RefIKNS_5ArrayIN4stan4math4fvarINS3_9var_valueIdvEEEELin1ELi1ELi0ELin1ELi1EEELi0ENS_11InnerStrideILi1EEEE9constructINS_12CwiseUnaryOpIZNS3_18apply_scalar_unaryINS3_7log_funES8_vE5applyERS9_EUlOT_E_S9_EEEEvRKSJ_NS_8internal10false_typeE.cold.2, symObjAddr: 0x32F84, symBinAddr: 0x100063A34, symSize: 0x24 }
  - { offsetInCU: 0x381163, offset: 0x381163, size: 0x8, addend: 0x0, symName: __ZN5Eigen3RefIKNS_5ArrayIN4stan4math4fvarINS3_9var_valueIdvEEEELin1ELi1ELi0ELin1ELi1EEELi0ENS_11InnerStrideILi1EEEE9constructINS_12CwiseUnaryOpIZNS3_18apply_scalar_unaryINS3_7log_funES8_vE5applyERS9_EUlOT_E_S9_EEEEvRKSJ_NS_8internal10false_typeE.cold.3, symObjAddr: 0x32FA8, symBinAddr: 0x100063A58, symSize: 0x24 }
  - { offsetInCU: 0x3811E9, offset: 0x3811E9, size: 0x8, addend: 0x0, symName: __ZN5Eigen3RefIKNS_5ArrayIN4stan4math4fvarINS3_9var_valueIdvEEEELin1ELi1ELi0ELin1ELi1EEELi0ENS_11InnerStrideILi1EEEE9constructINS_12CwiseUnaryOpIZNS3_18apply_scalar_unaryINS3_7log_funES8_vE5applyERS9_EUlOT_E_S9_EEEEvRKSJ_NS_8internal10false_typeE.cold.1, symObjAddr: 0x32F60, symBinAddr: 0x100063A10, symSize: 0x24 }
  - { offsetInCU: 0x3813E7, offset: 0x3813E7, size: 0x8, addend: 0x0, symName: __ZN4stan4math4fvarINS0_9var_valueIdvEEEC2IddEERKT_RKT0_, symObjAddr: 0x25E14, symBinAddr: 0x1000266E0, symSize: 0xC4 }
  - { offsetInCU: 0x38160D, offset: 0x38160D, size: 0x8, addend: 0x0, symName: __ZN4stan4math8internal13callback_variIdZNS0_3logIdLPv0EEEDaRKNS0_9var_valueIT_vEEEUlRS7_E_E5chainEv, symObjAddr: 0x25ED8, symBinAddr: 0x1000267A4, symSize: 0x1C }
  - { offsetInCU: 0x381634, offset: 0x381634, size: 0x8, addend: 0x0, symName: __ZN4stan4math8internal13callback_variIdZNS0_3logIdLPv0EEEDaRKNS0_9var_valueIT_vEEEUlRS7_E_E5chainEv, symObjAddr: 0x25ED8, symBinAddr: 0x1000267A4, symSize: 0x1C }
  - { offsetInCU: 0x3816BD, offset: 0x3816BD, size: 0x8, addend: 0x0, symName: __ZN4stan4math8internal13callback_variIdZNS0_dvERKNS0_9var_valueIdvEES6_EUlOT_E_E5chainEv, symObjAddr: 0x25EF4, symBinAddr: 0x1000267C0, symSize: 0x3C }
  - { offsetInCU: 0x3816E4, offset: 0x3816E4, size: 0x8, addend: 0x0, symName: __ZN4stan4math8internal13callback_variIdZNS0_dvERKNS0_9var_valueIdvEES6_EUlOT_E_E5chainEv, symObjAddr: 0x25EF4, symBinAddr: 0x1000267C0, symSize: 0x3C }
  - { offsetInCU: 0x38195F, offset: 0x38195F, size: 0x8, addend: 0x0, symName: __ZN4stan4math12arena_matrixIN5Eigen5ArrayINS0_9var_valueIdvEELin1ELi1ELi0ELin1ELi1EEEEaSINS2_12CwiseUnaryOpINS2_9ArrayBaseINS2_3RefIKNS3_INS0_4fvarIS5_EELin1ELi1ELi0ELin1ELi1EEELi0ENS2_11InnerStrideILi1EEEEEE6val_OpEKSI_EEEERS7_RKT_.cold.1, symObjAddr: 0x32FCC, symBinAddr: 0x100063A7C, symSize: 0x24 }
  - { offsetInCU: 0x3819CC, offset: 0x3819CC, size: 0x8, addend: 0x0, symName: __ZN4stan4math12arena_matrixIN5Eigen5ArrayINS0_9var_valueIdvEELin1ELi1ELi0ELin1ELi1EEEEaSINS2_12CwiseUnaryOpINS2_9ArrayBaseINS2_3RefIKNS3_INS0_4fvarIS5_EELin1ELi1ELi0ELin1ELi1EEELi0ENS2_11InnerStrideILi1EEEEEE6val_OpEKSI_EEEERS7_RKT_.cold.2, symObjAddr: 0x32FF0, symBinAddr: 0x100063AA0, symSize: 0x24 }
  - { offsetInCU: 0x381D6E, offset: 0x381D6E, size: 0x8, addend: 0x0, symName: __ZN4stan4math8internal13callback_variIdZNS0_3sumIN5Eigen12CwiseUnaryOpINS4_9ArrayBaseINS4_3RefIKNS4_5ArrayINS0_4fvarINS0_9var_valueIdvEEEELin1ELi1ELi0ELin1ELi1EEELi0ENS4_11InnerStrideILi1EEEEEE6val_OpEKSH_EELPv0EEESB_RKT_EUlRSN_E_E5chainEv, symObjAddr: 0x25FD0, symBinAddr: 0x10002689C, symSize: 0x40 }
  - { offsetInCU: 0x382015, offset: 0x382015, size: 0x8, addend: 0x0, symName: __ZN4stan4math12arena_matrixIN5Eigen5ArrayINS0_9var_valueIdvEELin1ELi1ELi0ELin1ELi1EEEEaSINS2_12CwiseUnaryOpINS2_9ArrayBaseINS2_3RefIKNS3_INS0_4fvarIS5_EELin1ELi1ELi0ELin1ELi1EEELi0ENS2_11InnerStrideILi1EEEEEE4d_OpEKSI_EEEERS7_RKT_, symObjAddr: 0x26010, symBinAddr: 0x1000268DC, symSize: 0xA4 }
  - { offsetInCU: 0x382020, offset: 0x382020, size: 0x8, addend: 0x0, symName: __ZN4stan4math8internal13callback_variIdZNS0_3sumIN5Eigen12CwiseUnaryOpINS4_9ArrayBaseINS4_3RefIKNS4_5ArrayINS0_4fvarINS0_9var_valueIdvEEEELin1ELi1ELi0ELin1ELi1EEELi0ENS4_11InnerStrideILi1EEEEEE6val_OpEKSH_EELPv0EEESB_RKT_EUlRSN_E_E5chainEv.cold.1, symObjAddr: 0x33014, symBinAddr: 0x100063AC4, symSize: 0x24 }
  - { offsetInCU: 0x382238, offset: 0x382238, size: 0x8, addend: 0x0, symName: __ZN4stan4math12arena_matrixIN5Eigen5ArrayINS0_9var_valueIdvEELin1ELi1ELi0ELin1ELi1EEEEaSINS2_12CwiseUnaryOpINS2_9ArrayBaseINS2_3RefIKNS3_INS0_4fvarIS5_EELin1ELi1ELi0ELin1ELi1EEELi0ENS2_11InnerStrideILi1EEEEEE4d_OpEKSI_EEEERS7_RKT_.cold.1, symObjAddr: 0x33038, symBinAddr: 0x100063AE8, symSize: 0x24 }
  - { offsetInCU: 0x3822A5, offset: 0x3822A5, size: 0x8, addend: 0x0, symName: __ZN4stan4math12arena_matrixIN5Eigen5ArrayINS0_9var_valueIdvEELin1ELi1ELi0ELin1ELi1EEEEaSINS2_12CwiseUnaryOpINS2_9ArrayBaseINS2_3RefIKNS3_INS0_4fvarIS5_EELin1ELi1ELi0ELin1ELi1EEELi0ENS2_11InnerStrideILi1EEEEEE4d_OpEKSI_EEEERS7_RKT_.cold.2, symObjAddr: 0x3305C, symBinAddr: 0x100063B0C, symSize: 0x24 }
  - { offsetInCU: 0x3823BD, offset: 0x3823BD, size: 0x8, addend: 0x0, symName: __ZN4stan4math8internal13callback_variIdZNS0_3sumIN5Eigen12CwiseUnaryOpINS4_9ArrayBaseINS4_3RefIKNS4_5ArrayINS0_4fvarINS0_9var_valueIdvEEEELin1ELi1ELi0ELin1ELi1EEELi0ENS4_11InnerStrideILi1EEEEEE4d_OpEKSH_EELPv0EEESB_RKT_EUlRSN_E_E5chainEv, symObjAddr: 0x260B4, symBinAddr: 0x100026980, symSize: 0x40 }
  - { offsetInCU: 0x382664, offset: 0x382664, size: 0x8, addend: 0x0, symName: __ZN4stan4math9log1p_expINS0_9var_valueIdvEEEENS0_4fvarIT_EERKS6_, symObjAddr: 0x260F4, symBinAddr: 0x1000269C0, symSize: 0x158 }
  - { offsetInCU: 0x38266F, offset: 0x38266F, size: 0x8, addend: 0x0, symName: __ZN4stan4math8internal13callback_variIdZNS0_3sumIN5Eigen12CwiseUnaryOpINS4_9ArrayBaseINS4_3RefIKNS4_5ArrayINS0_4fvarINS0_9var_valueIdvEEEELin1ELi1ELi0ELin1ELi1EEELi0ENS4_11InnerStrideILi1EEEEEE4d_OpEKSH_EELPv0EEESB_RKT_EUlRSN_E_E5chainEv.cold.1, symObjAddr: 0x33080, symBinAddr: 0x100063B30, symSize: 0x24 }
  - { offsetInCU: 0x3827DF, offset: 0x3827DF, size: 0x8, addend: 0x0, symName: __ZN4stan4math8internal13callback_variIdZNS0_9log1p_expIdLPv0EEEDaRKNS0_9var_valueIT_vEEEUlRS7_E_E5chainEv, symObjAddr: 0x263E0, symBinAddr: 0x100026CAC, symSize: 0x1C }
  - { offsetInCU: 0x382806, offset: 0x382806, size: 0x8, addend: 0x0, symName: __ZN4stan4math8internal13callback_variIdZNS0_9log1p_expIdLPv0EEEDaRKNS0_9var_valueIT_vEEEUlRS7_E_E5chainEv, symObjAddr: 0x263E0, symBinAddr: 0x100026CAC, symSize: 0x1C }
  - { offsetInCU: 0x382A8E, offset: 0x382A8E, size: 0x8, addend: 0x0, symName: __ZN5Eigen3RefIKNS_5ArrayIN4stan4math4fvarINS3_9var_valueIdvEEEELin1ELi1ELi0ELin1ELi1EEELi0ENS_11InnerStrideILi1EEEE9constructINS_12CwiseUnaryOpIZNS3_18apply_scalar_unaryINS3_13log1p_exp_funES8_vE5applyERS9_EUlOT_E_S9_EEEEvRKSJ_NS_8internal10false_typeE.cold.2, symObjAddr: 0x330C8, symBinAddr: 0x100063B78, symSize: 0x24 }
  - { offsetInCU: 0x382AFE, offset: 0x382AFE, size: 0x8, addend: 0x0, symName: __ZN5Eigen3RefIKNS_5ArrayIN4stan4math4fvarINS3_9var_valueIdvEEEELin1ELi1ELi0ELin1ELi1EEELi0ENS_11InnerStrideILi1EEEE9constructINS_12CwiseUnaryOpIZNS3_18apply_scalar_unaryINS3_13log1p_exp_funES8_vE5applyERS9_EUlOT_E_S9_EEEEvRKSJ_NS_8internal10false_typeE.cold.3, symObjAddr: 0x330EC, symBinAddr: 0x100063B9C, symSize: 0x24 }
  - { offsetInCU: 0x382B84, offset: 0x382B84, size: 0x8, addend: 0x0, symName: __ZN5Eigen3RefIKNS_5ArrayIN4stan4math4fvarINS3_9var_valueIdvEEEELin1ELi1ELi0ELin1ELi1EEELi0ENS_11InnerStrideILi1EEEE9constructINS_12CwiseUnaryOpIZNS3_18apply_scalar_unaryINS3_13log1p_exp_funES8_vE5applyERS9_EUlOT_E_S9_EEEEvRKSJ_NS_8internal10false_typeE.cold.1, symObjAddr: 0x330A4, symBinAddr: 0x100063B54, symSize: 0x24 }
  - { offsetInCU: 0x383535, offset: 0x383535, size: 0x8, addend: 0x0, symName: __ZN5Eigen8internal31generic_dense_assignment_kernelINS0_9evaluatorINS_12ArrayWrapperINS_5BlockINS_6MatrixIN4stan4math4fvarINS8_INS7_9var_valueIdvEEEEEELin1ELin1ELi0ELin1ELin1EEELin1ELi1ELb1EEEEEEENS2_INS_13CwiseBinaryOpINS0_17scalar_product_opISC_SC_EEKNS_5ArrayISC_Lin1ELi1ELi0ELin1ELi1EEEKNS_12CwiseUnaryOpIZNS7_18apply_scalar_unaryINS7_13inv_logit_funESL_vE5applyERSM_EUlOT_E_SM_EEEEEENS0_9assign_opISC_SC_EELi0EE11assignCoeffEl, symObjAddr: 0x271C0, symBinAddr: 0x100027A8C, symSize: 0x100 }
  - { offsetInCU: 0x3840BC, offset: 0x3840BC, size: 0x8, addend: 0x0, symName: __ZN5Eigen8internal26call_dense_assignment_loopINS_5ArrayIN4stan4math4fvarINS5_INS4_9var_valueIdvEEEEEELin1ELi1ELi0ELin1ELi1EEENS_13CwiseBinaryOpINS0_13scalar_sum_opIS9_dEEKNS_12ArrayWrapperIKNS_5BlockIKNS_6MatrixIS9_Lin1ELin1ELi0ELin1ELin1EEELin1ELi1ELb1EEEEEKNS_14CwiseNullaryOpINS0_18scalar_constant_opIdEEKNS2_IdLin1ELi1ELi0ELin1ELi1EEEEEEENS0_9assign_opIS9_S9_EEEEvRT_RKT0_RKT1_.cold.1, symObjAddr: 0x33110, symBinAddr: 0x100063BC0, symSize: 0x24 }
  - { offsetInCU: 0x3840EA, offset: 0x3840EA, size: 0x8, addend: 0x0, symName: __ZN5Eigen8internal26call_dense_assignment_loopINS_5ArrayIN4stan4math4fvarINS5_INS4_9var_valueIdvEEEEEELin1ELi1ELi0ELin1ELi1EEENS_13CwiseBinaryOpINS0_13scalar_sum_opIS9_dEEKNS_12ArrayWrapperIKNS_5BlockIKNS_6MatrixIS9_Lin1ELin1ELi0ELin1ELin1EEELin1ELi1ELb1EEEEEKNS_14CwiseNullaryOpINS0_18scalar_constant_opIdEEKNS2_IdLin1ELi1ELi0ELin1ELi1EEEEEEENS0_9assign_opIS9_S9_EEEEvRT_RKT0_RKT1_.cold.2, symObjAddr: 0x33134, symBinAddr: 0x100063BE4, symSize: 0x24 }
  - { offsetInCU: 0x3842D4, offset: 0x3842D4, size: 0x8, addend: 0x0, symName: __ZN5Eigen3RefIKNS_5ArrayIN4stan4math4fvarINS3_9var_valueIdvEEEELin1ELi1ELi0ELin1ELi1EEELi0ENS_11InnerStrideILi1EEEE9constructINS_12CwiseUnaryOpINS_9ArrayBaseINS0_IKNS1_INS4_IS7_EELin1ELi1ELi0ELin1ELi1EEELi0ESB_EEE6val_OpEKSJ_EEEEvRKT_NS_8internal10false_typeE, symObjAddr: 0x27794, symBinAddr: 0x100028060, symSize: 0xB0 }
  - { offsetInCU: 0x38484B, offset: 0x38484B, size: 0x8, addend: 0x0, symName: __ZN5Eigen3RefIKNS_5ArrayIN4stan4math4fvarINS3_9var_valueIdvEEEELin1ELi1ELi0ELin1ELi1EEELi0ENS_11InnerStrideILi1EEEE9constructINS_12CwiseUnaryOpINS_9ArrayBaseINS0_IKNS1_INS4_IS7_EELin1ELi1ELi0ELin1ELi1EEELi0ESB_EEE4d_OpEKSJ_EEEEvRKT_NS_8internal10false_typeE, symObjAddr: 0x27844, symBinAddr: 0x100028110, symSize: 0xB0 }
  - { offsetInCU: 0x38491B, offset: 0x38491B, size: 0x8, addend: 0x0, symName: __ZN5Eigen3RefIKNS_5ArrayIN4stan4math4fvarINS3_9var_valueIdvEEEELin1ELi1ELi0ELin1ELi1EEELi0ENS_11InnerStrideILi1EEEE9constructINS_12CwiseUnaryOpINS_9ArrayBaseINS0_IKNS1_INS4_IS7_EELin1ELi1ELi0ELin1ELi1EEELi0ESB_EEE4d_OpEKSJ_EEEEvRKT_NS_8internal10false_typeE, symObjAddr: 0x27844, symBinAddr: 0x100028110, symSize: 0xB0 }
  - { offsetInCU: 0x384E92, offset: 0x384E92, size: 0x8, addend: 0x0, symName: __ZN5Eigen8internal26call_dense_assignment_loopINS_5ArrayIN4stan4math4fvarINS5_INS4_9var_valueIdvEEEEEELin1ELi1ELi0ELin1ELi1EEENS_12CwiseUnaryOpIZNS4_18apply_scalar_unaryINS4_13log1p_exp_funENSB_INS0_18scalar_opposite_opIS9_EEKSA_EEvE5applyERKSH_EUlOT_E_SJ_EENS0_9assign_opIS9_S9_EEEEvRSL_RKT0_RKT1_, symObjAddr: 0x278F4, symBinAddr: 0x1000281C0, symSize: 0xF4 }
  - { offsetInCU: 0x38517C, offset: 0x38517C, size: 0x8, addend: 0x0, symName: __ZN5Eigen8internal26call_dense_assignment_loopINS_5ArrayIN4stan4math4fvarINS5_INS4_9var_valueIdvEEEEEELin1ELi1ELi0ELin1ELi1EEENS_12CwiseUnaryOpIZNS4_18apply_scalar_unaryINS4_7log_funESA_vE5applyERKSA_EUlOT_E_SF_EENS0_9assign_opIS9_S9_EEEEvRSH_RKT0_RKT1_.cold.1, symObjAddr: 0x33158, symBinAddr: 0x100063C08, symSize: 0x24 }
  - { offsetInCU: 0x3851AA, offset: 0x3851AA, size: 0x8, addend: 0x0, symName: __ZN5Eigen8internal26call_dense_assignment_loopINS_5ArrayIN4stan4math4fvarINS5_INS4_9var_valueIdvEEEEEELin1ELi1ELi0ELin1ELi1EEENS_12CwiseUnaryOpIZNS4_18apply_scalar_unaryINS4_7log_funESA_vE5applyERKSA_EUlOT_E_SF_EENS0_9assign_opIS9_S9_EEEEvRSH_RKT0_RKT1_.cold.2, symObjAddr: 0x3317C, symBinAddr: 0x100063C2C, symSize: 0x24 }
  - { offsetInCU: 0x3854F6, offset: 0x3854F6, size: 0x8, addend: 0x0, symName: __ZN5Eigen3RefIKNS_5ArrayIN4stan4math4fvarINS3_9var_valueIdvEEEELin1ELi1ELi0ELin1ELi1EEELi0ENS_11InnerStrideILi1EEEE9constructINS_12CwiseUnaryOpINS_9ArrayBaseINS0_IKNS1_INS4_IS7_EELin1ELi1ELi0ELin1ELi1EEELi0ESB_EEE6val_OpEKSJ_EEEEvRKT_NS_8internal10false_typeE.cold.2, symObjAddr: 0x331C4, symBinAddr: 0x100063C74, symSize: 0x24 }
  - { offsetInCU: 0x385566, offset: 0x385566, size: 0x8, addend: 0x0, symName: __ZN5Eigen3RefIKNS_5ArrayIN4stan4math4fvarINS3_9var_valueIdvEEEELin1ELi1ELi0ELin1ELi1EEELi0ENS_11InnerStrideILi1EEEE9constructINS_12CwiseUnaryOpINS_9ArrayBaseINS0_IKNS1_INS4_IS7_EELin1ELi1ELi0ELin1ELi1EEELi0ESB_EEE6val_OpEKSJ_EEEEvRKT_NS_8internal10false_typeE.cold.3, symObjAddr: 0x331E8, symBinAddr: 0x100063C98, symSize: 0x24 }
  - { offsetInCU: 0x3855EC, offset: 0x3855EC, size: 0x8, addend: 0x0, symName: __ZN5Eigen3RefIKNS_5ArrayIN4stan4math4fvarINS3_9var_valueIdvEEEELin1ELi1ELi0ELin1ELi1EEELi0ENS_11InnerStrideILi1EEEE9constructINS_12CwiseUnaryOpINS_9ArrayBaseINS0_IKNS1_INS4_IS7_EELin1ELi1ELi0ELin1ELi1EEELi0ESB_EEE6val_OpEKSJ_EEEEvRKT_NS_8internal10false_typeE.cold.1, symObjAddr: 0x331A0, symBinAddr: 0x100063C50, symSize: 0x24 }
  - { offsetInCU: 0x38584F, offset: 0x38584F, size: 0x8, addend: 0x0, symName: __ZN5Eigen3RefIKNS_5ArrayIN4stan4math4fvarINS3_9var_valueIdvEEEELin1ELi1ELi0ELin1ELi1EEELi0ENS_11InnerStrideILi1EEEE9constructINS_12CwiseUnaryOpINS_9ArrayBaseINS0_IKNS1_INS4_IS7_EELin1ELi1ELi0ELin1ELi1EEELi0ESB_EEE4d_OpEKSJ_EEEEvRKT_NS_8internal10false_typeE.cold.2, symObjAddr: 0x33230, symBinAddr: 0x100063CE0, symSize: 0x24 }
  - { offsetInCU: 0x3858BF, offset: 0x3858BF, size: 0x8, addend: 0x0, symName: __ZN5Eigen3RefIKNS_5ArrayIN4stan4math4fvarINS3_9var_valueIdvEEEELin1ELi1ELi0ELin1ELi1EEELi0ENS_11InnerStrideILi1EEEE9constructINS_12CwiseUnaryOpINS_9ArrayBaseINS0_IKNS1_INS4_IS7_EELin1ELi1ELi0ELin1ELi1EEELi0ESB_EEE4d_OpEKSJ_EEEEvRKT_NS_8internal10false_typeE.cold.3, symObjAddr: 0x33254, symBinAddr: 0x100063D04, symSize: 0x24 }
  - { offsetInCU: 0x385945, offset: 0x385945, size: 0x8, addend: 0x0, symName: __ZN5Eigen3RefIKNS_5ArrayIN4stan4math4fvarINS3_9var_valueIdvEEEELin1ELi1ELi0ELin1ELi1EEELi0ENS_11InnerStrideILi1EEEE9constructINS_12CwiseUnaryOpINS_9ArrayBaseINS0_IKNS1_INS4_IS7_EELin1ELi1ELi0ELin1ELi1EEELi0ESB_EEE4d_OpEKSJ_EEEEvRKT_NS_8internal10false_typeE.cold.1, symObjAddr: 0x3320C, symBinAddr: 0x100063CBC, symSize: 0x24 }
  - { offsetInCU: 0x385D79, offset: 0x385D79, size: 0x8, addend: 0x0, symName: __ZN5Eigen8internal26call_dense_assignment_loopINS_5ArrayIN4stan4math4fvarINS5_INS4_9var_valueIdvEEEEEELin1ELi1ELi0ELin1ELi1EEENS_12CwiseUnaryOpIZNS4_18apply_scalar_unaryINS4_13log1p_exp_funENSB_INS0_18scalar_opposite_opIS9_EEKSA_EEvE5applyERKSH_EUlOT_E_SJ_EENS0_9assign_opIS9_S9_EEEEvRSL_RKT0_RKT1_.cold.1, symObjAddr: 0x33278, symBinAddr: 0x100063D28, symSize: 0x24 }
  - { offsetInCU: 0x385DA7, offset: 0x385DA7, size: 0x8, addend: 0x0, symName: __ZN5Eigen8internal26call_dense_assignment_loopINS_5ArrayIN4stan4math4fvarINS5_INS4_9var_valueIdvEEEEEELin1ELi1ELi0ELin1ELi1EEENS_12CwiseUnaryOpIZNS4_18apply_scalar_unaryINS4_13log1p_exp_funENSB_INS0_18scalar_opposite_opIS9_EEKSA_EEvE5applyERKSH_EUlOT_E_SJ_EENS0_9assign_opIS9_S9_EEEEvRSL_RKT0_RKT1_.cold.2, symObjAddr: 0x3329C, symBinAddr: 0x100063D4C, symSize: 0x24 }
  - { offsetInCU: 0x386004, offset: 0x386004, size: 0x8, addend: 0x0, symName: __ZN5Eigen8internal26call_dense_assignment_loopINS_5ArrayIN4stan4math4fvarINS5_INS4_9var_valueIdvEEEEEELin1ELi1ELi0ELin1ELi1EEENS_12CwiseUnaryOpIZNS4_18apply_scalar_unaryINS4_13log1p_exp_funESA_vE5applyERKSA_EUlOT_E_SF_EENS0_9assign_opIS9_S9_EEEEvRSH_RKT0_RKT1_.cold.1, symObjAddr: 0x332C0, symBinAddr: 0x100063D70, symSize: 0x24 }
  - { offsetInCU: 0x386032, offset: 0x386032, size: 0x8, addend: 0x0, symName: __ZN5Eigen8internal26call_dense_assignment_loopINS_5ArrayIN4stan4math4fvarINS5_INS4_9var_valueIdvEEEEEELin1ELi1ELi0ELin1ELi1EEENS_12CwiseUnaryOpIZNS4_18apply_scalar_unaryINS4_13log1p_exp_funESA_vE5applyERKSA_EUlOT_E_SF_EENS0_9assign_opIS9_S9_EEEEvRSH_RKT0_RKT1_.cold.2, symObjAddr: 0x332E4, symBinAddr: 0x100063D94, symSize: 0x24 }
  - { offsetInCU: 0x386076, offset: 0x386076, size: 0x8, addend: 0x0, symName: __ZN4stan4math7hessianIZZNS_4test8internal16expect_ad_helperIZN26simplex_row_constrain_test24expect_simplex_transformIN5Eigen6MatrixIdLin1ELin1ELi0ELin1ELin1EEEEEvRKT_EUlSC_E0_ZNS3_11expect_ad_vISD_S9_EEvRKNS2_13ad_tolerancesESC_RKT0_EUlSC_E_JS9_EEEvSH_SC_SK_RKNS8_IdLin1ELi1ELi0ELin1ELi1EEEDpT1_ENKUliE_clEiEUlSC_E_EEvSC_SO_RdRSM_RS9_.cold.1, symObjAddr: 0x33308, symBinAddr: 0x100063DB8, symSize: 0x24 }
  - { offsetInCU: 0x3860A5, offset: 0x3860A5, size: 0x8, addend: 0x0, symName: __ZN4stan4math7hessianIZZNS_4test8internal16expect_ad_helperIZN26simplex_row_constrain_test24expect_simplex_transformIN5Eigen6MatrixIdLin1ELin1ELi0ELin1ELin1EEEEEvRKT_EUlSC_E0_ZNS3_11expect_ad_vISD_S9_EEvRKNS2_13ad_tolerancesESC_RKT0_EUlSC_E_JS9_EEEvSH_SC_SK_RKNS8_IdLin1ELi1ELi0ELin1ELi1EEEDpT1_ENKUliE_clEiEUlSC_E_EEvSC_SO_RdRSM_RS9_.cold.2, symObjAddr: 0x3332C, symBinAddr: 0x100063DDC, symSize: 0x24 }
  - { offsetInCU: 0x3860D4, offset: 0x3860D4, size: 0x8, addend: 0x0, symName: __ZN4stan4math8internal24finite_diff_hessian_autoIZZNS_4test8internal16expect_ad_helperIZN26simplex_row_constrain_test24expect_simplex_transformIN5Eigen6MatrixIdLin1ELin1ELi0ELin1ELin1EEEEEvRKT_EUlSD_E0_ZNS4_11expect_ad_vISE_SA_EEvRKNS3_13ad_tolerancesESD_RKT0_EUlSD_E_JSA_EEEvSI_SD_SL_RKNS9_IdLin1ELi1ELi0ELin1ELi1EEEDpT1_ENKUliE_clEiEUlSD_E_EEvSD_SP_RdRSN_RSA_.cold.1, symObjAddr: 0x33350, symBinAddr: 0x100063E00, symSize: 0x30 }
  - { offsetInCU: 0x386238, offset: 0x386238, size: 0x8, addend: 0x0, symName: __ZN4stan4math8internal24finite_diff_hessian_autoIZZNS_4test8internal16expect_ad_helperIZN26simplex_row_constrain_test24expect_simplex_transformIN5Eigen6MatrixIdLin1ELin1ELi0ELin1ELin1EEEEEvRKT_EUlSD_E0_ZNS4_11expect_ad_vISE_SA_EEvRKNS3_13ad_tolerancesESD_RKT0_EUlSD_E_JSA_EEEvSI_SD_SL_RKNS9_IdLin1ELi1ELi0ELin1ELi1EEEDpT1_ENKUliE_clEiEUlSD_E_EEvSD_SP_RdRSN_RSA_.cold.2, symObjAddr: 0x33380, symBinAddr: 0x100063E30, symSize: 0x30 }
  - { offsetInCU: 0x38639C, offset: 0x38639C, size: 0x8, addend: 0x0, symName: __ZN4stan4math7hessianIdZZNS_4test8internal16expect_ad_helperIZN26simplex_row_constrain_test24expect_simplex_transformIN5Eigen6MatrixIdLin1ELin1ELi0ELin1ELin1EEEEEvRKT_EUlSC_E0_ZNS3_11expect_ad_vISD_S9_EEvRKNS2_13ad_tolerancesESC_RKT0_EUlSC_E_JS9_EEEvSH_SC_SK_RKNS8_IdLin1ELi1ELi0ELin1ELi1EEEDpT1_ENKUliE_clEiEUlSC_E_EEvSK_RKNS8_ISA_Lin1ELi1ELi0ELin1ELi1EEERSA_RST_RNS8_ISA_Lin1ELin1ELi0ELin1ELin1EEE.cold.1, symObjAddr: 0x333B0, symBinAddr: 0x100063E60, symSize: 0x24 }
  - { offsetInCU: 0x3863CB, offset: 0x3863CB, size: 0x8, addend: 0x0, symName: __ZN4stan4math7hessianIdZZNS_4test8internal16expect_ad_helperIZN26simplex_row_constrain_test24expect_simplex_transformIN5Eigen6MatrixIdLin1ELin1ELi0ELin1ELin1EEEEEvRKT_EUlSC_E0_ZNS3_11expect_ad_vISD_S9_EEvRKNS2_13ad_tolerancesESC_RKT0_EUlSC_E_JS9_EEEvSH_SC_SK_RKNS8_IdLin1ELi1ELi0ELin1ELi1EEEDpT1_ENKUliE_clEiEUlSC_E_EEvSK_RKNS8_ISA_Lin1ELi1ELi0ELin1ELi1EEERSA_RST_RNS8_ISA_Lin1ELin1ELi0ELin1ELin1EEE.cold.2, symObjAddr: 0x333D4, symBinAddr: 0x100063E84, symSize: 0x24 }
  - { offsetInCU: 0x3863FA, offset: 0x3863FA, size: 0x8, addend: 0x0, symName: __ZN4stan4math12grad_hessianIZZNS_4test8internal16expect_ad_helperIZN26simplex_row_constrain_test24expect_simplex_transformIN5Eigen6MatrixIdLin1ELin1ELi0ELin1ELin1EEEEEvRKT_EUlSC_E0_ZNS3_11expect_ad_vISD_S9_EEvRKNS2_13ad_tolerancesESC_RKT0_EUlSC_E_JS9_EEEvSH_SC_SK_RKNS8_IdLin1ELi1ELi0ELin1ELi1EEEDpT1_ENKUliE_clEiEUlSC_E_EEvSC_SO_RdRS9_RNSt3__16vectorIS9_NSV_9allocatorIS9_EEEE.cold.1, symObjAddr: 0x333F8, symBinAddr: 0x100063EA8, symSize: 0x24 }
  - { offsetInCU: 0x38668F, offset: 0x38668F, size: 0x8, addend: 0x0, symName: __ZN5Eigen15PlainObjectBaseINS_5ArrayIdLin1ELi1ELi0ELin1ELi1EEEEC2INS_13CwiseBinaryOpINS_8internal20scalar_difference_opIddEEKNS_12ArrayWrapperINS_5BlockINS_3MapINS_6MatrixIdLin1ELin1ELi0ELin1ELin1EEELi0ENS_6StrideILi0ELi0EEEEELin1ELi1ELb1EEEEEKNS_14CwiseNullaryOpINS6_18scalar_constant_opIdEEKS2_EEEEEERKNS_9DenseBaseIT_EE, symObjAddr: 0x2BDE0, symBinAddr: 0x10002C6AC, symSize: 0x18C }
  - { offsetInCU: 0x387045, offset: 0x387045, size: 0x8, addend: 0x0, symName: __ZN4stan4math8internal26reverse_pass_callback_variIZNS0_21simplex_row_constrainINS0_9var_valueIN5Eigen6MatrixIdLin1ELin1ELi0ELin1ELin1EEEvEELPv0EEEDaRKT_RNS_11scalar_typeISB_vE4typeEEUlvE_EC2EOSI_, symObjAddr: 0x2BF6C, symBinAddr: 0x10002C838, symSize: 0x130 }
  - { offsetInCU: 0x38769F, offset: 0x38769F, size: 0x8, addend: 0x0, symName: __ZN4stan4math8internal26reverse_pass_callback_variIZNS0_21simplex_row_constrainINS0_9var_valueIN5Eigen6MatrixIdLin1ELin1ELi0ELin1ELin1EEEvEELPv0EEEDaRKT_RNS_11scalar_typeISB_vE4typeEEUlvE_E5chainEv, symObjAddr: 0x2C09C, symBinAddr: 0x10002C968, symSize: 0x8 }
  - { offsetInCU: 0x3876AA, offset: 0x3876AA, size: 0x8, addend: 0x0, symName: __ZN4stan4math21simplex_row_constrainINS0_9var_valueIN5Eigen6MatrixIdLin1ELin1ELi0ELin1ELin1EEEvEELPv0EEEDaRKT_RNS_11scalar_typeIS9_vE4typeE.cold.1, symObjAddr: 0x3341C, symBinAddr: 0x100063ECC, symSize: 0x24 }
  - { offsetInCU: 0x38772C, offset: 0x38772C, size: 0x8, addend: 0x0, symName: __ZN4stan4math21simplex_row_constrainINS0_9var_valueIN5Eigen6MatrixIdLin1ELin1ELi0ELin1ELin1EEEvEELPv0EEEDaRKT_RNS_11scalar_typeIS9_vE4typeE.cold.2, symObjAddr: 0x33440, symBinAddr: 0x100063EF0, symSize: 0x24 }
  - { offsetInCU: 0x3877AE, offset: 0x3877AE, size: 0x8, addend: 0x0, symName: __ZN4stan4math21simplex_row_constrainINS0_9var_valueIN5Eigen6MatrixIdLin1ELin1ELi0ELin1ELin1EEEvEELPv0EEEDaRKT_RNS_11scalar_typeIS9_vE4typeE.cold.3, symObjAddr: 0x33464, symBinAddr: 0x100063F14, symSize: 0x24 }
  - { offsetInCU: 0x387CF3, offset: 0x387CF3, size: 0x8, addend: 0x0, symName: __ZN4stan4math8internal26reverse_pass_callback_variIZNS0_21simplex_row_constrainINS0_9var_valueIN5Eigen6MatrixIdLin1ELin1ELi0ELin1ELin1EEEvEELPv0EEEDaRKT_RNS_11scalar_typeISB_vE4typeEEUlvE_EC2EOSI_.cold.1, symObjAddr: 0x33488, symBinAddr: 0x100063F38, symSize: 0x24 }
  - { offsetInCU: 0x387DA0, offset: 0x387DA0, size: 0x8, addend: 0x0, symName: __ZN4stan4math8internal26reverse_pass_callback_variIZNS0_21simplex_row_constrainINS0_9var_valueIN5Eigen6MatrixIdLin1ELin1ELi0ELin1ELin1EEEvEELPv0EEEDaRKT_RNS_11scalar_typeISB_vE4typeEEUlvE_E5chainEv, symObjAddr: 0x2C09C, symBinAddr: 0x10002C968, symSize: 0x8 }
  - { offsetInCU: 0x387DCA, offset: 0x387DCA, size: 0x8, addend: 0x0, symName: __ZN4stan4math8internal26reverse_pass_callback_variIZNS0_21simplex_row_constrainINS0_9var_valueIN5Eigen6MatrixIdLin1ELin1ELi0ELin1ELin1EEEvEELPv0EEEDaRKT_RNS_11scalar_typeISB_vE4typeEEUlvE_E16set_zero_adjointEv, symObjAddr: 0x2C0A4, symBinAddr: 0x10002C970, symSize: 0x4 }
  - { offsetInCU: 0x387DD5, offset: 0x387DD5, size: 0x8, addend: 0x0, symName: __ZZN4stan4math21simplex_row_constrainINS0_9var_valueIN5Eigen6MatrixIdLin1ELin1ELi0ELin1ELin1EEEvEELPv0EEEDaRKT_RNS_11scalar_typeIS9_vE4typeEENUlvE_clEv, symObjAddr: 0x2C0A8, symBinAddr: 0x10002C974, symSize: 0x2A8 }
  - { offsetInCU: 0x388092, offset: 0x388092, size: 0x8, addend: 0x0, symName: __ZN4stan4math8internal26reverse_pass_callback_variIZNS0_21simplex_row_constrainINS0_9var_valueIN5Eigen6MatrixIdLin1ELin1ELi0ELin1ELin1EEEvEELPv0EEEDaRKT_RNS_11scalar_typeISB_vE4typeEEUlvE_E16set_zero_adjointEv, symObjAddr: 0x2C0A4, symBinAddr: 0x10002C970, symSize: 0x4 }
  - { offsetInCU: 0x388227, offset: 0x388227, size: 0x8, addend: 0x0, symName: __ZZN4stan4test8internal11expect_ad_vIZN26simplex_row_constrain_test24expect_simplex_transformIN5Eigen6MatrixIdLin1ELin1ELi0ELin1ELin1EEEEEvRKT_EUlSA_E1_S7_EEvRKNS0_13ad_tolerancesESA_RKT0_ENKUlSA_E_clINS6_IdLin1ELi1ELi0ELin1ELi1EEEEEDaSA_, symObjAddr: 0x2C644, symBinAddr: 0x10002CF10, symSize: 0xB8 }
  - { offsetInCU: 0x388A2B, offset: 0x388A2B, size: 0x8, addend: 0x0, symName: __ZZN4stan4test8internal11expect_ad_vIZN26simplex_row_constrain_test24expect_simplex_transformIN5Eigen6MatrixIdLin1ELin1ELi0ELin1ELin1EEEEEvRKT_EUlSA_E1_S7_EEvRKNS0_13ad_tolerancesESA_RKT0_ENKUlSA_E_clINS6_INS_4math9var_valueIdvEELin1ELi1ELi0ELin1ELi1EEEEEDaSA_, symObjAddr: 0x2DCB0, symBinAddr: 0x10002E57C, symSize: 0xA0 }
  - { offsetInCU: 0x38909B, offset: 0x38909B, size: 0x8, addend: 0x0, symName: __ZZN4stan4test8internal11expect_ad_vIZN26simplex_row_constrain_test24expect_simplex_transformIN5Eigen6MatrixIdLin1ELin1ELi0ELin1ELin1EEEEEvRKT_EUlSA_E1_S7_EEvRKNS0_13ad_tolerancesESA_RKT0_ENKUlSA_E_clINS6_INS_4math4fvarIdEELin1ELi1ELi0ELin1ELi1EEEEEDaSA_, symObjAddr: 0x2DEC8, symBinAddr: 0x10002E794, symSize: 0xB8 }
  - { offsetInCU: 0x389880, offset: 0x389880, size: 0x8, addend: 0x0, symName: __ZZN4stan4test8internal11expect_ad_vIZN26simplex_row_constrain_test24expect_simplex_transformIN5Eigen6MatrixIdLin1ELin1ELi0ELin1ELin1EEEEEvRKT_EUlSA_E1_S7_EEvRKNS0_13ad_tolerancesESA_RKT0_ENKUlSA_E_clINS6_INS_4math4fvarINSL_IdEEEELin1ELi1ELi0ELin1ELi1EEEEEDaSA_, symObjAddr: 0x2E074, symBinAddr: 0x10002E940, symSize: 0xC0 }
  - { offsetInCU: 0x38A0A5, offset: 0x38A0A5, size: 0x8, addend: 0x0, symName: __ZZN4stan4test8internal11expect_ad_vIZN26simplex_row_constrain_test24expect_simplex_transformIN5Eigen6MatrixIdLin1ELin1ELi0ELin1ELin1EEEEEvRKT_EUlSA_E1_S7_EEvRKNS0_13ad_tolerancesESA_RKT0_ENKUlSA_E_clINS6_INS_4math4fvarINSK_9var_valueIdvEEEELin1ELi1ELi0ELin1ELi1EEEEEDaSA_, symObjAddr: 0x2E22C, symBinAddr: 0x10002EAF8, symSize: 0xC4 }
  - { offsetInCU: 0x38A88F, offset: 0x38A88F, size: 0x8, addend: 0x0, symName: __ZZN4stan4test8internal11expect_ad_vIZN26simplex_row_constrain_test24expect_simplex_transformIN5Eigen6MatrixIdLin1ELin1ELi0ELin1ELin1EEEEEvRKT_EUlSA_E1_S7_EEvRKNS0_13ad_tolerancesESA_RKT0_ENKUlSA_E_clINS6_INS_4math4fvarINSL_INSK_9var_valueIdvEEEEEELin1ELi1ELi0ELin1ELi1EEEEEDaSA_, symObjAddr: 0x2E3E4, symBinAddr: 0x10002ECB0, symSize: 0x140 }
  - { offsetInCU: 0x38B343, offset: 0x38B343, size: 0x8, addend: 0x0, symName: __ZN4stan4math7hessianIZZNS_4test8internal16expect_ad_helperIZN26simplex_row_constrain_test24expect_simplex_transformIN5Eigen6MatrixIdLin1ELin1ELi0ELin1ELin1EEEEEvRKT_EUlSC_E1_ZNS3_11expect_ad_vISD_S9_EEvRKNS2_13ad_tolerancesESC_RKT0_EUlSC_E_JS9_EEEvSH_SC_SK_RKNS8_IdLin1ELi1ELi0ELin1ELi1EEEDpT1_ENKUliE_clEiEUlSC_E_EEvSC_SO_RdRSM_RS9_.cold.1, symObjAddr: 0x334AC, symBinAddr: 0x100063F5C, symSize: 0x24 }
  - { offsetInCU: 0x38B372, offset: 0x38B372, size: 0x8, addend: 0x0, symName: __ZN4stan4math7hessianIZZNS_4test8internal16expect_ad_helperIZN26simplex_row_constrain_test24expect_simplex_transformIN5Eigen6MatrixIdLin1ELin1ELi0ELin1ELin1EEEEEvRKT_EUlSC_E1_ZNS3_11expect_ad_vISD_S9_EEvRKNS2_13ad_tolerancesESC_RKT0_EUlSC_E_JS9_EEEvSH_SC_SK_RKNS8_IdLin1ELi1ELi0ELin1ELi1EEEDpT1_ENKUliE_clEiEUlSC_E_EEvSC_SO_RdRSM_RS9_.cold.2, symObjAddr: 0x334D0, symBinAddr: 0x100063F80, symSize: 0x24 }
  - { offsetInCU: 0x38B3A1, offset: 0x38B3A1, size: 0x8, addend: 0x0, symName: __ZN4stan4math8internal24finite_diff_hessian_autoIZZNS_4test8internal16expect_ad_helperIZN26simplex_row_constrain_test24expect_simplex_transformIN5Eigen6MatrixIdLin1ELin1ELi0ELin1ELin1EEEEEvRKT_EUlSD_E1_ZNS4_11expect_ad_vISE_SA_EEvRKNS3_13ad_tolerancesESD_RKT0_EUlSD_E_JSA_EEEvSI_SD_SL_RKNS9_IdLin1ELi1ELi0ELin1ELi1EEEDpT1_ENKUliE_clEiEUlSD_E_EEvSD_SP_RdRSN_RSA_.cold.1, symObjAddr: 0x334F4, symBinAddr: 0x100063FA4, symSize: 0x30 }
  - { offsetInCU: 0x38B505, offset: 0x38B505, size: 0x8, addend: 0x0, symName: __ZN4stan4math8internal24finite_diff_hessian_autoIZZNS_4test8internal16expect_ad_helperIZN26simplex_row_constrain_test24expect_simplex_transformIN5Eigen6MatrixIdLin1ELin1ELi0ELin1ELin1EEEEEvRKT_EUlSD_E1_ZNS4_11expect_ad_vISE_SA_EEvRKNS3_13ad_tolerancesESD_RKT0_EUlSD_E_JSA_EEEvSI_SD_SL_RKNS9_IdLin1ELi1ELi0ELin1ELi1EEEDpT1_ENKUliE_clEiEUlSD_E_EEvSD_SP_RdRSN_RSA_.cold.2, symObjAddr: 0x33524, symBinAddr: 0x100063FD4, symSize: 0x30 }
  - { offsetInCU: 0x38B669, offset: 0x38B669, size: 0x8, addend: 0x0, symName: __ZN4stan4math7hessianIdZZNS_4test8internal16expect_ad_helperIZN26simplex_row_constrain_test24expect_simplex_transformIN5Eigen6MatrixIdLin1ELin1ELi0ELin1ELin1EEEEEvRKT_EUlSC_E1_ZNS3_11expect_ad_vISD_S9_EEvRKNS2_13ad_tolerancesESC_RKT0_EUlSC_E_JS9_EEEvSH_SC_SK_RKNS8_IdLin1ELi1ELi0ELin1ELi1EEEDpT1_ENKUliE_clEiEUlSC_E_EEvSK_RKNS8_ISA_Lin1ELi1ELi0ELin1ELi1EEERSA_RST_RNS8_ISA_Lin1ELin1ELi0ELin1ELin1EEE.cold.1, symObjAddr: 0x33554, symBinAddr: 0x100064004, symSize: 0x24 }
  - { offsetInCU: 0x38B698, offset: 0x38B698, size: 0x8, addend: 0x0, symName: __ZN4stan4math7hessianIdZZNS_4test8internal16expect_ad_helperIZN26simplex_row_constrain_test24expect_simplex_transformIN5Eigen6MatrixIdLin1ELin1ELi0ELin1ELin1EEEEEvRKT_EUlSC_E1_ZNS3_11expect_ad_vISD_S9_EEvRKNS2_13ad_tolerancesESC_RKT0_EUlSC_E_JS9_EEEvSH_SC_SK_RKNS8_IdLin1ELi1ELi0ELin1ELi1EEEDpT1_ENKUliE_clEiEUlSC_E_EEvSK_RKNS8_ISA_Lin1ELi1ELi0ELin1ELi1EEERSA_RST_RNS8_ISA_Lin1ELin1ELi0ELin1ELin1EEE.cold.2, symObjAddr: 0x33578, symBinAddr: 0x100064028, symSize: 0x24 }
  - { offsetInCU: 0x38B6C7, offset: 0x38B6C7, size: 0x8, addend: 0x0, symName: __ZN4stan4math12grad_hessianIZZNS_4test8internal16expect_ad_helperIZN26simplex_row_constrain_test24expect_simplex_transformIN5Eigen6MatrixIdLin1ELin1ELi0ELin1ELin1EEEEEvRKT_EUlSC_E1_ZNS3_11expect_ad_vISD_S9_EEvRKNS2_13ad_tolerancesESC_RKT0_EUlSC_E_JS9_EEEvSH_SC_SK_RKNS8_IdLin1ELi1ELi0ELin1ELi1EEEDpT1_ENKUliE_clEiEUlSC_E_EEvSC_SO_RdRS9_RNSt3__16vectorIS9_NSV_9allocatorIS9_EEEE.cold.1, symObjAddr: 0x3359C, symBinAddr: 0x10006404C, symSize: 0x24 }
  - { offsetInCU: 0x38B764, offset: 0x38B764, size: 0x8, addend: 0x0, symName: _OUTLINED_FUNCTION_0, symObjAddr: 0x335C0, symBinAddr: 0x1000328D0, symSize: 0x8 }
  - { offsetInCU: 0x38B77C, offset: 0x38B77C, size: 0x8, addend: 0x0, symName: _OUTLINED_FUNCTION_1, symObjAddr: 0x335C8, symBinAddr: 0x1000328D8, symSize: 0x8 }
  - { offsetInCU: 0x38B794, offset: 0x38B794, size: 0x8, addend: 0x0, symName: _OUTLINED_FUNCTION_2, symObjAddr: 0x335D0, symBinAddr: 0x1000328E0, symSize: 0xC }
  - { offsetInCU: 0x38B7AC, offset: 0x38B7AC, size: 0x8, addend: 0x0, symName: _OUTLINED_FUNCTION_3, symObjAddr: 0x335DC, symBinAddr: 0x1000328EC, symSize: 0x8 }
  - { offsetInCU: 0x38B7C4, offset: 0x38B7C4, size: 0x8, addend: 0x0, symName: _OUTLINED_FUNCTION_4, symObjAddr: 0x335E4, symBinAddr: 0x1000328F4, symSize: 0x18 }
  - { offsetInCU: 0x38B7DC, offset: 0x38B7DC, size: 0x8, addend: 0x0, symName: _OUTLINED_FUNCTION_5, symObjAddr: 0x335FC, symBinAddr: 0x10003290C, symSize: 0x8 }
  - { offsetInCU: 0x38B7F4, offset: 0x38B7F4, size: 0x8, addend: 0x0, symName: _OUTLINED_FUNCTION_6, symObjAddr: 0x33604, symBinAddr: 0x100032914, symSize: 0x8 }
  - { offsetInCU: 0x38B80C, offset: 0x38B80C, size: 0x8, addend: 0x0, symName: _OUTLINED_FUNCTION_7, symObjAddr: 0x3360C, symBinAddr: 0x10003291C, symSize: 0x8 }
  - { offsetInCU: 0x38B824, offset: 0x38B824, size: 0x8, addend: 0x0, symName: _OUTLINED_FUNCTION_8, symObjAddr: 0x33614, symBinAddr: 0x100032924, symSize: 0x8 }
  - { offsetInCU: 0x38B83C, offset: 0x38B83C, size: 0x8, addend: 0x0, symName: _OUTLINED_FUNCTION_9, symObjAddr: 0x3361C, symBinAddr: 0x10003292C, symSize: 0xC }
  - { offsetInCU: 0x38B854, offset: 0x38B854, size: 0x8, addend: 0x0, symName: _OUTLINED_FUNCTION_10, symObjAddr: 0x33628, symBinAddr: 0x100032938, symSize: 0x8 }
  - { offsetInCU: 0x38B86C, offset: 0x38B86C, size: 0x8, addend: 0x0, symName: _OUTLINED_FUNCTION_11, symObjAddr: 0x33630, symBinAddr: 0x100032940, symSize: 0x8 }
  - { offsetInCU: 0x1E, offset: 0x38B9B4, size: 0x8, addend: 0x0, symName: _main, symObjAddr: 0x0, symBinAddr: 0x100033038, symSize: 0x54 }
  - { offsetInCU: 0x2AC1, offset: 0x38E457, size: 0x8, addend: 0x0, symName: _main, symObjAddr: 0x0, symBinAddr: 0x100033038, symSize: 0x54 }
  - { offsetInCU: 0x41, offset: 0x38E51C, size: 0x8, addend: 0x0, symName: __ZN7testing8internal17kStackTraceMarkerE, symObjAddr: 0x3298E, symBinAddr: 0x10006CB13, symSize: 0x0 }
  - { offsetInCU: 0x5B, offset: 0x38E536, size: 0x8, addend: 0x0, symName: __ZN7testing8internal11g_help_flagE, symObjAddr: 0x367638, symBinAddr: 0x100078380, symSize: 0x0 }
  - { offsetInCU: 0x76, offset: 0x38E551, size: 0x8, addend: 0x0, symName: __ZN7testing8internalL7g_argvsE, symObjAddr: 0x367738, symBinAddr: 0x1000782B8, symSize: 0x0 }
  - { offsetInCU: 0x91, offset: 0x38E56C, size: 0x8, addend: 0x0, symName: __ZN7testing8internal23kTestTypeIdInGoogleTestE, symObjAddr: 0x3676E0, symBinAddr: 0x100078428, symSize: 0x0 }
  - { offsetInCU: 0xE2, offset: 0x38E5BD, size: 0x8, addend: 0x0, symName: __ZN7testing8internal27OsStackTraceGetterInterface19kElidedFramesMarkerE, symObjAddr: 0x37518, symBinAddr: 0x100075400, symSize: 0x0 }
  - { offsetInCU: 0x1F01, offset: 0x3903DC, size: 0x8, addend: 0x0, symName: __ZN7testing8internal35FLAGS_gtest_internal_run_death_testE, symObjAddr: 0x3676E8, symBinAddr: 0x100078430, symSize: 0x0 }
  - { offsetInCU: 0x1F15, offset: 0x3903F0, size: 0x8, addend: 0x0, symName: __ZN7testing8internal9DeathTest24last_death_test_message_E, symObjAddr: 0x367720, symBinAddr: 0x100078468, symSize: 0x0 }
  - { offsetInCU: 0x1F71, offset: 0x39044C, size: 0x8, addend: 0x0, symName: __ZN7testing8internal13ColoredPrintfENS0_12_GLOBAL__N_110GTestColorEPKcz, symObjAddr: 0xFE78, symBinAddr: 0x100042D00, symSize: 0x120 }
  - { offsetInCU: 0x1F99, offset: 0x390474, size: 0x8, addend: 0x0, symName: __ZZN7testing8internal13ColoredPrintfENS0_12_GLOBAL__N_110GTestColorEPKczE13in_color_mode, symObjAddr: 0x3677D8, symBinAddr: 0x100078358, symSize: 0x0 }
  - { offsetInCU: 0x2050, offset: 0x39052B, size: 0x8, addend: 0x0, symName: __ZN7testing8internalL15kTypeParamLabelE, symObjAddr: 0x32A9C, symBinAddr: 0x10006CC21, symSize: 0x0 }
  - { offsetInCU: 0x2079, offset: 0x390554, size: 0x8, addend: 0x0, symName: __ZN7testing8internalL16kValueParamLabelE, symObjAddr: 0x32B22, symBinAddr: 0x10006CCA7, symSize: 0x0 }
  - { offsetInCU: 0x2093, offset: 0x39056E, size: 0x8, addend: 0x0, symName: __ZN7testing8internalL26g_in_fast_death_test_childE, symObjAddr: 0x3677B8, symBinAddr: 0x100078338, symSize: 0x0 }
  - { offsetInCU: 0x20C1, offset: 0x39059C, size: 0x8, addend: 0x0, symName: __ZN7testing8internalL25kInternalRunDeathTestFlagE, symObjAddr: 0x32B52, symBinAddr: 0x10006CCD7, symSize: 0x0 }
  - { offsetInCU: 0x20DA, offset: 0x3905B5, size: 0x8, addend: 0x0, symName: __ZN7testing8internalL23kCurrentDirectoryStringE, symObjAddr: 0x32B6F, symBinAddr: 0x10006CCF4, symSize: 0x0 }
  - { offsetInCU: 0x20F4, offset: 0x3905CF, size: 0x8, addend: 0x0, symName: __ZN7testing8internalL12kUnknownFileE, symObjAddr: 0x32B72, symBinAddr: 0x10006CCF7, symSize: 0x0 }
  - { offsetInCU: 0x210F, offset: 0x3905EA, size: 0x8, addend: 0x0, symName: __ZN7testing8internalL17g_captured_stdoutE, symObjAddr: 0x3677C0, symBinAddr: 0x100078340, symSize: 0x0 }
  - { offsetInCU: 0x21C4, offset: 0x39069F, size: 0x8, addend: 0x0, symName: __ZN7testing8internalL17g_captured_stderrE, symObjAddr: 0x3677C8, symBinAddr: 0x100078348, symSize: 0x0 }
  - { offsetInCU: 0x21DF, offset: 0x3906BA, size: 0x8, addend: 0x0, symName: __ZN7testing8internalL21g_injected_test_argvsE, symObjAddr: 0x3677D0, symBinAddr: 0x100078350, symSize: 0x0 }
  - { offsetInCU: 0x21F3, offset: 0x3906CE, size: 0x8, addend: 0x0, symName: __ZN7testing8internal12TypeIdHelperINS0_12_GLOBAL__N_111FailureTestEE6dummy_E, symObjAddr: 0x3677E8, symBinAddr: 0x100078368, symSize: 0x0 }
  - { offsetInCU: 0x22F6, offset: 0x3907D1, size: 0x8, addend: 0x0, symName: __ZN7testing8internal12_GLOBAL__N_118SplitEscapedStringERKNSt3__112basic_stringIcNS2_11char_traitsIcEENS2_9allocatorIcEEEE, symObjAddr: 0x7900, symBinAddr: 0x10003A788, symSize: 0x1EC }
  - { offsetInCU: 0x2A86, offset: 0x390F61, size: 0x8, addend: 0x0, symName: __ZN7testing8internal12TypeIdHelperINS_4TestEE6dummy_E, symObjAddr: 0x38000, symBinAddr: 0x100078170, symSize: 0x0 }
  - { offsetInCU: 0x2AC2, offset: 0x390F9D, size: 0x8, addend: 0x0, symName: __ZN7testing8internalL14kListTestsFlagE, symObjAddr: 0x33EED, symBinAddr: 0x10006E04D, symSize: 0x0 }
  - { offsetInCU: 0x2ADC, offset: 0x390FB7, size: 0x8, addend: 0x0, symName: __ZN7testing8internalL24kColorEncodedHelpMessageE, symObjAddr: 0x33534, symBinAddr: 0x10006D694, symSize: 0x0 }
  - { offsetInCU: 0x2B3A, offset: 0x391015, size: 0x8, addend: 0x0, symName: __ZN7testing8internal13edit_distance21CalculateOptimalEditsERKNSt3__16vectorImNS2_9allocatorImEEEES8_, symObjAddr: 0x6078, symBinAddr: 0x100038F88, symSize: 0x578 }
  - { offsetInCU: 0x430C, offset: 0x3927E7, size: 0x8, addend: 0x0, symName: __ZN7testing8internal13edit_distance21CalculateOptimalEditsERKNSt3__16vectorINS2_12basic_stringIcNS2_11char_traitsIcEENS2_9allocatorIcEEEENS7_IS9_EEEESD_, symObjAddr: 0x66D0, symBinAddr: 0x1000395E0, symSize: 0x384 }
  - { offsetInCU: 0x5753, offset: 0x393C2E, size: 0x8, addend: 0x0, symName: __ZN7testing8internal13edit_distance17CreateUnifiedDiffERKNSt3__16vectorINS2_12basic_stringIcNS2_11char_traitsIcEENS2_9allocatorIcEEEENS7_IS9_EEEESD_m, symObjAddr: 0x6A54, symBinAddr: 0x100039964, symSize: 0x6B8 }
  - { offsetInCU: 0x7E27, offset: 0x396302, size: 0x8, addend: 0x0, symName: __ZN7testing8internal15GetUnitTestImplEv, symObjAddr: 0x1914, symBinAddr: 0x1000349A0, symSize: 0xDC }
  - { offsetInCU: 0x7F80, offset: 0x39645B, size: 0x8, addend: 0x0, symName: __ZN7testing8internal5posix5AbortEv, symObjAddr: 0xB804, symBinAddr: 0x10003E68C, symSize: 0xC }
  - { offsetInCU: 0x7FE3, offset: 0x3964BE, size: 0x8, addend: 0x0, symName: __ZN7testing8internal5posix6IsATTYEi, symObjAddr: 0x29F98, symBinAddr: 0x10005CA50, symSize: 0x3C }
  - { offsetInCU: 0x80C9, offset: 0x3965A4, size: 0x8, addend: 0x0, symName: __ZN7testing8internal5posix6FDOpenEiPKc, symObjAddr: 0x2A4DC, symBinAddr: 0x10005CF94, symSize: 0x4 }
  - { offsetInCU: 0x8109, offset: 0x3965E4, size: 0x8, addend: 0x0, symName: __ZN7testing8internal11MatcherBaseIRKNSt3__112basic_stringIcNS2_11char_traitsIcEENS2_9allocatorIcEEEEED1Ev, symObjAddr: 0x2A4E0, symBinAddr: 0x10005CF98, symSize: 0x60 }
  - { offsetInCU: 0x81EA, offset: 0x3966C5, size: 0x8, addend: 0x0, symName: __ZN7testing8internal16BoolFromGTestEnvEPKcb, symObjAddr: 0x0, symBinAddr: 0x10003308C, symSize: 0x74 }
  - { offsetInCU: 0x83E8, offset: 0x3968C3, size: 0x8, addend: 0x0, symName: __ZN7testing8internalL12FlagToEnvVarEPKc, symObjAddr: 0x26A34, symBinAddr: 0x1000598BC, symSize: 0x1F8 }
  - { offsetInCU: 0x8BD2, offset: 0x3970AD, size: 0x8, addend: 0x0, symName: __ZN7testing8internal18StringFromGTestEnvEPKcS2_, symObjAddr: 0x74, symBinAddr: 0x100033100, symSize: 0x64 }
  - { offsetInCU: 0x8DB3, offset: 0x39728E, size: 0x8, addend: 0x0, symName: __ZN7testing8internal25OutputFlagAlsoCheckEnvVarEv, symObjAddr: 0xD8, symBinAddr: 0x100033164, symSize: 0x120 }
  - { offsetInCU: 0x953E, offset: 0x397A19, size: 0x8, addend: 0x0, symName: __ZN7testing8internal17Int32FromGTestEnvEPKci, symObjAddr: 0x1F8, symBinAddr: 0x100033284, symSize: 0x1F8 }
  - { offsetInCU: 0x9FE8, offset: 0x3984C3, size: 0x8, addend: 0x0, symName: __ZN7testing8internal10ParseInt32ERKNS_7MessageEPKcPi, symObjAddr: 0x1EE30, symBinAddr: 0x100051CB8, symSize: 0x30C }
  - { offsetInCU: 0xAB24, offset: 0x398FFF, size: 0x8, addend: 0x0, symName: __ZN7testing8internal20StringStreamToStringEPNSt3__118basic_stringstreamIcNS1_11char_traitsIcEENS1_9allocatorIcEEEE, symObjAddr: 0x5B64, symBinAddr: 0x100038A74, symSize: 0xFC }
  - { offsetInCU: 0xB0DB, offset: 0x3995B6, size: 0x8, addend: 0x0, symName: __ZN7testing8internal6IsTrueEb, symObjAddr: 0x540, symBinAddr: 0x1000335CC, symSize: 0x4 }
  - { offsetInCU: 0xB23A, offset: 0x399715, size: 0x8, addend: 0x0, symName: __ZN7testing8internal17AppendUserMessageERKNSt3__112basic_stringIcNS1_11char_traitsIcEENS1_9allocatorIcEEEERKNS_7MessageE, symObjAddr: 0xE1C, symBinAddr: 0x100033EA8, symSize: 0x1DC }
  - { offsetInCU: 0xBE17, offset: 0x39A2F2, size: 0x8, addend: 0x0, symName: __ZN7testing8internal18FormatFileLocationEPKci, symObjAddr: 0xE210, symBinAddr: 0x100041098, symSize: 0x3DC }
  - { offsetInCU: 0xD81D, offset: 0x39BCF8, size: 0x8, addend: 0x0, symName: __ZN7testing8internal33GetIgnoredParameterizedTestSuitesEv, symObjAddr: 0x1060, symBinAddr: 0x1000340EC, symSize: 0xE0 }
  - { offsetInCU: 0xD958, offset: 0x39BE33, size: 0x8, addend: 0x0, symName: __ZN7testing8internal23InsertSyntheticTestCaseERKNSt3__112basic_stringIcNS1_11char_traitsIcEENS1_9allocatorIcEEEENS0_12CodeLocationEb, symObjAddr: 0x129C, symBinAddr: 0x100034328, symSize: 0x5A4 }
  - { offsetInCU: 0xFEAE, offset: 0x39E389, size: 0x8, addend: 0x0, symName: __ZN7testing8internal23MakeAndRegisterTestInfoEPKcS2_S2_S2_NS0_12CodeLocationEPKvPFvvES7_PNS0_15TestFactoryBaseE, symObjAddr: 0xDB3C, symBinAddr: 0x1000409C4, symSize: 0x298 }
  - { offsetInCU: 0x10E51, offset: 0x39F32C, size: 0x8, addend: 0x0, symName: __ZN7testing8internal34RegisterTypeParameterizedTestSuiteEPKcNS0_12CodeLocationE, symObjAddr: 0x188C, symBinAddr: 0x100034918, symSize: 0x88 }
  - { offsetInCU: 0x111AE, offset: 0x39F689, size: 0x8, addend: 0x0, symName: __ZN7testing8internal47RegisterTypeParameterizedTestSuiteInstantiationEPKc, symObjAddr: 0x1C1C, symBinAddr: 0x100034CA8, symSize: 0x28 }
  - { offsetInCU: 0x11206, offset: 0x39F6E1, size: 0x8, addend: 0x0, symName: __ZN7testing8internal34TypeParameterizedTestSuiteRegistry21RegisterInstantiationEPKc, symObjAddr: 0x1C44, symBinAddr: 0x100034CD0, symSize: 0x16C }
  - { offsetInCU: 0x11218, offset: 0x39F6F3, size: 0x8, addend: 0x0, symName: __ZN7testing8internal8GetArgvsEv, symObjAddr: 0x251C, symBinAddr: 0x1000355A8, symSize: 0x10 }
  - { offsetInCU: 0x11256, offset: 0x39F731, size: 0x8, addend: 0x0, symName: __ZN7testing8internal24GetCurrentExecutableNameEv, symObjAddr: 0x252C, symBinAddr: 0x1000355B8, symSize: 0x120 }
  - { offsetInCU: 0x1127B, offset: 0x39F756, size: 0x8, addend: 0x0, symName: __ZN7testing8internal24GetCurrentExecutableNameEv, symObjAddr: 0x252C, symBinAddr: 0x1000355B8, symSize: 0x120 }
  - { offsetInCU: 0x11C61, offset: 0x3A013C, size: 0x8, addend: 0x0, symName: __ZN7testing8internal13GetTestTypeIdEv, symObjAddr: 0x4284, symBinAddr: 0x100037304, symSize: 0xC }
  - { offsetInCU: 0x11F2A, offset: 0x3A0405, size: 0x8, addend: 0x0, symName: __ZN7testing8internal15GetTimeInMillisEv, symObjAddr: 0x54B4, symBinAddr: 0x1000384F0, symSize: 0x50 }
  - { offsetInCU: 0x12082, offset: 0x3A055D, size: 0x8, addend: 0x0, symName: __ZN7testing8internal11SplitStringERKNSt3__112basic_stringIcNS1_11char_traitsIcEENS1_9allocatorIcEEEEcPNS1_6vectorIS7_NS5_IS7_EEEE, symObjAddr: 0x553C, symBinAddr: 0x100038578, symSize: 0x1CC }
  - { offsetInCU: 0x12A17, offset: 0x3A0EF2, size: 0x8, addend: 0x0, symName: __ZN7testing8internal10AlwaysTrueEv, symObjAddr: 0x5708, symBinAddr: 0x100038744, symSize: 0x8 }
  - { offsetInCU: 0x12A36, offset: 0x3A0F11, size: 0x8, addend: 0x0, symName: __ZN7testing8internal16WideStringToUtf8EPKwi, symObjAddr: 0xAD04, symBinAddr: 0x10003DB8C, symSize: 0x168 }
  - { offsetInCU: 0x12FAD, offset: 0x3A1488, size: 0x8, addend: 0x0, symName: __ZN7testing8internal9EqFailureEPKcS2_RKNSt3__112basic_stringIcNS3_11char_traitsIcEENS3_9allocatorIcEEEESB_b, symObjAddr: 0x73E4, symBinAddr: 0x10003A26C, symSize: 0x51C }
  - { offsetInCU: 0x14ADE, offset: 0x3A2FB9, size: 0x8, addend: 0x0, symName: __ZN7testing8internal30GetBoolAssertionFailureMessageERKNS_15AssertionResultEPKcS5_S5_, symObjAddr: 0x7AEC, symBinAddr: 0x10003A974, symSize: 0x1D8 }
  - { offsetInCU: 0x15244, offset: 0x3A371F, size: 0x8, addend: 0x0, symName: __ZN7testing8internal20DoubleNearPredFormatEPKcS2_S2_ddd, symObjAddr: 0x7CC4, symBinAddr: 0x10003AB4C, symSize: 0x1B0 }
  - { offsetInCU: 0x158EC, offset: 0x3A3DC7, size: 0x8, addend: 0x0, symName: __ZN7testing8internal15FloatingPointLEIfEENS_15AssertionResultEPKcS4_T_S5_, symObjAddr: 0x87A0, symBinAddr: 0x10003B628, symSize: 0x354 }
  - { offsetInCU: 0x16746, offset: 0x3A4C21, size: 0x8, addend: 0x0, symName: __ZN7testing8internal15FloatingPointLEIdEENS_15AssertionResultEPKcS4_T_S5_, symObjAddr: 0x8AF8, symBinAddr: 0x10003B980, symSize: 0x354 }
  - { offsetInCU: 0x1760C, offset: 0x3A5AE7, size: 0x8, addend: 0x0, symName: __ZN7testing8internal11CmpHelperEQEPKcS2_xx, symObjAddr: 0x8E4C, symBinAddr: 0x10003BCD4, symSize: 0x100 }
  - { offsetInCU: 0x17C95, offset: 0x3A6170, size: 0x8, addend: 0x0, symName: __ZN7testing8internal11CmpHelperNEEPKcS2_xx, symObjAddr: 0x8F4C, symBinAddr: 0x10003BDD4, symSize: 0x1B0 }
  - { offsetInCU: 0x1877E, offset: 0x3A6C59, size: 0x8, addend: 0x0, symName: __ZN7testing8internal11CmpHelperLEEPKcS2_xx, symObjAddr: 0x91D0, symBinAddr: 0x10003C058, symSize: 0x1B0 }
  - { offsetInCU: 0x19267, offset: 0x3A7742, size: 0x8, addend: 0x0, symName: __ZN7testing8internal11CmpHelperLTEPKcS2_xx, symObjAddr: 0x9380, symBinAddr: 0x10003C208, symSize: 0x1B0 }
  - { offsetInCU: 0x19D50, offset: 0x3A822B, size: 0x8, addend: 0x0, symName: __ZN7testing8internal11CmpHelperGEEPKcS2_xx, symObjAddr: 0x9530, symBinAddr: 0x10003C3B8, symSize: 0x1B0 }
  - { offsetInCU: 0x1A839, offset: 0x3A8D14, size: 0x8, addend: 0x0, symName: __ZN7testing8internal11CmpHelperGTEPKcS2_xx, symObjAddr: 0x96E0, symBinAddr: 0x10003C568, symSize: 0x1B0 }
  - { offsetInCU: 0x1B322, offset: 0x3A97FD, size: 0x8, addend: 0x0, symName: __ZN7testing8internal14CmpHelperSTREQEPKcS2_S2_S2_, symObjAddr: 0x9890, symBinAddr: 0x10003C718, symSize: 0x120 }
  - { offsetInCU: 0x1B971, offset: 0x3A9E4C, size: 0x8, addend: 0x0, symName: __ZN7testing8internal18CmpHelperSTRCASEEQEPKcS2_S2_S2_, symObjAddr: 0x9A78, symBinAddr: 0x10003C900, symSize: 0x120 }
  - { offsetInCU: 0x1BFC5, offset: 0x3AA4A0, size: 0x8, addend: 0x0, symName: __ZN7testing8internal14CmpHelperSTRNEEPKcS2_S2_S2_, symObjAddr: 0x9BD0, symBinAddr: 0x10003CA58, symSize: 0x14C }
  - { offsetInCU: 0x1C597, offset: 0x3AAA72, size: 0x8, addend: 0x0, symName: __ZN7testing8internal18CmpHelperSTRCASENEEPKcS2_S2_S2_, symObjAddr: 0x9DF0, symBinAddr: 0x10003CC78, symSize: 0x14C }
  - { offsetInCU: 0x1CBD0, offset: 0x3AB0AB, size: 0x8, addend: 0x0, symName: __ZN7testing8internal15CodePointToUtf8Ej, symObjAddr: 0xAA0C, symBinAddr: 0x10003D894, symSize: 0x1FC }
  - { offsetInCU: 0x1D577, offset: 0x3ABA52, size: 0x8, addend: 0x0, symName: __ZN7testing8internal14CmpHelperSTREQEPKcS2_PKwS4_, symObjAddr: 0xAEA4, symBinAddr: 0x10003DD2C, symSize: 0x120 }
  - { offsetInCU: 0x1DBC6, offset: 0x3AC0A1, size: 0x8, addend: 0x0, symName: __ZN7testing8internal14CmpHelperSTRNEEPKcS2_PKwS4_, symObjAddr: 0xB08C, symBinAddr: 0x10003DF14, symSize: 0x1D0 }
  - { offsetInCU: 0x1E646, offset: 0x3ACB21, size: 0x8, addend: 0x0, symName: __ZN7testing8internal30ReportFailureInUnknownLocationENS_14TestPartResult4TypeERKNSt3__112basic_stringIcNS3_11char_traitsIcEENS3_9allocatorIcEEEE, symObjAddr: 0xC94C, symBinAddr: 0x10003F7D4, symSize: 0xE8 }
  - { offsetInCU: 0x1E9B9, offset: 0x3ACE94, size: 0x8, addend: 0x0, symName: __ZN7testing8internalL27PrintTestPartResultToStringERKNS_14TestPartResultE, symObjAddr: 0xCFE4, symBinAddr: 0x10003FE6C, symSize: 0x1D0 }
  - { offsetInCU: 0x1F1BA, offset: 0x3AD695, size: 0x8, addend: 0x0, symName: __ZN7testing8internal35HandleExceptionsInMethodIfSupportedINS_4TestEvEET0_PT_MS4_FS3_vEPKc, symObjAddr: 0xD464, symBinAddr: 0x1000402EC, symSize: 0x18C }
  - { offsetInCU: 0x1F5B0, offset: 0x3ADA8B, size: 0x8, addend: 0x0, symName: __ZN7testing8internalL25FormatCxxExceptionMessageEPKcS2_, symObjAddr: 0x2DCF4, symBinAddr: 0x100060770, symSize: 0x14C }
  - { offsetInCU: 0x1FA47, offset: 0x3ADF22, size: 0x8, addend: 0x0, symName: __ZN7testing8internal26ReportInvalidTestSuiteTypeEPKcNS0_12CodeLocationE, symObjAddr: 0xDF34, symBinAddr: 0x100040DBC, symSize: 0x2DC }
  - { offsetInCU: 0x20905, offset: 0x3AEDE0, size: 0x8, addend: 0x0, symName: __ZN7testing8internal35HandleExceptionsInMethodIfSupportedINS0_15TestFactoryBaseEPNS_4TestEEET0_PT_MS6_FS5_vEPKc, symObjAddr: 0xE980, symBinAddr: 0x100041808, symSize: 0x180 }
  - { offsetInCU: 0x20DA6, offset: 0x3AF281, size: 0x8, addend: 0x0, symName: __ZN7testing8internal35HandleExceptionsInMethodIfSupportedINS_9TestSuiteEvEET0_PT_MS4_FS3_vEPKc, symObjAddr: 0xF5E4, symBinAddr: 0x10004246C, symSize: 0x18C }
  - { offsetInCU: 0x211CB, offset: 0x3AF6A6, size: 0x8, addend: 0x0, symName: __ZN7testing8internal12ShuffleRangeIiEEvPNS0_6RandomEiiPNSt3__16vectorIT_NS4_9allocatorIS6_EEEE, symObjAddr: 0x1F208, symBinAddr: 0x100052090, symSize: 0x1E8 }
  - { offsetInCU: 0x2166D, offset: 0x3AFB48, size: 0x8, addend: 0x0, symName: __ZN7testing8internal14ShouldUseColorEb, symObjAddr: 0xF9E0, symBinAddr: 0x100042868, symSize: 0x220 }
  - { offsetInCU: 0x21C17, offset: 0x3B00F2, size: 0x8, addend: 0x0, symName: __ZN7testing8internal11ShouldShardEPKcS2_b, symObjAddr: 0xFF98, symBinAddr: 0x100042E20, symSize: 0x514 }
  - { offsetInCU: 0x233D6, offset: 0x3B18B1, size: 0x8, addend: 0x0, symName: __ZN7testing8internal17Int32FromEnvOrDieEPKci, symObjAddr: 0x104AC, symBinAddr: 0x100043334, symSize: 0x118 }
  - { offsetInCU: 0x238A8, offset: 0x3B1D83, size: 0x8, addend: 0x0, symName: __ZN7testing8internalL29PrintFullTestCommentIfPresentERKNS_8TestInfoE, symObjAddr: 0x10DE8, symBinAddr: 0x100043C70, symSize: 0xB0 }
  - { offsetInCU: 0x23CD7, offset: 0x3B21B2, size: 0x8, addend: 0x0, symName: __ZN7testing8internalL18OpenFileForWritingERKNSt3__112basic_stringIcNS1_11char_traitsIcEENS1_9allocatorIcEEEE, symObjAddr: 0x13504, symBinAddr: 0x10004638C, symSize: 0x168 }
  - { offsetInCU: 0x243E9, offset: 0x3B28C4, size: 0x8, addend: 0x0, symName: __ZN7testing8internal27FormatTimeInMillisAsSecondsEx, symObjAddr: 0x14734, symBinAddr: 0x1000475BC, symSize: 0xE0 }
  - { offsetInCU: 0x24608, offset: 0x3B2AE3, size: 0x8, addend: 0x0, symName: __ZN7testing8internal32FormatEpochTimeInMillisAsIso8601Ex, symObjAddr: 0x14814, symBinAddr: 0x10004769C, symSize: 0x6E0 }
  - { offsetInCU: 0x271AC, offset: 0x3B5687, size: 0x8, addend: 0x0, symName: __ZN7testing8internal37FormatCompilerIndependentFileLocationEPKci, symObjAddr: 0x16738, symBinAddr: 0x1000495C0, symSize: 0x2E0 }
  - { offsetInCU: 0x28384, offset: 0x3B685F, size: 0x8, addend: 0x0, symName: __ZN7testing8internalL32FormatEpochTimeInMillisAsRFC3339Ex, symObjAddr: 0x19E80, symBinAddr: 0x10004CD08, symSize: 0x748 }
  - { offsetInCU: 0x2B1B6, offset: 0x3B9691, size: 0x8, addend: 0x0, symName: __ZN7testing8internalL28FormatTimeInMillisAsDurationEx, symObjAddr: 0x1A5C8, symBinAddr: 0x10004D450, symSize: 0xF4 }
  - { offsetInCU: 0x2B478, offset: 0x3B9953, size: 0x8, addend: 0x0, symName: __ZN7testing8internal35HandleExceptionsInMethodIfSupportedINS0_12UnitTestImplEbEET0_PT_MS4_FS3_vEPKc, symObjAddr: 0x1C070, symBinAddr: 0x10004EEF8, symSize: 0x180 }
  - { offsetInCU: 0x2B968, offset: 0x3B9E43, size: 0x8, addend: 0x0, symName: __ZN7testing8internal30WriteToShardStatusFileIfNeededEv, symObjAddr: 0x1E028, symBinAddr: 0x100050EB0, symSize: 0x84 }
  - { offsetInCU: 0x2BA31, offset: 0x3B9F0C, size: 0x8, addend: 0x0, symName: __ZN7testing8internal17GetNextRandomSeedEi, symObjAddr: 0x1ED58, symBinAddr: 0x100051BE0, symSize: 0xD8 }
  - { offsetInCU: 0x2BCBE, offset: 0x3BA199, size: 0x8, addend: 0x0, symName: __ZN7testing8internal29ParseInternalRunDeathTestFlagEv, symObjAddr: 0x2496C, symBinAddr: 0x1000577F4, symSize: 0x3E4 }
  - { offsetInCU: 0x2CB94, offset: 0x3BB06F, size: 0x8, addend: 0x0, symName: __ZN7testing8internal20ShouldRunTestOnShardEiii, symObjAddr: 0x1F13C, symBinAddr: 0x100051FC4, symSize: 0x14 }
  - { offsetInCU: 0x2CBC0, offset: 0x3BB09B, size: 0x8, addend: 0x0, symName: __ZN7testing8internal31GetCurrentOsStackTraceExceptTopEPNS_8UnitTestEi, symObjAddr: 0x1F3F0, symBinAddr: 0x100052278, symSize: 0x2C }
  - { offsetInCU: 0x2CC0B, offset: 0x3BB0E6, size: 0x8, addend: 0x0, symName: __ZN7testing8internal10SkipPrefixEPKcPS2_, symObjAddr: 0x1F41C, symBinAddr: 0x1000522A4, symSize: 0x58 }
  - { offsetInCU: 0x2CC23, offset: 0x3BB0FE, size: 0x8, addend: 0x0, symName: __ZN7testing8internal10SkipPrefixEPKcPS2_, symObjAddr: 0x1F41C, symBinAddr: 0x1000522A4, symSize: 0x58 }
  - { offsetInCU: 0x2CC53, offset: 0x3BB12E, size: 0x8, addend: 0x0, symName: __ZN7testing8internal14ParseInt32FlagEPKcS2_Pi, symObjAddr: 0x1F474, symBinAddr: 0x1000522FC, symSize: 0x11C }
  - { offsetInCU: 0x2D0D2, offset: 0x3BB5AD, size: 0x8, addend: 0x0, symName: __ZN7testing8internalL14ParseFlagValueEPKcS2_b, symObjAddr: 0x1F590, symBinAddr: 0x100052418, symSize: 0x17C }
  - { offsetInCU: 0x2DA62, offset: 0x3BBF3D, size: 0x8, addend: 0x0, symName: __ZN7testing8internal24ParseGoogleTestFlagsOnlyEPiPPc, symObjAddr: 0x1F70C, symBinAddr: 0x100052594, symSize: 0x40 }
  - { offsetInCU: 0x2DAA5, offset: 0x3BBF80, size: 0x8, addend: 0x0, symName: __ZN7testing8internal28ParseGoogleTestFlagsOnlyImplIcEEvPiPPT_, symObjAddr: 0x1F74C, symBinAddr: 0x1000525D4, symSize: 0x2AC }
  - { offsetInCU: 0x2E3FE, offset: 0x3BC8D9, size: 0x8, addend: 0x0, symName: __ZN7testing8internalL13ParseBoolFlagEPKcS2_Pb, symObjAddr: 0x2ED18, symBinAddr: 0x100061780, symSize: 0x58 }
  - { offsetInCU: 0x2E459, offset: 0x3BC934, size: 0x8, addend: 0x0, symName: __ZN7testing8internal18StreamableToStringIPcEENSt3__112basic_stringIcNS3_11char_traitsIcEENS3_9allocatorIcEEEERKT_, symObjAddr: 0x2E550, symBinAddr: 0x100060FB8, symSize: 0xC8 }
  - { offsetInCU: 0x2E705, offset: 0x3BCBE0, size: 0x8, addend: 0x0, symName: __ZN7testing8internalL19ParseGoogleTestFlagEPKc, symObjAddr: 0x2E618, symBinAddr: 0x100061080, symSize: 0x320 }
  - { offsetInCU: 0x2EA3D, offset: 0x3BCF18, size: 0x8, addend: 0x0, symName: __ZN7testing8internalL15ParseStringFlagINSt3__112basic_stringIcNS2_11char_traitsIcEENS2_9allocatorIcEEEEEEbPKcSA_PT_, symObjAddr: 0x2E938, symBinAddr: 0x1000613A0, symSize: 0x40 }
  - { offsetInCU: 0x2EA50, offset: 0x3BCF2B, size: 0x8, addend: 0x0, symName: __ZN7testing8internalL17LoadFlagsFromFileERKNSt3__112basic_stringIcNS1_11char_traitsIcEENS1_9allocatorIcEEEE, symObjAddr: 0x2E978, symBinAddr: 0x1000613E0, symSize: 0x1FC }
  - { offsetInCU: 0x2F401, offset: 0x3BD8DC, size: 0x8, addend: 0x0, symName: __ZN7testing8internalL17PrintColorEncodedEPKc, symObjAddr: 0x2EB74, symBinAddr: 0x1000615DC, symSize: 0x1A4 }
  - { offsetInCU: 0x2F9B8, offset: 0x3BDE93, size: 0x8, addend: 0x0, symName: __ZN7testing8internal24ParseGoogleTestFlagsOnlyEPiPPw, symObjAddr: 0x1F9F8, symBinAddr: 0x100052880, symSize: 0x4 }
  - { offsetInCU: 0x2F9DE, offset: 0x3BDEB9, size: 0x8, addend: 0x0, symName: __ZN7testing8internal28ParseGoogleTestFlagsOnlyImplIwEEvPiPPT_, symObjAddr: 0x1F9FC, symBinAddr: 0x100052884, symSize: 0x2AC }
  - { offsetInCU: 0x2F9F8, offset: 0x3BDED3, size: 0x8, addend: 0x0, symName: __ZN7testing8internal28ParseGoogleTestFlagsOnlyImplIwEEvPiPPT_, symObjAddr: 0x1F9FC, symBinAddr: 0x100052884, symSize: 0x2AC }
  - { offsetInCU: 0x302B1, offset: 0x3BE78C, size: 0x8, addend: 0x0, symName: __ZN7testing8internal18StreamableToStringIPwEENSt3__112basic_stringIcNS3_11char_traitsIcEENS3_9allocatorIcEEEERKT_, symObjAddr: 0x2ED70, symBinAddr: 0x1000617D8, symSize: 0xC4 }
  - { offsetInCU: 0x30622, offset: 0x3BEAFD, size: 0x8, addend: 0x0, symName: __ZN7testing8internal18InitGoogleTestImplIcEEvPiPPT_, symObjAddr: 0x1FCAC, symBinAddr: 0x100052B34, symSize: 0x1C4 }
  - { offsetInCU: 0x30FD8, offset: 0x3BF4B3, size: 0x8, addend: 0x0, symName: __ZN7testing8internal18InitGoogleTestImplIwEEvPiPPT_, symObjAddr: 0x1FE74, symBinAddr: 0x100052CFC, symSize: 0x1A8 }
  - { offsetInCU: 0x3198D, offset: 0x3BFE68, size: 0x8, addend: 0x0, symName: __ZN7testing8internal16InDeathTestChildEv, symObjAddr: 0x20200, symBinAddr: 0x100053088, symSize: 0x94 }
  - { offsetInCU: 0x31AFC, offset: 0x3BFFD7, size: 0x8, addend: 0x0, symName: __ZN7testing8internal20ExitedUnsuccessfullyEi, symObjAddr: 0x20304, symBinAddr: 0x10005318C, symSize: 0x10 }
  - { offsetInCU: 0x31B44, offset: 0x3C001F, size: 0x8, addend: 0x0, symName: __ZN7testing8internal23GetLastErrnoDescriptionEv, symObjAddr: 0x20314, symBinAddr: 0x10005319C, symSize: 0xB0 }
  - { offsetInCU: 0x31EEE, offset: 0x3C03C9, size: 0x8, addend: 0x0, symName: __ZN7testing8internal9DeathTestC2Ev, symObjAddr: 0x203C4, symBinAddr: 0x10005324C, symSize: 0xAC }
  - { offsetInCU: 0x31EFF, offset: 0x3C03DA, size: 0x8, addend: 0x0, symName: __ZN7testing8internalL14DeathTestAbortERKNSt3__112basic_stringIcNS1_11char_traitsIcEENS1_9allocatorIcEEEE, symObjAddr: 0x20470, symBinAddr: 0x1000532F8, symSize: 0x90 }
  - { offsetInCU: 0x323A5, offset: 0x3C0880, size: 0x8, addend: 0x0, symName: __ZN7testing8internal17GetCapturedStderrEv, symObjAddr: 0x20E20, symBinAddr: 0x100053CA8, symSize: 0x68 }
  - { offsetInCU: 0x3265D, offset: 0x3C0B38, size: 0x8, addend: 0x0, symName: __ZN7testing8internalL21FormatDeathTestOutputERKNSt3__112basic_stringIcNS1_11char_traitsIcEENS1_9allocatorIcEEEE, symObjAddr: 0x21974, symBinAddr: 0x1000547FC, symSize: 0x18C }
  - { offsetInCU: 0x32DE4, offset: 0x3C12BF, size: 0x8, addend: 0x0, symName: __ZN7testing8internalL13CaptureStreamEiPKcPPNS0_14CapturedStreamE, symObjAddr: 0x265F8, symBinAddr: 0x100059480, symSize: 0xE0 }
  - { offsetInCU: 0x3300E, offset: 0x3C14E9, size: 0x8, addend: 0x0, symName: __ZN7testing8internal14GetThreadCountEv, symObjAddr: 0x22CD8, symBinAddr: 0x100055B60, symSize: 0x60 }
  - { offsetInCU: 0x3307B, offset: 0x3C1556, size: 0x8, addend: 0x0, symName: __ZN7testing8internal13CaptureStderrEv, symObjAddr: 0x22D38, symBinAddr: 0x100055BC0, symSize: 0x18 }
  - { offsetInCU: 0x33093, offset: 0x3C156E, size: 0x8, addend: 0x0, symName: __ZN7testing8internal13ExecDeathTest10AssumeRoleEv, symObjAddr: 0x22D50, symBinAddr: 0x100055BD8, symSize: 0x1560 }
  - { offsetInCU: 0x33225, offset: 0x3C1700, size: 0x8, addend: 0x0, symName: __ZN7testing8internalL22ExecDeathTestChildMainEPv, symObjAddr: 0x2A8DC, symBinAddr: 0x10005D380, symSize: 0x778 }
  - { offsetInCU: 0x35A90, offset: 0x3C3F6B, size: 0x8, addend: 0x0, symName: __ZN7testing8internal13CaptureStdoutEv, symObjAddr: 0x265E0, symBinAddr: 0x100059468, symSize: 0x18 }
  - { offsetInCU: 0x35AAE, offset: 0x3C3F89, size: 0x8, addend: 0x0, symName: __ZN7testing8internalL13CaptureStreamEiPKcPPNS0_14CapturedStreamE, symObjAddr: 0x265F8, symBinAddr: 0x100059480, symSize: 0xE0 }
  - { offsetInCU: 0x35ABF, offset: 0x3C3F9A, size: 0x8, addend: 0x0, symName: __ZN7testing8internal17GetCapturedStdoutEv, symObjAddr: 0x266D8, symBinAddr: 0x100059560, symSize: 0x68 }
  - { offsetInCU: 0x35CF4, offset: 0x3C41CF, size: 0x8, addend: 0x0, symName: __ZN7testing8internal11GetFileSizeEP7__sFILE, symObjAddr: 0x26740, symBinAddr: 0x1000595C8, symSize: 0x2C }
  - { offsetInCU: 0x35D34, offset: 0x3C420F, size: 0x8, addend: 0x0, symName: __ZN7testing8internal14ReadEntireFileEP7__sFILE, symObjAddr: 0x2676C, symBinAddr: 0x1000595F4, symSize: 0xE4 }
  - { offsetInCU: 0x35D64, offset: 0x3C423F, size: 0x8, addend: 0x0, symName: __ZN7testing8internal14ReadEntireFileEP7__sFILE, symObjAddr: 0x2676C, symBinAddr: 0x1000595F4, symSize: 0xE4 }
  - { offsetInCU: 0x36196, offset: 0x3C4671, size: 0x8, addend: 0x0, symName: __ZN7testing8internal18GetInjectableArgvsEv, symObjAddr: 0x26850, symBinAddr: 0x1000596D8, symSize: 0x20 }
  - { offsetInCU: 0x361A7, offset: 0x3C4682, size: 0x8, addend: 0x0, symName: __ZN7testing8internal18GetInjectableArgvsEv, symObjAddr: 0x26850, symBinAddr: 0x1000596D8, symSize: 0x20 }
  - { offsetInCU: 0x361BF, offset: 0x3C469A, size: 0x8, addend: 0x0, symName: __ZN7testing8internal18SetInjectableArgvsEPKNSt3__16vectorINS1_12basic_stringIcNS1_11char_traitsIcEENS1_9allocatorIcEEEENS6_IS8_EEEE, symObjAddr: 0x26870, symBinAddr: 0x1000596F8, symSize: 0x90 }
  - { offsetInCU: 0x361D2, offset: 0x3C46AD, size: 0x8, addend: 0x0, symName: __ZN7testing8internal18SetInjectableArgvsEPKNSt3__16vectorINS1_12basic_stringIcNS1_11char_traitsIcEENS1_9allocatorIcEEEENS6_IS8_EEEE, symObjAddr: 0x26870, symBinAddr: 0x1000596F8, symSize: 0x90 }
  - { offsetInCU: 0x364AF, offset: 0x3C498A, size: 0x8, addend: 0x0, symName: __ZN7testing8internal18SetInjectableArgvsERKNSt3__16vectorINS1_12basic_stringIcNS1_11char_traitsIcEENS1_9allocatorIcEEEENS6_IS8_EEEE, symObjAddr: 0x26900, symBinAddr: 0x100059788, symSize: 0xB8 }
  - { offsetInCU: 0x367EB, offset: 0x3C4CC6, size: 0x8, addend: 0x0, symName: __ZN7testing8internal20ClearInjectableArgvsEv, symObjAddr: 0x269B8, symBinAddr: 0x100059840, symSize: 0x7C }
  - { offsetInCU: 0x36ACA, offset: 0x3C4FA5, size: 0x8, addend: 0x0, symName: __ZN7testing8internal20PrintBytesInObjectToEPKhmPNSt3__113basic_ostreamIcNS3_11char_traitsIcEEEE, symObjAddr: 0x26C2C, symBinAddr: 0x100059AB4, symSize: 0xAC }
  - { offsetInCU: 0x36C43, offset: 0x3C511E, size: 0x8, addend: 0x0, symName: __ZN7testing8internal7PrintToEhPNSt3__113basic_ostreamIcNS1_11char_traitsIcEEEE, symObjAddr: 0x26CD8, symBinAddr: 0x100059B60, symSize: 0x4 }
  - { offsetInCU: 0x36C5B, offset: 0x3C5136, size: 0x8, addend: 0x0, symName: __ZN7testing8internal7PrintToEhPNSt3__113basic_ostreamIcNS1_11char_traitsIcEEEE, symObjAddr: 0x26CD8, symBinAddr: 0x100059B60, symSize: 0x4 }
  - { offsetInCU: 0x36C94, offset: 0x3C516F, size: 0x8, addend: 0x0, symName: __ZN7testing8internal18PrintCharAndCodeToIhhEEvT0_PNSt3__113basic_ostreamIcNS3_11char_traitsIcEEEE, symObjAddr: 0x26CDC, symBinAddr: 0x100059B64, symSize: 0x254 }
  - { offsetInCU: 0x36CAF, offset: 0x3C518A, size: 0x8, addend: 0x0, symName: __ZN7testing8internal18PrintCharAndCodeToIhhEEvT0_PNSt3__113basic_ostreamIcNS3_11char_traitsIcEEEE, symObjAddr: 0x26CDC, symBinAddr: 0x100059B64, symSize: 0x254 }
  - { offsetInCU: 0x3753E, offset: 0x3C5A19, size: 0x8, addend: 0x0, symName: __ZN7testing8internal7PrintToEaPNSt3__113basic_ostreamIcNS1_11char_traitsIcEEEE, symObjAddr: 0x26F30, symBinAddr: 0x100059DB8, symSize: 0x4 }
  - { offsetInCU: 0x37577, offset: 0x3C5A52, size: 0x8, addend: 0x0, symName: __ZN7testing8internal18PrintCharAndCodeToIhaEEvT0_PNSt3__113basic_ostreamIcNS3_11char_traitsIcEEEE, symObjAddr: 0x26F34, symBinAddr: 0x100059DBC, symSize: 0x254 }
  - { offsetInCU: 0x37592, offset: 0x3C5A6D, size: 0x8, addend: 0x0, symName: __ZN7testing8internal18PrintCharAndCodeToIhaEEvT0_PNSt3__113basic_ostreamIcNS3_11char_traitsIcEEEE, symObjAddr: 0x26F34, symBinAddr: 0x100059DBC, symSize: 0x254 }
  - { offsetInCU: 0x37DFC, offset: 0x3C62D7, size: 0x8, addend: 0x0, symName: __ZN7testing8internal7PrintToEwPNSt3__113basic_ostreamIcNS1_11char_traitsIcEEEE, symObjAddr: 0x27188, symBinAddr: 0x10005A010, symSize: 0x4 }
  - { offsetInCU: 0x37E35, offset: 0x3C6310, size: 0x8, addend: 0x0, symName: __ZN7testing8internal18PrintCharAndCodeToIwwEEvT0_PNSt3__113basic_ostreamIcNS3_11char_traitsIcEEEE, symObjAddr: 0x2718C, symBinAddr: 0x10005A014, symSize: 0x124 }
  - { offsetInCU: 0x37E50, offset: 0x3C632B, size: 0x8, addend: 0x0, symName: __ZN7testing8internal18PrintCharAndCodeToIwwEEvT0_PNSt3__113basic_ostreamIcNS3_11char_traitsIcEEEE, symObjAddr: 0x2718C, symBinAddr: 0x10005A014, symSize: 0x124 }
  - { offsetInCU: 0x38323, offset: 0x3C67FE, size: 0x8, addend: 0x0, symName: __ZN7testing8internalL20PrintAsCharLiteralToIwwEENS0_10CharFormatET0_PNSt3__113basic_ostreamIcNS4_11char_traitsIcEEEE, symObjAddr: 0x2F1CC, symBinAddr: 0x100061C34, symSize: 0x18C }
  - { offsetInCU: 0x3870D, offset: 0x3C6BE8, size: 0x8, addend: 0x0, symName: __ZN7testing8internal7PrintToEDiPNSt3__113basic_ostreamIcNS1_11char_traitsIcEEEE, symObjAddr: 0x272B0, symBinAddr: 0x10005A138, symSize: 0x10C }
  - { offsetInCU: 0x3899F, offset: 0x3C6E7A, size: 0x8, addend: 0x0, symName: __ZN7testing8internal19UniversalPrintArrayEPKcmPNSt3__113basic_ostreamIcNS3_11char_traitsIcEEEE, symObjAddr: 0x273BC, symBinAddr: 0x10005A244, symSize: 0x58 }
  - { offsetInCU: 0x38A74, offset: 0x3C6F4F, size: 0x8, addend: 0x0, symName: __ZN7testing8internal19UniversalPrintArrayEPKwmPNSt3__113basic_ostreamIcNS3_11char_traitsIcEEEE, symObjAddr: 0x27414, symBinAddr: 0x10005A29C, symSize: 0x58 }
  - { offsetInCU: 0x38A86, offset: 0x3C6F61, size: 0x8, addend: 0x0, symName: __ZN7testing8internalL20PrintCharsAsStringToIcEENS0_10CharFormatEPKT_mPNSt3__113basic_ostreamIcNS6_11char_traitsIcEEEE, symObjAddr: 0x274DC, symBinAddr: 0x10005A364, symSize: 0x144 }
  - { offsetInCU: 0x38DA6, offset: 0x3C7281, size: 0x8, addend: 0x0, symName: __ZN7testing8internal19UniversalPrintArrayEPKwmPNSt3__113basic_ostreamIcNS3_11char_traitsIcEEEE, symObjAddr: 0x27414, symBinAddr: 0x10005A29C, symSize: 0x58 }
  - { offsetInCU: 0x38E7B, offset: 0x3C7356, size: 0x8, addend: 0x0, symName: __ZN7testing8internal7PrintToEPKcPNSt3__113basic_ostreamIcNS3_11char_traitsIcEEEE, symObjAddr: 0x2746C, symBinAddr: 0x10005A2F4, symSize: 0x70 }
  - { offsetInCU: 0x38E8E, offset: 0x3C7369, size: 0x8, addend: 0x0, symName: __ZN7testing8internalL20PrintCharsAsStringToIwEENS0_10CharFormatEPKT_mPNSt3__113basic_ostreamIcNS6_11char_traitsIcEEEE, symObjAddr: 0x27690, symBinAddr: 0x10005A518, symSize: 0x138 }
  - { offsetInCU: 0x39128, offset: 0x3C7603, size: 0x8, addend: 0x0, symName: __ZN7testing8internal13PrintStringToERKNSt3__112basic_stringIcNS1_11char_traitsIcEENS1_9allocatorIcEEEEPNS1_13basic_ostreamIcS4_EE, symObjAddr: 0x277C8, symBinAddr: 0x10005A650, symSize: 0x2E0 }
  - { offsetInCU: 0x39148, offset: 0x3C7623, size: 0x8, addend: 0x0, symName: __ZN7testing8internal7PrintToEPKcPNSt3__113basic_ostreamIcNS3_11char_traitsIcEEEE, symObjAddr: 0x2746C, symBinAddr: 0x10005A2F4, symSize: 0x70 }
  - { offsetInCU: 0x39202, offset: 0x3C76DD, size: 0x8, addend: 0x0, symName: __ZN7testing8internalL20PrintCharsAsStringToIcEENS0_10CharFormatEPKT_mPNSt3__113basic_ostreamIcNS6_11char_traitsIcEEEE, symObjAddr: 0x274DC, symBinAddr: 0x10005A364, symSize: 0x144 }
  - { offsetInCU: 0x39287, offset: 0x3C7762, size: 0x8, addend: 0x0, symName: __ZN7testing8internal7PrintToEPKwPNSt3__113basic_ostreamIcNS3_11char_traitsIcEEEE, symObjAddr: 0x27620, symBinAddr: 0x10005A4A8, symSize: 0x70 }
  - { offsetInCU: 0x39341, offset: 0x3C781C, size: 0x8, addend: 0x0, symName: __ZN7testing8internalL20PrintCharsAsStringToIwEENS0_10CharFormatEPKT_mPNSt3__113basic_ostreamIcNS6_11char_traitsIcEEEE, symObjAddr: 0x27690, symBinAddr: 0x10005A518, symSize: 0x138 }
  - { offsetInCU: 0x39382, offset: 0x3C785D, size: 0x8, addend: 0x0, symName: __ZN7testing8internal13PrintStringToERKNSt3__112basic_stringIcNS1_11char_traitsIcEENS1_9allocatorIcEEEEPNS1_13basic_ostreamIcS4_EE, symObjAddr: 0x277C8, symBinAddr: 0x10005A650, symSize: 0x2E0 }
  - { offsetInCU: 0x3968E, offset: 0x3C7B69, size: 0x8, addend: 0x0, symName: __ZN7testing8internal17PrintWideStringToERKNSt3__112basic_stringIwNS1_11char_traitsIwEENS1_9allocatorIwEEEEPNS1_13basic_ostreamIcNS3_IcEEEE, symObjAddr: 0x27AA8, symBinAddr: 0x10005A930, symSize: 0x24 }
  - { offsetInCU: 0x3969F, offset: 0x3C7B7A, size: 0x8, addend: 0x0, symName: __ZN7testing8internal17PrintWideStringToERKNSt3__112basic_stringIwNS1_11char_traitsIwEENS1_9allocatorIwEEEEPNS1_13basic_ostreamIcNS3_IcEEEE, symObjAddr: 0x27AA8, symBinAddr: 0x10005A930, symSize: 0x24 }
  - { offsetInCU: 0x3972E, offset: 0x3C7C09, size: 0x8, addend: 0x0, symName: __ZN7testing14TestPartResult14ExtractSummaryEPKc, symObjAddr: 0x27ACC, symBinAddr: 0x10005A954, symSize: 0x120 }
  - { offsetInCU: 0x399A1, offset: 0x3C7E7C, size: 0x8, addend: 0x0, symName: __ZN7testing8internal19GetPrefixUntilCommaEPKc, symObjAddr: 0x2B5D0, symBinAddr: 0x10005E074, symSize: 0x11C }
  - { offsetInCU: 0x39F61, offset: 0x3C843C, size: 0x8, addend: 0x0, symName: __ZN7testing8internal13DeathTestImplD2Ev, symObjAddr: 0x2B6EC, symBinAddr: 0x10005E190, symSize: 0x220 }
  - { offsetInCU: 0x39F72, offset: 0x3C844D, size: 0x8, addend: 0x0, symName: __ZN7testing8internal27CheckedDowncastToActualTypeINS0_11ThreadLocalINSt3__16vectorINS0_9TraceInfoENS3_9allocatorIS5_EEEEE11ValueHolderENS0_26ThreadLocalValueHolderBaseEEEPT_PT0_, symObjAddr: 0x2A0A0, symBinAddr: 0x10005CB58, symSize: 0xDC }
  - { offsetInCU: 0x3A23C, offset: 0x3C8717, size: 0x8, addend: 0x0, symName: __ZN7testing8internal27CheckedDowncastToActualTypeINS0_11ThreadLocalIPNS_31TestPartResultReporterInterfaceEE11ValueHolderENS0_26ThreadLocalValueHolderBaseEEEPT_PT0_, symObjAddr: 0x2CA60, symBinAddr: 0x10005F504, symSize: 0xDC }
  - { offsetInCU: 0x3A521, offset: 0x3C89FC, size: 0x8, addend: 0x0, symName: __ZN7testing8internalL15ParseStringFlagINSt3__112basic_stringIcNS2_11char_traitsIcEENS2_9allocatorIcEEEEEEbPKcSA_PT_, symObjAddr: 0x2E938, symBinAddr: 0x1000613A0, symSize: 0x40 }
  - { offsetInCU: 0x3A630, offset: 0x3C8B0B, size: 0x8, addend: 0x0, symName: __ZN7testing21FLAGS_gtest_fail_fastE, symObjAddr: 0x367639, symBinAddr: 0x100078381, symSize: 0x0 }
  - { offsetInCU: 0x3A64A, offset: 0x3C8B25, size: 0x8, addend: 0x0, symName: __ZN7testing35FLAGS_gtest_also_run_disabled_testsE, symObjAddr: 0x36763A, symBinAddr: 0x100078382, symSize: 0x0 }
  - { offsetInCU: 0x3A664, offset: 0x3C8B3F, size: 0x8, addend: 0x0, symName: __ZN7testing28FLAGS_gtest_break_on_failureE, symObjAddr: 0x36763B, symBinAddr: 0x100078383, symSize: 0x0 }
  - { offsetInCU: 0x3A67E, offset: 0x3C8B59, size: 0x8, addend: 0x0, symName: __ZN7testing28FLAGS_gtest_catch_exceptionsE, symObjAddr: 0x36763C, symBinAddr: 0x100078384, symSize: 0x0 }
  - { offsetInCU: 0x3A698, offset: 0x3C8B73, size: 0x8, addend: 0x0, symName: __ZN7testing17FLAGS_gtest_colorE, symObjAddr: 0x367640, symBinAddr: 0x100078388, symSize: 0x0 }
  - { offsetInCU: 0x3A6B2, offset: 0x3C8B8D, size: 0x8, addend: 0x0, symName: __ZN7testing18FLAGS_gtest_filterE, symObjAddr: 0x367658, symBinAddr: 0x1000783A0, symSize: 0x0 }
  - { offsetInCU: 0x3A6CD, offset: 0x3C8BA8, size: 0x8, addend: 0x0, symName: __ZN7testing42FLAGS_gtest_install_failure_signal_handlerE, symObjAddr: 0x367670, symBinAddr: 0x1000783B8, symSize: 0x0 }
  - { offsetInCU: 0x3A6E8, offset: 0x3C8BC3, size: 0x8, addend: 0x0, symName: __ZN7testing22FLAGS_gtest_list_testsE, symObjAddr: 0x367671, symBinAddr: 0x1000783B9, symSize: 0x0 }
  - { offsetInCU: 0x3A703, offset: 0x3C8BDE, size: 0x8, addend: 0x0, symName: __ZN7testing18FLAGS_gtest_outputE, symObjAddr: 0x367678, symBinAddr: 0x1000783C0, symSize: 0x0 }
  - { offsetInCU: 0x3A71E, offset: 0x3C8BF9, size: 0x8, addend: 0x0, symName: __ZN7testing17FLAGS_gtest_briefE, symObjAddr: 0x367690, symBinAddr: 0x1000783D8, symSize: 0x0 }
  - { offsetInCU: 0x3A739, offset: 0x3C8C14, size: 0x8, addend: 0x0, symName: __ZN7testing22FLAGS_gtest_print_timeE, symObjAddr: 0x367691, symBinAddr: 0x1000783D9, symSize: 0x0 }
  - { offsetInCU: 0x3A754, offset: 0x3C8C2F, size: 0x8, addend: 0x0, symName: __ZN7testing22FLAGS_gtest_print_utf8E, symObjAddr: 0x367692, symBinAddr: 0x1000783DA, symSize: 0x0 }
  - { offsetInCU: 0x3A76F, offset: 0x3C8C4A, size: 0x8, addend: 0x0, symName: __ZN7testing23FLAGS_gtest_random_seedE, symObjAddr: 0x367694, symBinAddr: 0x1000783DC, symSize: 0x0 }
  - { offsetInCU: 0x3A78A, offset: 0x3C8C65, size: 0x8, addend: 0x0, symName: __ZN7testing18FLAGS_gtest_repeatE, symObjAddr: 0x367698, symBinAddr: 0x1000783E0, symSize: 0x0 }
  - { offsetInCU: 0x3A7A5, offset: 0x3C8C80, size: 0x8, addend: 0x0, symName: __ZN7testing38FLAGS_gtest_show_internal_stack_framesE, symObjAddr: 0x36769C, symBinAddr: 0x1000783E4, symSize: 0x0 }
  - { offsetInCU: 0x3A7C0, offset: 0x3C8C9B, size: 0x8, addend: 0x0, symName: __ZN7testing19FLAGS_gtest_shuffleE, symObjAddr: 0x36769D, symBinAddr: 0x1000783E5, symSize: 0x0 }
  - { offsetInCU: 0x3A7E7, offset: 0x3C8CC2, size: 0x8, addend: 0x0, symName: __ZN7testing29FLAGS_gtest_stack_trace_depthE, symObjAddr: 0x3676A0, symBinAddr: 0x1000783E8, symSize: 0x0 }
  - { offsetInCU: 0x3A802, offset: 0x3C8CDD, size: 0x8, addend: 0x0, symName: __ZN7testing28FLAGS_gtest_stream_result_toE, symObjAddr: 0x3676A8, symBinAddr: 0x1000783F0, symSize: 0x0 }
  - { offsetInCU: 0x3A81D, offset: 0x3C8CF8, size: 0x8, addend: 0x0, symName: __ZN7testing28FLAGS_gtest_throw_on_failureE, symObjAddr: 0x3676C0, symBinAddr: 0x100078408, symSize: 0x0 }
  - { offsetInCU: 0x3A838, offset: 0x3C8D13, size: 0x8, addend: 0x0, symName: __ZN7testing20FLAGS_gtest_flagfileE, symObjAddr: 0x3676C8, symBinAddr: 0x100078410, symSize: 0x0 }
  - { offsetInCU: 0x3BE9C, offset: 0x3CA377, size: 0x8, addend: 0x0, symName: __ZN7testing28FLAGS_gtest_death_test_styleE, symObjAddr: 0x367700, symBinAddr: 0x100078448, symSize: 0x0 }
  - { offsetInCU: 0x3BEB6, offset: 0x3CA391, size: 0x8, addend: 0x0, symName: __ZN7testing31FLAGS_gtest_death_test_use_forkE, symObjAddr: 0x367718, symBinAddr: 0x100078460, symSize: 0x0 }
  - { offsetInCU: 0x3BED0, offset: 0x3CA3AB, size: 0x8, addend: 0x0, symName: __ZN7testingL18kDefaultOutputFileE, symObjAddr: 0x32A69, symBinAddr: 0x10006CBEE, symSize: 0x0 }
  - { offsetInCU: 0x3BEE9, offset: 0x3CA3C4, size: 0x8, addend: 0x0, symName: __ZN7testingL16kUniversalFilterE, symObjAddr: 0x32A75, symBinAddr: 0x10006CBFA, symSize: 0x0 }
  - { offsetInCU: 0x3BF03, offset: 0x3CA3DE, size: 0x8, addend: 0x0, symName: __ZN7testingL29kReservedTestSuitesAttributesE, symObjAddr: 0x37B28, symBinAddr: 0x100075A10, symSize: 0x0 }
  - { offsetInCU: 0x3BF1E, offset: 0x3CA3F9, size: 0x8, addend: 0x0, symName: __ZN7testingL28kReservedTestSuiteAttributesE, symObjAddr: 0x37B68, symBinAddr: 0x100075A50, symSize: 0x0 }
  - { offsetInCU: 0x3BF39, offset: 0x3CA414, size: 0x8, addend: 0x0, symName: __ZN7testingL27kReservedTestCaseAttributesE, symObjAddr: 0x37BA8, symBinAddr: 0x100075A90, symSize: 0x0 }
  - { offsetInCU: 0x3BF53, offset: 0x3CA42E, size: 0x8, addend: 0x0, symName: __ZN7testingL16kTestTotalShardsE, symObjAddr: 0x32A77, symBinAddr: 0x10006CBFC, symSize: 0x0 }
  - { offsetInCU: 0x3BF6C, offset: 0x3CA447, size: 0x8, addend: 0x0, symName: __ZN7testingL15kTestShardIndexE, symObjAddr: 0x32A8A, symBinAddr: 0x10006CC0F, symSize: 0x0 }
  - { offsetInCU: 0x3BF86, offset: 0x3CA461, size: 0x8, addend: 0x0, symName: __ZN7testingL33kReservedOutputTestCaseAttributesE, symObjAddr: 0x37BE8, symBinAddr: 0x100075AD0, symSize: 0x0 }
  - { offsetInCU: 0x3BFA0, offset: 0x3CA47B, size: 0x8, addend: 0x0, symName: __ZN7testingL21kDeathTestSuiteFilterE, symObjAddr: 0x32ADA, symBinAddr: 0x10006CC5F, symSize: 0x0 }
  - { offsetInCU: 0x3BFB9, offset: 0x3CA494, size: 0x8, addend: 0x0, symName: __ZN7testingL20kTestShardStatusFileE, symObjAddr: 0x32AF2, symBinAddr: 0x10006CC77, symSize: 0x0 }
  - { offsetInCU: 0x3BFD2, offset: 0x3CA4AD, size: 0x8, addend: 0x0, symName: __ZN7testingL18kDisableTestFilterE, symObjAddr: 0x32B0A, symBinAddr: 0x10006CC8F, symSize: 0x0 }
  - { offsetInCU: 0x3D255, offset: 0x3CB730, size: 0x8, addend: 0x0, symName: __ZN7testing12_GLOBAL__N_115IsSubstringImplIPKcEENS_15AssertionResultEbS3_S3_RKT_S7_, symObjAddr: 0xA048, symBinAddr: 0x10003CED0, symSize: 0x1D4 }
  - { offsetInCU: 0x3D8B7, offset: 0x3CBD92, size: 0x8, addend: 0x0, symName: __ZN7testing12_GLOBAL__N_115IsSubstringImplIPKwEENS_15AssertionResultEbPKcS6_RKT_S9_, symObjAddr: 0xA254, symBinAddr: 0x10003D0DC, symSize: 0x1D4 }
  - { offsetInCU: 0x3DF49, offset: 0x3CC424, size: 0x8, addend: 0x0, symName: __ZN7testing12_GLOBAL__N_115IsSubstringImplINSt3__112basic_stringIcNS2_11char_traitsIcEENS2_9allocatorIcEEEEEENS_15AssertionResultEbPKcSB_RKT_SE_, symObjAddr: 0xA4B0, symBinAddr: 0x10003D338, symSize: 0x288 }
  - { offsetInCU: 0x3E7CF, offset: 0x3CCCAA, size: 0x8, addend: 0x0, symName: __ZN7testing12_GLOBAL__N_115IsSubstringImplINSt3__112basic_stringIwNS2_11char_traitsIwEENS2_9allocatorIwEEEEEENS_15AssertionResultEbPKcSB_RKT_SE_, symObjAddr: 0xA768, symBinAddr: 0x10003D5F0, symSize: 0x28C }
  - { offsetInCU: 0x3F0B3, offset: 0x3CD58E, size: 0x8, addend: 0x0, symName: __ZN7testing12_GLOBAL__N_126PrintByteSegmentInObjectToEPKhmmPNSt3__113basic_ostreamIcNS3_11char_traitsIcEEEE, symObjAddr: 0x2B4FC, symBinAddr: 0x10005DFA0, symSize: 0xD4 }
  - { offsetInCU: 0x3F405, offset: 0x3CD8E0, size: 0x8, addend: 0x0, symName: __ZN7testinglsERNSt3__113basic_ostreamIcNS0_11char_traitsIcEEEERKNS_14TestPartResultE, symObjAddr: 0x27BEC, symBinAddr: 0x10005AA74, symSize: 0x1D4 }
  - { offsetInCU: 0x3FA61, offset: 0x3CDF3C, size: 0x8, addend: 0x0, symName: __ZN7testing16AssertionSuccessEv, symObjAddr: 0x5E8C, symBinAddr: 0x100038D9C, symSize: 0x10 }
  - { offsetInCU: 0x3FB53, offset: 0x3CE02E, size: 0x8, addend: 0x0, symName: __ZN7testing16AssertionFailureEv, symObjAddr: 0x5E9C, symBinAddr: 0x100038DAC, symSize: 0xC }
  - { offsetInCU: 0x3FB6B, offset: 0x3CE046, size: 0x8, addend: 0x0, symName: __ZN7testing16AssertionFailureEv, symObjAddr: 0x5E9C, symBinAddr: 0x100038DAC, symSize: 0xC }
  - { offsetInCU: 0x3FB8D, offset: 0x3CE068, size: 0x8, addend: 0x0, symName: __ZN7testing16AssertionFailureEv, symObjAddr: 0x5E9C, symBinAddr: 0x100038DAC, symSize: 0xC }
  - { offsetInCU: 0x3FC45, offset: 0x3CE120, size: 0x8, addend: 0x0, symName: __ZN7testing16AssertionFailureERKNS_7MessageE, symObjAddr: 0x5EA8, symBinAddr: 0x100038DB8, symSize: 0xB8 }
  - { offsetInCU: 0x40088, offset: 0x3CE563, size: 0x8, addend: 0x0, symName: __ZN7testing7FloatLEEPKcS1_ff, symObjAddr: 0x879C, symBinAddr: 0x10003B624, symSize: 0x4 }
  - { offsetInCU: 0x400E8, offset: 0x3CE5C3, size: 0x8, addend: 0x0, symName: __ZN7testing8internal15FloatingPointLEIfEENS_15AssertionResultEPKcS4_T_S5_, symObjAddr: 0x87A0, symBinAddr: 0x10003B628, symSize: 0x354 }
  - { offsetInCU: 0x4011B, offset: 0x3CE5F6, size: 0x8, addend: 0x0, symName: __ZN7testing8DoubleLEEPKcS1_dd, symObjAddr: 0x8AF4, symBinAddr: 0x10003B97C, symSize: 0x4 }
  - { offsetInCU: 0x4017B, offset: 0x3CE656, size: 0x8, addend: 0x0, symName: __ZN7testing8internal15FloatingPointLEIdEENS_15AssertionResultEPKcS4_T_S5_, symObjAddr: 0x8AF8, symBinAddr: 0x10003B980, symSize: 0x354 }
  - { offsetInCU: 0x401AE, offset: 0x3CE689, size: 0x8, addend: 0x0, symName: __ZN7testing13PrintToStringIxEENSt3__112basic_stringIcNS1_11char_traitsIcEENS1_9allocatorIcEEEERKT_, symObjAddr: 0x2D088, symBinAddr: 0x10005FB04, symSize: 0xC8 }
  - { offsetInCU: 0x404AD, offset: 0x3CE988, size: 0x8, addend: 0x0, symName: __ZN7testing13PrintToStringIPKcEENSt3__112basic_stringIcNS3_11char_traitsIcEENS3_9allocatorIcEEEERKT_, symObjAddr: 0x99B0, symBinAddr: 0x10003C838, symSize: 0xC8 }
  - { offsetInCU: 0x406E8, offset: 0x3CEBC3, size: 0x8, addend: 0x0, symName: __ZN7testing11IsSubstringEPKcS1_S1_S1_, symObjAddr: 0xA010, symBinAddr: 0x10003CE98, symSize: 0x38 }
  - { offsetInCU: 0x4077B, offset: 0x3CEC56, size: 0x8, addend: 0x0, symName: __ZN7testing11IsSubstringEPKcS1_PKwS3_, symObjAddr: 0xA21C, symBinAddr: 0x10003D0A4, symSize: 0x38 }
  - { offsetInCU: 0x4080E, offset: 0x3CECE9, size: 0x8, addend: 0x0, symName: __ZN7testing14IsNotSubstringEPKcS1_S1_S1_, symObjAddr: 0xA428, symBinAddr: 0x10003D2B0, symSize: 0x38 }
  - { offsetInCU: 0x408A1, offset: 0x3CED7C, size: 0x8, addend: 0x0, symName: __ZN7testing14IsNotSubstringEPKcS1_PKwS3_, symObjAddr: 0xA460, symBinAddr: 0x10003D2E8, symSize: 0x38 }
  - { offsetInCU: 0x40934, offset: 0x3CEE0F, size: 0x8, addend: 0x0, symName: __ZN7testing11IsSubstringEPKcS1_RKNSt3__112basic_stringIcNS2_11char_traitsIcEENS2_9allocatorIcEEEESA_, symObjAddr: 0xA498, symBinAddr: 0x10003D320, symSize: 0x18 }
  - { offsetInCU: 0x40996, offset: 0x3CEE71, size: 0x8, addend: 0x0, symName: __ZN7testing12_GLOBAL__N_115IsSubstringImplINSt3__112basic_stringIcNS2_11char_traitsIcEENS2_9allocatorIcEEEEEENS_15AssertionResultEbPKcSB_RKT_SE_, symObjAddr: 0xA4B0, symBinAddr: 0x10003D338, symSize: 0x288 }
  - { offsetInCU: 0x409CA, offset: 0x3CEEA5, size: 0x8, addend: 0x0, symName: __ZN7testing14IsNotSubstringEPKcS1_RKNSt3__112basic_stringIcNS2_11char_traitsIcEENS2_9allocatorIcEEEESA_, symObjAddr: 0xA738, symBinAddr: 0x10003D5C0, symSize: 0x18 }
  - { offsetInCU: 0x40A2C, offset: 0x3CEF07, size: 0x8, addend: 0x0, symName: __ZN7testing11IsSubstringEPKcS1_RKNSt3__112basic_stringIwNS2_11char_traitsIwEENS2_9allocatorIwEEEESA_, symObjAddr: 0xA750, symBinAddr: 0x10003D5D8, symSize: 0x18 }
  - { offsetInCU: 0x40A60, offset: 0x3CEF3B, size: 0x8, addend: 0x0, symName: __ZN7testing11IsSubstringEPKcS1_RKNSt3__112basic_stringIwNS2_11char_traitsIwEENS2_9allocatorIwEEEESA_, symObjAddr: 0xA750, symBinAddr: 0x10003D5D8, symSize: 0x18 }
  - { offsetInCU: 0x40AC2, offset: 0x3CEF9D, size: 0x8, addend: 0x0, symName: __ZN7testing12_GLOBAL__N_115IsSubstringImplINSt3__112basic_stringIwNS2_11char_traitsIwEENS2_9allocatorIwEEEEEENS_15AssertionResultEbPKcSB_RKT_SE_, symObjAddr: 0xA768, symBinAddr: 0x10003D5F0, symSize: 0x28C }
  - { offsetInCU: 0x40AF6, offset: 0x3CEFD1, size: 0x8, addend: 0x0, symName: __ZN7testing14IsNotSubstringEPKcS1_RKNSt3__112basic_stringIwNS2_11char_traitsIwEENS2_9allocatorIwEEEESA_, symObjAddr: 0xA9F4, symBinAddr: 0x10003D87C, symSize: 0x18 }
  - { offsetInCU: 0x40B58, offset: 0x3CF033, size: 0x8, addend: 0x0, symName: __ZN7testing8internal15CodePointToUtf8Ej, symObjAddr: 0xAA0C, symBinAddr: 0x10003D894, symSize: 0x1FC }
  - { offsetInCU: 0x40B8C, offset: 0x3CF067, size: 0x8, addend: 0x0, symName: __ZN7testing13PrintToStringIPKwEENSt3__112basic_stringIcNS3_11char_traitsIcEENS3_9allocatorIcEEEERKT_, symObjAddr: 0xAFC4, symBinAddr: 0x10003DE4C, symSize: 0xC8 }
  - { offsetInCU: 0x40EE5, offset: 0x3CF3C0, size: 0x8, addend: 0x0, symName: __ZN7testingL19FormatCountableNounEiPKcS1_, symObjAddr: 0x107E0, symBinAddr: 0x100043668, symSize: 0x17C }
  - { offsetInCU: 0x41604, offset: 0x3CFADF, size: 0x8, addend: 0x0, symName: __ZN7testingL37GetReservedOutputAttributesForElementERKNSt3__112basic_stringIcNS0_11char_traitsIcEENS0_9allocatorIcEEEE, symObjAddr: 0x1528C, symBinAddr: 0x100048114, symSize: 0x1BC }
  - { offsetInCU: 0x41BEB, offset: 0x3D00C6, size: 0x8, addend: 0x0, symName: __ZN7testing14InitGoogleTestEPiPPc, symObjAddr: 0x1FCA8, symBinAddr: 0x100052B30, symSize: 0x4 }
  - { offsetInCU: 0x41C27, offset: 0x3D0102, size: 0x8, addend: 0x0, symName: __ZN7testing8internal18InitGoogleTestImplIcEEvPiPPT_, symObjAddr: 0x1FCAC, symBinAddr: 0x100052B34, symSize: 0x1C4 }
  - { offsetInCU: 0x41C41, offset: 0x3D011C, size: 0x8, addend: 0x0, symName: __ZN7testing14InitGoogleTestEPiPPw, symObjAddr: 0x1FE70, symBinAddr: 0x100052CF8, symSize: 0x4 }
  - { offsetInCU: 0x41C7D, offset: 0x3D0158, size: 0x8, addend: 0x0, symName: __ZN7testing8internal18InitGoogleTestImplIwEEvPiPPT_, symObjAddr: 0x1FE74, symBinAddr: 0x100052CFC, symSize: 0x1A8 }
  - { offsetInCU: 0x41C97, offset: 0x3D0172, size: 0x8, addend: 0x0, symName: __ZN7testing14InitGoogleTestEv, symObjAddr: 0x2001C, symBinAddr: 0x100052EA4, symSize: 0x38 }
  - { offsetInCU: 0x41D0C, offset: 0x3D01E7, size: 0x8, addend: 0x0, symName: __ZN7testing7TempDirEv, symObjAddr: 0x20054, symBinAddr: 0x100052EDC, symSize: 0x20 }
  - { offsetInCU: 0x5907C, offset: 0x3E7557, size: 0x8, addend: 0x0, symName: __ZNSt3__1L19piecewise_constructE, symObjAddr: 0x330CB, symBinAddr: 0x10006D250, symSize: 0x0 }
  - { offsetInCU: 0x68E68, offset: 0x3F7343, size: 0x8, addend: 0x0, symName: __ZNSt3__127__tree_balance_after_insertB7v160006IPNS_16__tree_node_baseIPvEEEEvT_S5_, symObjAddr: 0x29248, symBinAddr: 0x10005C088, symSize: 0x1D4 }
  - { offsetInCU: 0x6F10A, offset: 0x3FD5E5, size: 0x8, addend: 0x0, symName: __ZNSt3__130__uninitialized_allocator_copyB7v160006INS_9allocatorINS_12basic_stringIcNS_11char_traitsIcEENS1_IcEEEEEEPKPKcSB_PS6_EET2_RT_T0_T1_SD_, symObjAddr: 0x29A7C, symBinAddr: 0x10005C534, symSize: 0x108 }
  - { offsetInCU: 0x704A4, offset: 0x3FE97F, size: 0x8, addend: 0x0, symName: __ZNSt3__120__throw_out_of_rangeB7v160006EPKc, symObjAddr: 0x2D3C8, symBinAddr: 0x10005FE44, symSize: 0x50 }
  - { offsetInCU: 0x733D0, offset: 0x4018AB, size: 0x8, addend: 0x0, symName: __ZN7testing8UnitTest11GetInstanceEv, symObjAddr: 0x940, symBinAddr: 0x1000339CC, symSize: 0x90 }
  - { offsetInCU: 0x733F1, offset: 0x4018CC, size: 0x8, addend: 0x0, symName: __ZZN7testing8UnitTest11GetInstanceEvE8instance, symObjAddr: 0x367750, symBinAddr: 0x1000782D0, symSize: 0x0 }
  - { offsetInCU: 0x76F55, offset: 0x405430, size: 0x8, addend: 0x0, symName: __ZN7testing8internal6Random8GenerateEj, symObjAddr: 0x3F0, symBinAddr: 0x10003347C, symSize: 0x150 }
  - { offsetInCU: 0x7727A, offset: 0x405755, size: 0x8, addend: 0x0, symName: __ZN7testing8internal8GTestLogC2ENS0_16GTestLogSeverityEPKci, symObjAddr: 0x26380, symBinAddr: 0x100059208, symSize: 0x198 }
  - { offsetInCU: 0x777AA, offset: 0x405C85, size: 0x8, addend: 0x0, symName: __ZN7testing8internal8GTestLogD2Ev, symObjAddr: 0x26518, symBinAddr: 0x1000593A0, symSize: 0xC8 }
  - { offsetInCU: 0x77892, offset: 0x405D6D, size: 0x8, addend: 0x0, symName: __ZN7testing8internal8GTestLogC1ENS0_16GTestLogSeverityEPKci, symObjAddr: 0x544, symBinAddr: 0x1000335D0, symSize: 0x4 }
  - { offsetInCU: 0x778C9, offset: 0x405DA4, size: 0x8, addend: 0x0, symName: __ZN7testing8internal8GTestLogD1Ev, symObjAddr: 0x548, symBinAddr: 0x1000335D4, symSize: 0x4 }
  - { offsetInCU: 0x778F2, offset: 0x405DCD, size: 0x8, addend: 0x0, symName: __ZN7testing8internal8GTestLogD1Ev, symObjAddr: 0x548, symBinAddr: 0x1000335D4, symSize: 0x4 }
  - { offsetInCU: 0x77914, offset: 0x405DEF, size: 0x8, addend: 0x0, symName: __ZN7testing8internal12AssertHelperC2ENS_14TestPartResult4TypeEPKciS5_, symObjAddr: 0x54C, symBinAddr: 0x1000335D8, symSize: 0xDC }
  - { offsetInCU: 0x77A98, offset: 0x405F73, size: 0x8, addend: 0x0, symName: __ZN7testing8internal12AssertHelperC2ENS_14TestPartResult4TypeEPKciS5_, symObjAddr: 0x54C, symBinAddr: 0x1000335D8, symSize: 0xDC }
  - { offsetInCU: 0x77F20, offset: 0x4063FB, size: 0x8, addend: 0x0, symName: __ZN7testing8internal12AssertHelperC1ENS_14TestPartResult4TypeEPKciS5_, symObjAddr: 0x628, symBinAddr: 0x1000336B4, symSize: 0xDC }
  - { offsetInCU: 0x783AF, offset: 0x40688A, size: 0x8, addend: 0x0, symName: __ZN7testing8internal12AssertHelperD2Ev, symObjAddr: 0x704, symBinAddr: 0x100033790, symSize: 0x40 }
  - { offsetInCU: 0x7854C, offset: 0x406A27, size: 0x8, addend: 0x0, symName: __ZN7testing8internal12AssertHelperD1Ev, symObjAddr: 0x744, symBinAddr: 0x1000337D0, symSize: 0x40 }
  - { offsetInCU: 0x78709, offset: 0x406BE4, size: 0x8, addend: 0x0, symName: __ZNK7testing8internal12AssertHelperaSERKNS_7MessageE, symObjAddr: 0x784, symBinAddr: 0x100033810, symSize: 0x1BC }
  - { offsetInCU: 0x78C55, offset: 0x407130, size: 0x8, addend: 0x0, symName: __ZN7testing8internal12UnitTestImpl28CurrentOsStackTraceExceptTopEi, symObjAddr: 0xFF8, symBinAddr: 0x100034084, symSize: 0x68 }
  - { offsetInCU: 0x78CE6, offset: 0x4071C1, size: 0x8, addend: 0x0, symName: __ZN7testing8internal33GetIgnoredParameterizedTestSuitesEv, symObjAddr: 0x1060, symBinAddr: 0x1000340EC, symSize: 0xE0 }
  - { offsetInCU: 0x78CFF, offset: 0x4071DA, size: 0x8, addend: 0x0, symName: __ZN7testing8UnitTest17AddTestPartResultENS_14TestPartResult4TypeEPKciRKNSt3__112basic_stringIcNS5_11char_traitsIcEENS5_9allocatorIcEEEESD_, symObjAddr: 0x9D0, symBinAddr: 0x100033A5C, symSize: 0x44C }
  - { offsetInCU: 0x79FE6, offset: 0x4084C1, size: 0x8, addend: 0x0, symName: __ZN7testing8UnitTestC1Ev, symObjAddr: 0x1B8E8, symBinAddr: 0x10004E770, symSize: 0x7C }
  - { offsetInCU: 0x7A3D4, offset: 0x4088AF, size: 0x8, addend: 0x0, symName: __ZN7testing8internal9MutexBase4LockEv, symObjAddr: 0x28DA0, symBinAddr: 0x10005BC08, symSize: 0xA4 }
  - { offsetInCU: 0x7A562, offset: 0x408A3D, size: 0x8, addend: 0x0, symName: __ZNK7testing8internal11ThreadLocalINSt3__16vectorINS0_9TraceInfoENS2_9allocatorIS4_EEEEE16GetOrCreateValueEv, symObjAddr: 0x29FD4, symBinAddr: 0x10005CA8C, symSize: 0xCC }
  - { offsetInCU: 0x7A758, offset: 0x408C33, size: 0x8, addend: 0x0, symName: __ZN7testing14TestPartResultC2ENS0_4TypeEPKciS3_, symObjAddr: 0x29E04, symBinAddr: 0x10005C8BC, symSize: 0x194 }
  - { offsetInCU: 0x7B0B0, offset: 0x40958B, size: 0x8, addend: 0x0, symName: __ZNK7testing8internal11ThreadLocalIPNS_31TestPartResultReporterInterfaceEE16GetOrCreateValueEv, symObjAddr: 0x2C994, symBinAddr: 0x10005F438, symSize: 0xCC }
  - { offsetInCU: 0x7B2A6, offset: 0x409781, size: 0x8, addend: 0x0, symName: __ZN7testing8internal9MutexBase6UnlockEv, symObjAddr: 0x28E44, symBinAddr: 0x10005BCAC, symSize: 0x94 }
  - { offsetInCU: 0x7B427, offset: 0x409902, size: 0x8, addend: 0x0, symName: __ZN7testing8internal26GoogleTestFailureExceptionC1ERKNS_14TestPartResultE, symObjAddr: 0xD1B4, symBinAddr: 0x10004003C, symSize: 0x8C }
  - { offsetInCU: 0x7B764, offset: 0x409C3F, size: 0x8, addend: 0x0, symName: __ZN7testing14TestPartResultD1Ev, symObjAddr: 0xEC98, symBinAddr: 0x100041B20, symSize: 0x64 }
  - { offsetInCU: 0x7BCF2, offset: 0x40A1CD, size: 0x8, addend: 0x0, symName: __ZN7testing8internal5MutexC2Ev, symObjAddr: 0x297F4, symBinAddr: 0x10005C2AC, symSize: 0xA0 }
  - { offsetInCU: 0x7BE7D, offset: 0x40A358, size: 0x8, addend: 0x0, symName: __ZN7testing8internal12UnitTestImplC2EPNS_8UnitTestE, symObjAddr: 0x1CE64, symBinAddr: 0x10004FCEC, symSize: 0x380 }
  - { offsetInCU: 0x7D182, offset: 0x40B65D, size: 0x8, addend: 0x0, symName: __ZN7testing8internal5MutexD2Ev, symObjAddr: 0x29894, symBinAddr: 0x10005C34C, symSize: 0x88 }
  - { offsetInCU: 0x7D4FA, offset: 0x40B9D5, size: 0x8, addend: 0x0, symName: __ZN7testing8internal13MarkAsIgnoredC2EPKc, symObjAddr: 0x1140, symBinAddr: 0x1000341CC, symSize: 0x158 }
  - { offsetInCU: 0x7DD6B, offset: 0x40C246, size: 0x8, addend: 0x0, symName: __ZNSt3__16__treeINS_12basic_stringIcNS_11char_traitsIcEENS_9allocatorIcEEEENS_4lessIS6_EENS4_IS6_EEE12__find_equalIS6_EERPNS_16__tree_node_baseIPvEERPNS_15__tree_end_nodeISF_EERKT_, symObjAddr: 0x2BD18, symBinAddr: 0x10005E7BC, symSize: 0x124 }
  - { offsetInCU: 0x7E068, offset: 0x40C543, size: 0x8, addend: 0x0, symName: __ZN7testing8internal13MarkAsIgnoredC1EPKc, symObjAddr: 0x1298, symBinAddr: 0x100034324, symSize: 0x4 }
  - { offsetInCU: 0x7E0A5, offset: 0x40C580, size: 0x8, addend: 0x0, symName: __ZN7testing8internal23InsertSyntheticTestCaseERKNSt3__112basic_stringIcNS1_11char_traitsIcEENS1_9allocatorIcEEEENS0_12CodeLocationEb, symObjAddr: 0x129C, symBinAddr: 0x100034328, symSize: 0x5A4 }
  - { offsetInCU: 0x7E360, offset: 0x40C83B, size: 0x8, addend: 0x0, symName: __ZNKSt3__16__treeINS_12basic_stringIcNS_11char_traitsIcEENS_9allocatorIcEEEENS_4lessIS6_EENS4_IS6_EEE4findIS6_EENS_21__tree_const_iteratorIS6_PNS_11__tree_nodeIS6_PvEElEERKT_, symObjAddr: 0x2BE3C, symBinAddr: 0x10005E8E0, symSize: 0x164 }
  - { offsetInCU: 0x7E753, offset: 0x40CC2E, size: 0x8, addend: 0x0, symName: '__ZZN7testing8internal23InsertSyntheticTestCaseERKNSt3__112basic_stringIcNS1_11char_traitsIcEENS1_9allocatorIcEEEENS0_12CodeLocationEbEN3$_0D1Ev', symObjAddr: 0x1840, symBinAddr: 0x1000348CC, symSize: 0x4C }
  - { offsetInCU: 0x7E9F4, offset: 0x40CECF, size: 0x8, addend: 0x0, symName: __ZN7testing8internal34TypeParameterizedTestSuiteRegistry17RegisterTestSuiteEPKcNS0_12CodeLocationE, symObjAddr: 0x19F0, symBinAddr: 0x100034A7C, symSize: 0x22C }
  - { offsetInCU: 0x7FE7C, offset: 0x40E357, size: 0x8, addend: 0x0, symName: __ZNSt3__16__treeINS_12__value_typeINS_12basic_stringIcNS_11char_traitsIcEENS_9allocatorIcEEEEN7testing8internal34TypeParameterizedTestSuiteRegistry30TypeParameterizedTestSuiteInfoEEENS_19__map_value_compareIS7_SC_NS_4lessIS7_EELb1EEENS5_ISC_EEE12__find_equalIS7_EERPNS_16__tree_node_baseIPvEERPNS_15__tree_end_nodeISN_EERKT_, symObjAddr: 0x2C478, symBinAddr: 0x10005EF1C, symSize: 0x124 }
  - { offsetInCU: 0x801C9, offset: 0x40E6A4, size: 0x8, addend: 0x0, symName: __ZN7testing8internal34TypeParameterizedTestSuiteRegistry21RegisterInstantiationEPKc, symObjAddr: 0x1C44, symBinAddr: 0x100034CD0, symSize: 0x16C }
  - { offsetInCU: 0x80A8C, offset: 0x40EF67, size: 0x8, addend: 0x0, symName: __ZNSt3__16__treeINS_12__value_typeINS_12basic_stringIcNS_11char_traitsIcEENS_9allocatorIcEEEEN7testing8internal34TypeParameterizedTestSuiteRegistry30TypeParameterizedTestSuiteInfoEEENS_19__map_value_compareIS7_SC_NS_4lessIS7_EELb1EEENS5_ISC_EEE4findIS7_EENS_15__tree_iteratorISC_PNS_11__tree_nodeISC_PvEElEERKT_, symObjAddr: 0x2C59C, symBinAddr: 0x10005F040, symSize: 0x164 }
  - { offsetInCU: 0x80F82, offset: 0x40F45D, size: 0x8, addend: 0x0, symName: __ZN7testing8internal34TypeParameterizedTestSuiteRegistry22CheckForInstantiationsEv, symObjAddr: 0x1DB0, symBinAddr: 0x100034E3C, symSize: 0x69C }
  - { offsetInCU: 0x83C7A, offset: 0x412155, size: 0x8, addend: 0x0, symName: '__ZZN7testing8internal34TypeParameterizedTestSuiteRegistry22CheckForInstantiationsEvEN3$_1D1Ev', symObjAddr: 0x244C, symBinAddr: 0x1000354D8, symSize: 0x64 }
  - { offsetInCU: 0x8419C, offset: 0x412677, size: 0x8, addend: 0x0, symName: __ZNSt3__16vectorINS_12basic_stringIcNS_11char_traitsIcEENS_9allocatorIcEEEENS4_IS6_EEED1B7v160006Ev, symObjAddr: 0x24B0, symBinAddr: 0x10003553C, symSize: 0x6C }
  - { offsetInCU: 0x84474, offset: 0x41294F, size: 0x8, addend: 0x0, symName: __ZNSt3__16vectorINS_12basic_stringIcNS_11char_traitsIcEENS_9allocatorIcEEEENS4_IS6_EEEC2ERKS8_, symObjAddr: 0x2C878, symBinAddr: 0x10005F31C, symSize: 0x11C }
  - { offsetInCU: 0x848C5, offset: 0x412DA0, size: 0x8, addend: 0x0, symName: __ZN7testing8internal8FilePath9NormalizeEv, symObjAddr: 0x25620, symBinAddr: 0x1000584A8, symSize: 0x144 }
  - { offsetInCU: 0x84E2C, offset: 0x413307, size: 0x8, addend: 0x0, symName: __ZNK7testing8internal8FilePath19RemoveDirectoryNameEv, symObjAddr: 0x264C, symBinAddr: 0x1000356D8, symSize: 0x130 }
  - { offsetInCU: 0x85800, offset: 0x413CDB, size: 0x8, addend: 0x0, symName: __ZN7testing8internal15UnitTestOptions15GetOutputFormatEv, symObjAddr: 0x277C, symBinAddr: 0x100035808, symSize: 0xD4 }
  - { offsetInCU: 0x85A00, offset: 0x413EDB, size: 0x8, addend: 0x0, symName: __ZN7testing8internal15UnitTestOptions27GetAbsolutePathToOutputFileEv, symObjAddr: 0x2850, symBinAddr: 0x1000358DC, symSize: 0x894 }
  - { offsetInCU: 0x85A90, offset: 0x413F6B, size: 0x8, addend: 0x0, symName: __ZN7testing8internal15UnitTestOptions27GetAbsolutePathToOutputFileEv, symObjAddr: 0x2850, symBinAddr: 0x1000358DC, symSize: 0x894 }
  - { offsetInCU: 0x895FD, offset: 0x417AD8, size: 0x8, addend: 0x0, symName: __ZN7testing8internal8FilePath12MakeFileNameERKS1_S3_iPKc, symObjAddr: 0x30E4, symBinAddr: 0x100036170, symSize: 0x4D4 }
  - { offsetInCU: 0x8B29A, offset: 0x419775, size: 0x8, addend: 0x0, symName: __ZN7testing8internal8FilePath11ConcatPathsERKS1_S3_, symObjAddr: 0x35F0, symBinAddr: 0x10003667C, symSize: 0x24C }
  - { offsetInCU: 0x8C13D, offset: 0x41A618, size: 0x8, addend: 0x0, symName: __ZN7testing8internal8FilePath22GenerateUniqueFileNameERKS1_S3_PKc, symObjAddr: 0x3894, symBinAddr: 0x100036920, symSize: 0xF0 }
  - { offsetInCU: 0x8C78C, offset: 0x41AC67, size: 0x8, addend: 0x0, symName: __ZNK7testing8UnitTest20original_working_dirEv, symObjAddr: 0x35B8, symBinAddr: 0x100036644, symSize: 0x1C }
  - { offsetInCU: 0x8C843, offset: 0x41AD1E, size: 0x8, addend: 0x0, symName: __ZNK7testing8internal8FilePath14IsAbsolutePathEv, symObjAddr: 0x35D4, symBinAddr: 0x100036660, symSize: 0x1C }
  - { offsetInCU: 0x8C870, offset: 0x41AD4B, size: 0x8, addend: 0x0, symName: __ZNK7testing8internal8FilePath14IsAbsolutePathEv, symObjAddr: 0x35D4, symBinAddr: 0x100036660, symSize: 0x1C }
  - { offsetInCU: 0x8C88C, offset: 0x41AD67, size: 0x8, addend: 0x0, symName: __ZNK7testing8internal8FilePath14IsAbsolutePathEv, symObjAddr: 0x35D4, symBinAddr: 0x100036660, symSize: 0x1C }
  - { offsetInCU: 0x8C8A8, offset: 0x41AD83, size: 0x8, addend: 0x0, symName: __ZNK7testing8internal8FilePath14IsAbsolutePathEv, symObjAddr: 0x35D4, symBinAddr: 0x100036660, symSize: 0x1C }
  - { offsetInCU: 0x8C8C4, offset: 0x41AD9F, size: 0x8, addend: 0x0, symName: __ZNK7testing8internal8FilePath14IsAbsolutePathEv, symObjAddr: 0x35D4, symBinAddr: 0x100036660, symSize: 0x1C }
  - { offsetInCU: 0x8C95B, offset: 0x41AE36, size: 0x8, addend: 0x0, symName: __ZNK7testing8internal8FilePath27RemoveTrailingPathSeparatorEv, symObjAddr: 0x25228, symBinAddr: 0x1000580B0, symSize: 0x118 }
  - { offsetInCU: 0x8CFB7, offset: 0x41B492, size: 0x8, addend: 0x0, symName: __ZNK7testing8internal8FilePath11IsDirectoryEv, symObjAddr: 0x383C, symBinAddr: 0x1000368C8, symSize: 0x58 }
  - { offsetInCU: 0x8D007, offset: 0x41B4E2, size: 0x8, addend: 0x0, symName: __ZNK7testing8internal8FilePath11IsDirectoryEv, symObjAddr: 0x383C, symBinAddr: 0x1000368C8, symSize: 0x58 }
  - { offsetInCU: 0x8D358, offset: 0x41B833, size: 0x8, addend: 0x0, symName: __ZN7testing8internal15UnitTestOptions20PatternMatchesStringEPKcS3_, symObjAddr: 0x3984, symBinAddr: 0x100036A10, symSize: 0xA8 }
  - { offsetInCU: 0x8D3A9, offset: 0x41B884, size: 0x8, addend: 0x0, symName: __ZN7testing8internal15UnitTestOptions13MatchesFilterERKNSt3__112basic_stringIcNS2_11char_traitsIcEENS2_9allocatorIcEEEEPKc, symObjAddr: 0x3A2C, symBinAddr: 0x100036AB8, symSize: 0x68 }
  - { offsetInCU: 0x8D53B, offset: 0x41BA16, size: 0x8, addend: 0x0, symName: __ZN7testing8internal15UnitTestOptions17FilterMatchesTestERKNSt3__112basic_stringIcNS2_11char_traitsIcEENS2_9allocatorIcEEEESA_, symObjAddr: 0x3A94, symBinAddr: 0x100036B20, symSize: 0x40C }
  - { offsetInCU: 0x8EF68, offset: 0x41D443, size: 0x8, addend: 0x0, symName: __ZN7testing32ScopedFakeTestPartResultReporterC2EPNS_19TestPartResultArrayE, symObjAddr: 0x3EA0, symBinAddr: 0x100036F2C, symSize: 0x38 }
  - { offsetInCU: 0x8EFA8, offset: 0x41D483, size: 0x8, addend: 0x0, symName: __ZN7testing32ScopedFakeTestPartResultReporter4InitEv, symObjAddr: 0x3ED8, symBinAddr: 0x100036F64, symSize: 0x94 }
  - { offsetInCU: 0x8F2F4, offset: 0x41D7CF, size: 0x8, addend: 0x0, symName: __ZN7testing32ScopedFakeTestPartResultReporterC1EPNS_19TestPartResultArrayE, symObjAddr: 0x3F6C, symBinAddr: 0x100036FF8, symSize: 0x38 }
  - { offsetInCU: 0x8F36B, offset: 0x41D846, size: 0x8, addend: 0x0, symName: __ZN7testing32ScopedFakeTestPartResultReporterC2ENS0_13InterceptModeEPNS_19TestPartResultArrayE, symObjAddr: 0x3FA4, symBinAddr: 0x100037030, symSize: 0x38 }
  - { offsetInCU: 0x8F3E9, offset: 0x41D8C4, size: 0x8, addend: 0x0, symName: __ZN7testing32ScopedFakeTestPartResultReporterC1ENS0_13InterceptModeEPNS_19TestPartResultArrayE, symObjAddr: 0x3FDC, symBinAddr: 0x100037068, symSize: 0x38 }
  - { offsetInCU: 0x8F477, offset: 0x41D952, size: 0x8, addend: 0x0, symName: __ZN7testing8internal12UnitTestImpl31GetGlobalTestPartResultReporterEv, symObjAddr: 0x4014, symBinAddr: 0x1000370A0, symSize: 0x3C }
  - { offsetInCU: 0x8F520, offset: 0x41D9FB, size: 0x8, addend: 0x0, symName: __ZN7testing8internal12UnitTestImpl31SetGlobalTestPartResultReporterEPNS_31TestPartResultReporterInterfaceE, symObjAddr: 0x4050, symBinAddr: 0x1000370DC, symSize: 0x44 }
  - { offsetInCU: 0x8F5D2, offset: 0x41DAAD, size: 0x8, addend: 0x0, symName: __ZN7testing8internal12UnitTestImpl41GetTestPartResultReporterForCurrentThreadEv, symObjAddr: 0x4094, symBinAddr: 0x100037120, symSize: 0x1C }
  - { offsetInCU: 0x8F63B, offset: 0x41DB16, size: 0x8, addend: 0x0, symName: __ZN7testing8internal12UnitTestImpl41SetTestPartResultReporterForCurrentThreadEPNS_31TestPartResultReporterInterfaceE, symObjAddr: 0x40B0, symBinAddr: 0x10003713C, symSize: 0x28 }
  - { offsetInCU: 0x8F6AF, offset: 0x41DB8A, size: 0x8, addend: 0x0, symName: __ZN7testing32ScopedFakeTestPartResultReporterD2Ev, symObjAddr: 0x40D8, symBinAddr: 0x100037164, symSize: 0x7C }
  - { offsetInCU: 0x8F834, offset: 0x41DD0F, size: 0x8, addend: 0x0, symName: __ZN7testing32ScopedFakeTestPartResultReporterD1Ev, symObjAddr: 0x4160, symBinAddr: 0x1000371E0, symSize: 0x7C }
  - { offsetInCU: 0x8F9C2, offset: 0x41DE9D, size: 0x8, addend: 0x0, symName: __ZN7testing32ScopedFakeTestPartResultReporterD0Ev, symObjAddr: 0x41DC, symBinAddr: 0x10003725C, symSize: 0x7C }
  - { offsetInCU: 0x8FBA3, offset: 0x41E07E, size: 0x8, addend: 0x0, symName: __ZN7testing32ScopedFakeTestPartResultReporter20ReportTestPartResultERKNS_14TestPartResultE, symObjAddr: 0x4258, symBinAddr: 0x1000372D8, symSize: 0x18 }
  - { offsetInCU: 0x8FC26, offset: 0x41E101, size: 0x8, addend: 0x0, symName: __ZN7testing19TestPartResultArray6AppendERKNS_14TestPartResultE, symObjAddr: 0x4270, symBinAddr: 0x1000372F0, symSize: 0x14 }
  - { offsetInCU: 0x8FC31, offset: 0x41E10C, size: 0x8, addend: 0x0, symName: __ZNSt3__16vectorIN7testing14TestPartResultENS_9allocatorIS2_EEE22__construct_one_at_endB7v160006IJRKS2_EEEvDpOT_, symObjAddr: 0x2D450, symBinAddr: 0x10005FECC, symSize: 0xB4 }
  - { offsetInCU: 0x8FFD7, offset: 0x41E4B2, size: 0x8, addend: 0x0, symName: __ZNSt3__16vectorIN7testing14TestPartResultENS_9allocatorIS2_EEE21__push_back_slow_pathIRKS2_EEvOT_, symObjAddr: 0x2D504, symBinAddr: 0x10005FF80, symSize: 0x2A4 }
  - { offsetInCU: 0x90BBF, offset: 0x41F09A, size: 0x8, addend: 0x0, symName: __ZN7testing19TestPartResultArray6AppendERKNS_14TestPartResultE, symObjAddr: 0x4270, symBinAddr: 0x1000372F0, symSize: 0x14 }
  - { offsetInCU: 0x90BE8, offset: 0x41F0C3, size: 0x8, addend: 0x0, symName: __ZN7testing19TestPartResultArray6AppendERKNS_14TestPartResultE, symObjAddr: 0x4270, symBinAddr: 0x1000372F0, symSize: 0x14 }
  - { offsetInCU: 0x90C1A, offset: 0x41F0F5, size: 0x8, addend: 0x0, symName: __ZN7testing8internal13GetTestTypeIdEv, symObjAddr: 0x4284, symBinAddr: 0x100037304, symSize: 0xC }
  - { offsetInCU: 0x90C47, offset: 0x41F122, size: 0x8, addend: 0x0, symName: __ZN7testing8internal20SingleFailureCheckerC2EPKNS_19TestPartResultArrayENS_14TestPartResult4TypeERKNSt3__112basic_stringIcNS7_11char_traitsIcEENS7_9allocatorIcEEEE, symObjAddr: 0x4290, symBinAddr: 0x100037310, symSize: 0x34 }
  - { offsetInCU: 0x90CCB, offset: 0x41F1A6, size: 0x8, addend: 0x0, symName: __ZN7testing8internal20SingleFailureCheckerC1EPKNS_19TestPartResultArrayENS_14TestPartResult4TypeERKNSt3__112basic_stringIcNS7_11char_traitsIcEENS7_9allocatorIcEEEE, symObjAddr: 0x42C4, symBinAddr: 0x100037344, symSize: 0x34 }
  - { offsetInCU: 0x91229, offset: 0x41F704, size: 0x8, addend: 0x0, symName: __ZN7testing8internal20SingleFailureCheckerD2Ev, symObjAddr: 0x42F8, symBinAddr: 0x100037378, symSize: 0x5D8 }
  - { offsetInCU: 0x92FAE, offset: 0x421489, size: 0x8, addend: 0x0, symName: __ZN7testing15AssertionResultlsINS_7MessageEEERS0_RKT_, symObjAddr: 0x5F60, symBinAddr: 0x100038E70, symSize: 0x118 }
  - { offsetInCU: 0x9365C, offset: 0x421B37, size: 0x8, addend: 0x0, symName: __ZN7testing15AssertionResultlsIA11_cEERS0_RKT_, symObjAddr: 0x28A94, symBinAddr: 0x10005B8FC, symSize: 0xD4 }
  - { offsetInCU: 0x93A33, offset: 0x421F0E, size: 0x8, addend: 0x0, symName: __ZN7testing15AssertionResultlsINSt3__112basic_stringIcNS2_11char_traitsIcEENS2_9allocatorIcEEEEEERS0_RKT_, symObjAddr: 0x5DAC, symBinAddr: 0x100038CBC, symSize: 0xE0 }
  - { offsetInCU: 0x93E36, offset: 0x422311, size: 0x8, addend: 0x0, symName: __ZN7testing15AssertionResultlsIA2_cEERS0_RKT_, symObjAddr: 0x86C8, symBinAddr: 0x10003B550, symSize: 0xD4 }
  - { offsetInCU: 0x9420D, offset: 0x4226E8, size: 0x8, addend: 0x0, symName: __ZN7testing15AssertionResultlsINS_14TestPartResultEEERS0_RKT_, symObjAddr: 0x28B68, symBinAddr: 0x10005B9D0, symSize: 0xC8 }
  - { offsetInCU: 0x945A1, offset: 0x422A7C, size: 0x8, addend: 0x0, symName: __ZN7testing15AssertionResultlsIA14_cEERS0_RKT_, symObjAddr: 0x28C30, symBinAddr: 0x10005BA98, symSize: 0xD4 }
  - { offsetInCU: 0x94991, offset: 0x422E6C, size: 0x8, addend: 0x0, symName: __ZN7testing15AssertionResultlsIA3_cEERS0_RKT_, symObjAddr: 0x8520, symBinAddr: 0x10003B3A8, symSize: 0xD4 }
  - { offsetInCU: 0x94E76, offset: 0x423351, size: 0x8, addend: 0x0, symName: __ZN7testing7MessageC1Ev, symObjAddr: 0x48D0, symBinAddr: 0x100037950, symSize: 0x5C }
  - { offsetInCU: 0x94F98, offset: 0x423473, size: 0x8, addend: 0x0, symName: __ZN7testing8internal20SingleFailureCheckerD1Ev, symObjAddr: 0x4970, symBinAddr: 0x1000379AC, symSize: 0x4 }
  - { offsetInCU: 0x94FC6, offset: 0x4234A1, size: 0x8, addend: 0x0, symName: __ZN7testing8internal35DefaultGlobalTestPartResultReporterC2EPNS0_12UnitTestImplE, symObjAddr: 0x4974, symBinAddr: 0x1000379B0, symSize: 0x10 }
  - { offsetInCU: 0x94FDA, offset: 0x4234B5, size: 0x8, addend: 0x0, symName: __ZN7testing8internal35DefaultGlobalTestPartResultReporterC2EPNS0_12UnitTestImplE, symObjAddr: 0x4974, symBinAddr: 0x1000379B0, symSize: 0x10 }
  - { offsetInCU: 0x95030, offset: 0x42350B, size: 0x8, addend: 0x0, symName: __ZN7testing8internal35DefaultGlobalTestPartResultReporterC1EPNS0_12UnitTestImplE, symObjAddr: 0x4984, symBinAddr: 0x1000379C0, symSize: 0x10 }
  - { offsetInCU: 0x95059, offset: 0x423534, size: 0x8, addend: 0x0, symName: __ZN7testing8internal35DefaultGlobalTestPartResultReporterC1EPNS0_12UnitTestImplE, symObjAddr: 0x4984, symBinAddr: 0x1000379C0, symSize: 0x10 }
  - { offsetInCU: 0x950D2, offset: 0x4235AD, size: 0x8, addend: 0x0, symName: __ZN7testing8internal35DefaultGlobalTestPartResultReporter20ReportTestPartResultERKNS_14TestPartResultE, symObjAddr: 0x4994, symBinAddr: 0x1000379D0, symSize: 0x7C }
  - { offsetInCU: 0x951B1, offset: 0x42368C, size: 0x8, addend: 0x0, symName: __ZN7testing8internal12UnitTestImpl19current_test_resultEv, symObjAddr: 0x4A10, symBinAddr: 0x100037A4C, symSize: 0x28 }
  - { offsetInCU: 0x951C4, offset: 0x42369F, size: 0x8, addend: 0x0, symName: __ZN7testing8internal12UnitTestImpl19current_test_resultEv, symObjAddr: 0x4A10, symBinAddr: 0x100037A4C, symSize: 0x28 }
  - { offsetInCU: 0x951E6, offset: 0x4236C1, size: 0x8, addend: 0x0, symName: __ZN7testing10TestResult17AddTestPartResultERKNS_14TestPartResultE, symObjAddr: 0x4A38, symBinAddr: 0x100037A74, symSize: 0x1C }
  - { offsetInCU: 0x9523D, offset: 0x423718, size: 0x8, addend: 0x0, symName: __ZN7testing18TestEventListeners8repeaterEv, symObjAddr: 0x4A54, symBinAddr: 0x100037A90, symSize: 0x8 }
  - { offsetInCU: 0x95248, offset: 0x423723, size: 0x8, addend: 0x0, symName: __ZN7testing18TestEventListeners8repeaterEv, symObjAddr: 0x4A54, symBinAddr: 0x100037A90, symSize: 0x8 }
  - { offsetInCU: 0x9526A, offset: 0x423745, size: 0x8, addend: 0x0, symName: __ZN7testing8internal38DefaultPerThreadTestPartResultReporterC2EPNS0_12UnitTestImplE, symObjAddr: 0x4A5C, symBinAddr: 0x100037A98, symSize: 0x10 }
  - { offsetInCU: 0x952C0, offset: 0x42379B, size: 0x8, addend: 0x0, symName: __ZN7testing8internal38DefaultPerThreadTestPartResultReporterC1EPNS0_12UnitTestImplE, symObjAddr: 0x4A6C, symBinAddr: 0x100037AA8, symSize: 0x10 }
  - { offsetInCU: 0x952E9, offset: 0x4237C4, size: 0x8, addend: 0x0, symName: __ZN7testing8internal38DefaultPerThreadTestPartResultReporterC1EPNS0_12UnitTestImplE, symObjAddr: 0x4A6C, symBinAddr: 0x100037AA8, symSize: 0x10 }
  - { offsetInCU: 0x9530B, offset: 0x4237E6, size: 0x8, addend: 0x0, symName: __ZN7testing8internal38DefaultPerThreadTestPartResultReporter20ReportTestPartResultERKNS_14TestPartResultE, symObjAddr: 0x4A7C, symBinAddr: 0x100037AB8, symSize: 0x54 }
  - { offsetInCU: 0x9548C, offset: 0x423967, size: 0x8, addend: 0x0, symName: __ZNK7testing8internal12UnitTestImpl27successful_test_suite_countEv, symObjAddr: 0x4AD0, symBinAddr: 0x100037B0C, symSize: 0x6C }
  - { offsetInCU: 0x9559F, offset: 0x423A7A, size: 0x8, addend: 0x0, symName: __ZNK7testing9TestSuite6FailedEv, symObjAddr: 0x1EBA8, symBinAddr: 0x100051A30, symSize: 0x144 }
  - { offsetInCU: 0x9580D, offset: 0x423CE8, size: 0x8, addend: 0x0, symName: __ZN7testing8internal12UnitTestImpl14UnshuffleTestsEv, symObjAddr: 0x1ECEC, symBinAddr: 0x100051B74, symSize: 0x6C }
  - { offsetInCU: 0x95818, offset: 0x423CF3, size: 0x8, addend: 0x0, symName: __ZNK7testing8internal12UnitTestImpl23failed_test_suite_countEv, symObjAddr: 0x4B3C, symBinAddr: 0x100037B78, symSize: 0x6C }
  - { offsetInCU: 0x9591A, offset: 0x423DF5, size: 0x8, addend: 0x0, symName: __ZNK7testing8internal12UnitTestImpl22total_test_suite_countEv, symObjAddr: 0x4BA8, symBinAddr: 0x100037BE4, symSize: 0x10 }
  - { offsetInCU: 0x9593E, offset: 0x423E19, size: 0x8, addend: 0x0, symName: __ZNK7testing8internal12UnitTestImpl22total_test_suite_countEv, symObjAddr: 0x4BA8, symBinAddr: 0x100037BE4, symSize: 0x10 }
  - { offsetInCU: 0x9595C, offset: 0x423E37, size: 0x8, addend: 0x0, symName: __ZNK7testing8internal12UnitTestImpl23test_suite_to_run_countEv, symObjAddr: 0x4BB8, symBinAddr: 0x100037BF4, symSize: 0x30 }
  - { offsetInCU: 0x95980, offset: 0x423E5B, size: 0x8, addend: 0x0, symName: __ZNK7testing8internal12UnitTestImpl23test_suite_to_run_countEv, symObjAddr: 0x4BB8, symBinAddr: 0x100037BF4, symSize: 0x30 }
  - { offsetInCU: 0x959A3, offset: 0x423E7E, size: 0x8, addend: 0x0, symName: __ZNK7testing8internal12UnitTestImpl23test_suite_to_run_countEv, symObjAddr: 0x4BB8, symBinAddr: 0x100037BF4, symSize: 0x30 }
  - { offsetInCU: 0x959BD, offset: 0x423E98, size: 0x8, addend: 0x0, symName: __ZNK7testing8internal12UnitTestImpl23test_suite_to_run_countEv, symObjAddr: 0x4BB8, symBinAddr: 0x100037BF4, symSize: 0x30 }
  - { offsetInCU: 0x95AEA, offset: 0x423FC5, size: 0x8, addend: 0x0, symName: __ZNK7testing8internal12UnitTestImpl21successful_test_countEv, symObjAddr: 0x4BE8, symBinAddr: 0x100037C24, symSize: 0xB0 }
  - { offsetInCU: 0x95C65, offset: 0x424140, size: 0x8, addend: 0x0, symName: __ZNK7testing10TestResult6PassedEv, symObjAddr: 0x10CDC, symBinAddr: 0x100043B64, symSize: 0x10C }
  - { offsetInCU: 0x95E85, offset: 0x424360, size: 0x8, addend: 0x0, symName: __ZN7testing8internalL29PrintFullTestCommentIfPresentERKNS_8TestInfoE, symObjAddr: 0x10DE8, symBinAddr: 0x100043C70, symSize: 0xB0 }
  - { offsetInCU: 0x95E90, offset: 0x42436B, size: 0x8, addend: 0x0, symName: __ZNK7testing9TestSuite21successful_test_countEv, symObjAddr: 0x4C98, symBinAddr: 0x100037CD4, symSize: 0x70 }
  - { offsetInCU: 0x960A2, offset: 0x42457D, size: 0x8, addend: 0x0, symName: __ZNK7testing8internal12UnitTestImpl18skipped_test_countEv, symObjAddr: 0x4D08, symBinAddr: 0x100037D44, symSize: 0x13C }
  - { offsetInCU: 0x962F1, offset: 0x4247CC, size: 0x8, addend: 0x0, symName: __ZNK7testing9TestSuite18skipped_test_countEv, symObjAddr: 0x4E44, symBinAddr: 0x100037E80, symSize: 0x100 }
  - { offsetInCU: 0x962FC, offset: 0x4247D7, size: 0x8, addend: 0x0, symName: __ZNKSt3__16vectorIN7testing14TestPartResultENS_9allocatorIS2_EEE20__throw_out_of_rangeB7v160006Ev, symObjAddr: 0x2D3B4, symBinAddr: 0x10005FE30, symSize: 0x14 }
  - { offsetInCU: 0x96325, offset: 0x424800, size: 0x8, addend: 0x0, symName: __ZNSt3__120__throw_out_of_rangeB7v160006EPKc, symObjAddr: 0x2D3C8, symBinAddr: 0x10005FE44, symSize: 0x50 }
  - { offsetInCU: 0x96330, offset: 0x42480B, size: 0x8, addend: 0x0, symName: __ZNK7testing9TestSuite18skipped_test_countEv, symObjAddr: 0x4E44, symBinAddr: 0x100037E80, symSize: 0x100 }
  - { offsetInCU: 0x96511, offset: 0x4249EC, size: 0x8, addend: 0x0, symName: __ZNK7testing8internal12UnitTestImpl17failed_test_countEv, symObjAddr: 0x4F44, symBinAddr: 0x100037F80, symSize: 0x10C }
  - { offsetInCU: 0x96549, offset: 0x424A24, size: 0x8, addend: 0x0, symName: __ZNK7testing8internal12UnitTestImpl17failed_test_countEv, symObjAddr: 0x4F44, symBinAddr: 0x100037F80, symSize: 0x10C }
  - { offsetInCU: 0x96707, offset: 0x424BE2, size: 0x8, addend: 0x0, symName: __ZNK7testing9TestSuite17failed_test_countEv, symObjAddr: 0x5050, symBinAddr: 0x10003808C, symSize: 0xD0 }
  - { offsetInCU: 0x96712, offset: 0x424BED, size: 0x8, addend: 0x0, symName: __ZNK7testing9TestSuite17failed_test_countEv, symObjAddr: 0x5050, symBinAddr: 0x10003808C, symSize: 0xD0 }
  - { offsetInCU: 0x9686A, offset: 0x424D45, size: 0x8, addend: 0x0, symName: __ZNK7testing8internal12UnitTestImpl30reportable_disabled_test_countEv, symObjAddr: 0x5120, symBinAddr: 0x10003815C, symSize: 0x94 }
  - { offsetInCU: 0x968B8, offset: 0x424D93, size: 0x8, addend: 0x0, symName: __ZNK7testing8internal12UnitTestImpl30reportable_disabled_test_countEv, symObjAddr: 0x5120, symBinAddr: 0x10003815C, symSize: 0x94 }
  - { offsetInCU: 0x968DC, offset: 0x424DB7, size: 0x8, addend: 0x0, symName: __ZNK7testing8internal12UnitTestImpl30reportable_disabled_test_countEv, symObjAddr: 0x5120, symBinAddr: 0x10003815C, symSize: 0x94 }
  - { offsetInCU: 0x968FF, offset: 0x424DDA, size: 0x8, addend: 0x0, symName: __ZNK7testing8internal12UnitTestImpl30reportable_disabled_test_countEv, symObjAddr: 0x5120, symBinAddr: 0x10003815C, symSize: 0x94 }
  - { offsetInCU: 0x96919, offset: 0x424DF4, size: 0x8, addend: 0x0, symName: __ZNK7testing8internal12UnitTestImpl30reportable_disabled_test_countEv, symObjAddr: 0x5120, symBinAddr: 0x10003815C, symSize: 0x94 }
  - { offsetInCU: 0x96A07, offset: 0x424EE2, size: 0x8, addend: 0x0, symName: __ZNK7testing9TestSuite30reportable_disabled_test_countEv, symObjAddr: 0x51B4, symBinAddr: 0x1000381F0, symSize: 0x58 }
  - { offsetInCU: 0x96A2B, offset: 0x424F06, size: 0x8, addend: 0x0, symName: __ZNK7testing9TestSuite30reportable_disabled_test_countEv, symObjAddr: 0x51B4, symBinAddr: 0x1000381F0, symSize: 0x58 }
  - { offsetInCU: 0x96A4E, offset: 0x424F29, size: 0x8, addend: 0x0, symName: __ZNK7testing9TestSuite30reportable_disabled_test_countEv, symObjAddr: 0x51B4, symBinAddr: 0x1000381F0, symSize: 0x58 }
  - { offsetInCU: 0x96A68, offset: 0x424F43, size: 0x8, addend: 0x0, symName: __ZNK7testing9TestSuite30reportable_disabled_test_countEv, symObjAddr: 0x51B4, symBinAddr: 0x1000381F0, symSize: 0x58 }
  - { offsetInCU: 0x96B05, offset: 0x424FE0, size: 0x8, addend: 0x0, symName: __ZNK7testing8internal12UnitTestImpl19disabled_test_countEv, symObjAddr: 0x520C, symBinAddr: 0x100038248, symSize: 0x70 }
  - { offsetInCU: 0x96B29, offset: 0x425004, size: 0x8, addend: 0x0, symName: __ZNK7testing8internal12UnitTestImpl19disabled_test_countEv, symObjAddr: 0x520C, symBinAddr: 0x100038248, symSize: 0x70 }
  - { offsetInCU: 0x96B4C, offset: 0x425027, size: 0x8, addend: 0x0, symName: __ZNK7testing8internal12UnitTestImpl19disabled_test_countEv, symObjAddr: 0x520C, symBinAddr: 0x100038248, symSize: 0x70 }
  - { offsetInCU: 0x96B66, offset: 0x425041, size: 0x8, addend: 0x0, symName: __ZNK7testing8internal12UnitTestImpl19disabled_test_countEv, symObjAddr: 0x520C, symBinAddr: 0x100038248, symSize: 0x70 }
  - { offsetInCU: 0x96C20, offset: 0x4250FB, size: 0x8, addend: 0x0, symName: __ZNK7testing9TestSuite19disabled_test_countEv, symObjAddr: 0x527C, symBinAddr: 0x1000382B8, symSize: 0x30 }
  - { offsetInCU: 0x96C44, offset: 0x42511F, size: 0x8, addend: 0x0, symName: __ZNK7testing9TestSuite19disabled_test_countEv, symObjAddr: 0x527C, symBinAddr: 0x1000382B8, symSize: 0x30 }
  - { offsetInCU: 0x96C67, offset: 0x425142, size: 0x8, addend: 0x0, symName: __ZNK7testing9TestSuite19disabled_test_countEv, symObjAddr: 0x527C, symBinAddr: 0x1000382B8, symSize: 0x30 }
  - { offsetInCU: 0x96C81, offset: 0x42515C, size: 0x8, addend: 0x0, symName: __ZNK7testing9TestSuite19disabled_test_countEv, symObjAddr: 0x527C, symBinAddr: 0x1000382B8, symSize: 0x30 }
  - { offsetInCU: 0x96CEA, offset: 0x4251C5, size: 0x8, addend: 0x0, symName: __ZNK7testing8internal12UnitTestImpl21reportable_test_countEv, symObjAddr: 0x52AC, symBinAddr: 0x1000382E8, symSize: 0x8C }
  - { offsetInCU: 0x96D0E, offset: 0x4251E9, size: 0x8, addend: 0x0, symName: __ZNK7testing8internal12UnitTestImpl21reportable_test_countEv, symObjAddr: 0x52AC, symBinAddr: 0x1000382E8, symSize: 0x8C }
  - { offsetInCU: 0x96D31, offset: 0x42520C, size: 0x8, addend: 0x0, symName: __ZNK7testing8internal12UnitTestImpl21reportable_test_countEv, symObjAddr: 0x52AC, symBinAddr: 0x1000382E8, symSize: 0x8C }
  - { offsetInCU: 0x96D4B, offset: 0x425226, size: 0x8, addend: 0x0, symName: __ZNK7testing8internal12UnitTestImpl21reportable_test_countEv, symObjAddr: 0x52AC, symBinAddr: 0x1000382E8, symSize: 0x8C }
  - { offsetInCU: 0x96E2B, offset: 0x425306, size: 0x8, addend: 0x0, symName: __ZNK7testing9TestSuite21reportable_test_countEv, symObjAddr: 0x5338, symBinAddr: 0x100038374, symSize: 0x50 }
  - { offsetInCU: 0x96E4F, offset: 0x42532A, size: 0x8, addend: 0x0, symName: __ZNK7testing9TestSuite21reportable_test_countEv, symObjAddr: 0x5338, symBinAddr: 0x100038374, symSize: 0x50 }
  - { offsetInCU: 0x96E72, offset: 0x42534D, size: 0x8, addend: 0x0, symName: __ZNK7testing9TestSuite21reportable_test_countEv, symObjAddr: 0x5338, symBinAddr: 0x100038374, symSize: 0x50 }
  - { offsetInCU: 0x96E8C, offset: 0x425367, size: 0x8, addend: 0x0, symName: __ZNK7testing9TestSuite21reportable_test_countEv, symObjAddr: 0x5338, symBinAddr: 0x100038374, symSize: 0x50 }
  - { offsetInCU: 0x96F1D, offset: 0x4253F8, size: 0x8, addend: 0x0, symName: __ZNK7testing8internal12UnitTestImpl16total_test_countEv, symObjAddr: 0x5388, symBinAddr: 0x1000383C4, symSize: 0x3C }
  - { offsetInCU: 0x96F41, offset: 0x42541C, size: 0x8, addend: 0x0, symName: __ZNK7testing8internal12UnitTestImpl16total_test_countEv, symObjAddr: 0x5388, symBinAddr: 0x1000383C4, symSize: 0x3C }
  - { offsetInCU: 0x96F64, offset: 0x42543F, size: 0x8, addend: 0x0, symName: __ZNK7testing8internal12UnitTestImpl16total_test_countEv, symObjAddr: 0x5388, symBinAddr: 0x1000383C4, symSize: 0x3C }
  - { offsetInCU: 0x96F7E, offset: 0x425459, size: 0x8, addend: 0x0, symName: __ZNK7testing8internal12UnitTestImpl16total_test_countEv, symObjAddr: 0x5388, symBinAddr: 0x1000383C4, symSize: 0x3C }
  - { offsetInCU: 0x96FDC, offset: 0x4254B7, size: 0x8, addend: 0x0, symName: __ZNK7testing9TestSuite16total_test_countEv, symObjAddr: 0x53C4, symBinAddr: 0x100038400, symSize: 0x10 }
  - { offsetInCU: 0x97000, offset: 0x4254DB, size: 0x8, addend: 0x0, symName: __ZNK7testing9TestSuite16total_test_countEv, symObjAddr: 0x53C4, symBinAddr: 0x100038400, symSize: 0x10 }
  - { offsetInCU: 0x9704A, offset: 0x425525, size: 0x8, addend: 0x0, symName: __ZNK7testing8internal12UnitTestImpl17test_to_run_countEv, symObjAddr: 0x53D4, symBinAddr: 0x100038410, symSize: 0x70 }
  - { offsetInCU: 0x9706E, offset: 0x425549, size: 0x8, addend: 0x0, symName: __ZNK7testing8internal12UnitTestImpl17test_to_run_countEv, symObjAddr: 0x53D4, symBinAddr: 0x100038410, symSize: 0x70 }
  - { offsetInCU: 0x97091, offset: 0x42556C, size: 0x8, addend: 0x0, symName: __ZNK7testing8internal12UnitTestImpl17test_to_run_countEv, symObjAddr: 0x53D4, symBinAddr: 0x100038410, symSize: 0x70 }
  - { offsetInCU: 0x970AB, offset: 0x425586, size: 0x8, addend: 0x0, symName: __ZNK7testing8internal12UnitTestImpl17test_to_run_countEv, symObjAddr: 0x53D4, symBinAddr: 0x100038410, symSize: 0x70 }
  - { offsetInCU: 0x97182, offset: 0x42565D, size: 0x8, addend: 0x0, symName: __ZNK7testing9TestSuite17test_to_run_countEv, symObjAddr: 0x5444, symBinAddr: 0x100038480, symSize: 0x30 }
  - { offsetInCU: 0x971A6, offset: 0x425681, size: 0x8, addend: 0x0, symName: __ZNK7testing9TestSuite17test_to_run_countEv, symObjAddr: 0x5444, symBinAddr: 0x100038480, symSize: 0x30 }
  - { offsetInCU: 0x971C9, offset: 0x4256A4, size: 0x8, addend: 0x0, symName: __ZNK7testing9TestSuite17test_to_run_countEv, symObjAddr: 0x5444, symBinAddr: 0x100038480, symSize: 0x30 }
  - { offsetInCU: 0x971E3, offset: 0x4256BE, size: 0x8, addend: 0x0, symName: __ZNK7testing9TestSuite17test_to_run_countEv, symObjAddr: 0x5444, symBinAddr: 0x100038480, symSize: 0x30 }
  - { offsetInCU: 0x9723C, offset: 0x425717, size: 0x8, addend: 0x0, symName: __ZN7testing8internal12UnitTestImpl21os_stack_trace_getterEv, symObjAddr: 0x5474, symBinAddr: 0x1000384B0, symSize: 0x40 }
  - { offsetInCU: 0x972E7, offset: 0x4257C2, size: 0x8, addend: 0x0, symName: __ZN7testing8internal6String13CStringEqualsEPKcS3_, symObjAddr: 0x5504, symBinAddr: 0x100038540, symSize: 0x38 }
  - { offsetInCU: 0x974D0, offset: 0x4259AB, size: 0x8, addend: 0x0, symName: __ZNSt3__16vectorINS_12basic_stringIcNS_11char_traitsIcEENS_9allocatorIcEEEENS4_IS6_EEE21__push_back_slow_pathIS6_EEvOT_, symObjAddr: 0x2CB3C, symBinAddr: 0x10005F5E0, symSize: 0x168 }
  - { offsetInCU: 0x97B48, offset: 0x426023, size: 0x8, addend: 0x0, symName: __ZN7testing7MessageC2Ev, symObjAddr: 0x5710, symBinAddr: 0x10003874C, symSize: 0x5C }
  - { offsetInCU: 0x97D6D, offset: 0x426248, size: 0x8, addend: 0x0, symName: __ZN7testing7MessagelsEPKw, symObjAddr: 0x5898, symBinAddr: 0x1000387A8, symSize: 0xB8 }
  - { offsetInCU: 0x982E2, offset: 0x4267BD, size: 0x8, addend: 0x0, symName: __ZN7testing8internal6String15ShowWideCStringEPKw, symObjAddr: 0x5950, symBinAddr: 0x100038860, symSize: 0x30 }
  - { offsetInCU: 0x984D1, offset: 0x4269AC, size: 0x8, addend: 0x0, symName: __ZN7testing7MessagelsEPw, symObjAddr: 0x5980, symBinAddr: 0x100038890, symSize: 0xB8 }
  - { offsetInCU: 0x98B02, offset: 0x426FDD, size: 0x8, addend: 0x0, symName: __ZN7testing7MessagelsERKNSt3__112basic_stringIwNS1_11char_traitsIwEENS1_9allocatorIwEEEE, symObjAddr: 0x5A38, symBinAddr: 0x100038948, symSize: 0x124 }
  - { offsetInCU: 0x98FB3, offset: 0x42748E, size: 0x8, addend: 0x0, symName: __ZNK7testing7Message9GetStringEv, symObjAddr: 0x5B5C, symBinAddr: 0x100038A6C, symSize: 0x8 }
  - { offsetInCU: 0x98FD7, offset: 0x4274B2, size: 0x8, addend: 0x0, symName: __ZNK7testing7Message9GetStringEv, symObjAddr: 0x5B5C, symBinAddr: 0x100038A6C, symSize: 0x8 }
  - { offsetInCU: 0x98FF4, offset: 0x4274CF, size: 0x8, addend: 0x0, symName: __ZN7testing8internal20StringStreamToStringEPNSt3__118basic_stringstreamIcNS1_11char_traitsIcEENS1_9allocatorIcEEEE, symObjAddr: 0x5B64, symBinAddr: 0x100038A74, symSize: 0xFC }
  - { offsetInCU: 0x9917E, offset: 0x427659, size: 0x8, addend: 0x0, symName: __ZN7testing15AssertionResultC2ERKS0_, symObjAddr: 0x5C60, symBinAddr: 0x100038B70, symSize: 0x6C }
  - { offsetInCU: 0x9926D, offset: 0x427748, size: 0x8, addend: 0x0, symName: __ZN7testing15AssertionResultC1ERKS0_, symObjAddr: 0x5CCC, symBinAddr: 0x100038BDC, symSize: 0x6C }
  - { offsetInCU: 0x993BF, offset: 0x42789A, size: 0x8, addend: 0x0, symName: __ZN7testing15AssertionResult4swapERS0_, symObjAddr: 0x5D38, symBinAddr: 0x100038C48, symSize: 0x24 }
  - { offsetInCU: 0x993F8, offset: 0x4278D3, size: 0x8, addend: 0x0, symName: __ZN7testing15AssertionResult4swapERS0_, symObjAddr: 0x5D38, symBinAddr: 0x100038C48, symSize: 0x24 }
  - { offsetInCU: 0x994CB, offset: 0x4279A6, size: 0x8, addend: 0x0, symName: __ZNK7testing15AssertionResultntEv, symObjAddr: 0x5D5C, symBinAddr: 0x100038C6C, symSize: 0x50 }
  - { offsetInCU: 0x99629, offset: 0x427B04, size: 0x8, addend: 0x0, symName: __ZN7testing15AssertionResult13AppendMessageERKNS_7MessageE, symObjAddr: 0x28D04, symBinAddr: 0x10005BB6C, symSize: 0x9C }
  - { offsetInCU: 0x9A68D, offset: 0x428B68, size: 0x8, addend: 0x0, symName: __ZNSt3__16vectorINS0_IdNS_9allocatorIdEEEENS1_IS3_EEEC2EmRKS3_, symObjAddr: 0x2CCB8, symBinAddr: 0x10005F748, symSize: 0x140 }
  - { offsetInCU: 0x9AC49, offset: 0x429124, size: 0x8, addend: 0x0, symName: __ZNSt3__16vectorINS0_IN7testing8internal13edit_distance8EditTypeENS_9allocatorIS4_EEEENS5_IS7_EEEC2EmRKS7_, symObjAddr: 0x2CEA0, symBinAddr: 0x10005F930, symSize: 0x140 }
  - { offsetInCU: 0x9B205, offset: 0x4296E0, size: 0x8, addend: 0x0, symName: __ZNKSt3__16vectorIN7testing8internal13edit_distance8EditTypeENS_9allocatorIS4_EEE20__throw_length_errorB7v160006Ev, symObjAddr: 0x2CE8C, symBinAddr: 0x10005F91C, symSize: 0x14 }
  - { offsetInCU: 0x9B22E, offset: 0x429709, size: 0x8, addend: 0x0, symName: __ZNSt3__16vectorINS0_IN7testing8internal13edit_distance8EditTypeENS_9allocatorIS4_EEEENS5_IS7_EEEC2EmRKS7_, symObjAddr: 0x2CEA0, symBinAddr: 0x10005F930, symSize: 0x140 }
  - { offsetInCU: 0x9B250, offset: 0x42972B, size: 0x8, addend: 0x0, symName: __ZNSt3__16vectorINS0_IdNS_9allocatorIdEEEENS1_IS3_EEEC2EmRKS3_, symObjAddr: 0x2CCB8, symBinAddr: 0x10005F748, symSize: 0x140 }
  - { offsetInCU: 0x9B254, offset: 0x42972F, size: 0x8, addend: 0x0, symName: __ZNSt3__16vectorINS0_IN7testing8internal13edit_distance8EditTypeENS_9allocatorIS4_EEEENS5_IS7_EEED1B7v160006Ev, symObjAddr: 0x65F0, symBinAddr: 0x100039500, symSize: 0x70 }
  - { offsetInCU: 0x9B531, offset: 0x429A0C, size: 0x8, addend: 0x0, symName: __ZNSt3__16vectorINS0_IdNS_9allocatorIdEEEENS1_IS3_EEED1B7v160006Ev, symObjAddr: 0x6660, symBinAddr: 0x100039570, symSize: 0x70 }
  - { offsetInCU: 0x9BF9C, offset: 0x42A477, size: 0x8, addend: 0x0, symName: __ZNSt3__16__treeINS_12__value_typeINS_12basic_stringIcNS_11char_traitsIcEENS_9allocatorIcEEEEmEENS_19__map_value_compareIS7_S8_NS_4lessIS7_EELb1EEENS5_IS8_EEE4findIS7_EENS_15__tree_iteratorIS8_PNS_11__tree_nodeIS8_PvEElEERKT_, symObjAddr: 0x28ED8, symBinAddr: 0x10005BD40, symSize: 0x164 }
  - { offsetInCU: 0x9C3E5, offset: 0x42A8C0, size: 0x8, addend: 0x0, symName: __ZNSt3__16__treeINS_12__value_typeINS_12basic_stringIcNS_11char_traitsIcEENS_9allocatorIcEEEEmEENS_19__map_value_compareIS7_S8_NS_4lessIS7_EELb1EEENS5_IS8_EEE25__emplace_unique_key_argsIS7_JRKNS_21piecewise_construct_tENS_5tupleIJRKS7_EEENSJ_IJEEEEEENS_4pairINS_15__tree_iteratorIS8_PNS_11__tree_nodeIS8_PvEElEEbEERKT_DpOT0_, symObjAddr: 0x2903C, symBinAddr: 0x10005BEA4, symSize: 0xC0 }
  - { offsetInCU: 0x9C7B4, offset: 0x42AC8F, size: 0x8, addend: 0x0, symName: __ZNSt3__16__treeINS_12__value_typeINS_12basic_stringIcNS_11char_traitsIcEENS_9allocatorIcEEEEmEENS_19__map_value_compareIS7_S8_NS_4lessIS7_EELb1EEENS5_IS8_EEE7destroyEPNS_11__tree_nodeIS8_PvEE, symObjAddr: 0x2941C, symBinAddr: 0x10005C25C, symSize: 0x50 }
  - { offsetInCU: 0x9CA7E, offset: 0x42AF59, size: 0x8, addend: 0x0, symName: __ZN7testing13PrintToStringIxEENSt3__112basic_stringIcNS1_11char_traitsIcEENS1_9allocatorIcEEEERKT_, symObjAddr: 0x2D088, symBinAddr: 0x10005FB04, symSize: 0xC8 }
  - { offsetInCU: 0x9D356, offset: 0x42B831, size: 0x8, addend: 0x0, symName: __ZN7testing8internal13edit_distance12_GLOBAL__N_14Hunk8PushLineEcPKc, symObjAddr: 0x710C, symBinAddr: 0x10003A01C, symSize: 0x15C }
  - { offsetInCU: 0x9D8A9, offset: 0x42BD84, size: 0x8, addend: 0x0, symName: __ZN7testing8internal13edit_distance12_GLOBAL__N_14HunkD1Ev, symObjAddr: 0x7268, symBinAddr: 0x10003A178, symSize: 0xF4 }
  - { offsetInCU: 0x9E0CA, offset: 0x42C5A5, size: 0x8, addend: 0x0, symName: __ZNKSt3__112basic_stringIcNS_11char_traitsIcEENS_9allocatorIcEEE20__throw_out_of_rangeB7v160006Ev, symObjAddr: 0x2D854, symBinAddr: 0x1000602D0, symSize: 0x14 }
  - { offsetInCU: 0x9E0F3, offset: 0x42C5CE, size: 0x8, addend: 0x0, symName: __ZNSt3__16vectorIN7testing12TestPropertyENS_9allocatorIS2_EEE21__push_back_slow_pathIRKS2_EEvOT_, symObjAddr: 0x2D868, symBinAddr: 0x1000602E4, symSize: 0x214 }
  - { offsetInCU: 0x9E16A, offset: 0x42C645, size: 0x8, addend: 0x0, symName: __ZN7testing15AssertionResultlsIA24_cEERS0_RKT_, symObjAddr: 0x7E74, symBinAddr: 0x10003ACFC, symSize: 0xD4 }
  - { offsetInCU: 0x9E541, offset: 0x42CA1C, size: 0x8, addend: 0x0, symName: __ZN7testing15AssertionResultlsIPKcEERS0_RKT_, symObjAddr: 0x7F48, symBinAddr: 0x10003ADD0, symSize: 0xEC }
  - { offsetInCU: 0x9E92C, offset: 0x42CE07, size: 0x8, addend: 0x0, symName: __ZN7testing15AssertionResultlsIA6_cEERS0_RKT_, symObjAddr: 0x8034, symBinAddr: 0x10003AEBC, symSize: 0xD4 }
  - { offsetInCU: 0x9ED1C, offset: 0x42D1F7, size: 0x8, addend: 0x0, symName: __ZN7testing15AssertionResultlsIA5_cEERS0_RKT_, symObjAddr: 0x8108, symBinAddr: 0x10003AF90, symSize: 0xD4 }
  - { offsetInCU: 0x9F0F3, offset: 0x42D5CE, size: 0x8, addend: 0x0, symName: __ZN7testing15AssertionResultlsIdEERS0_RKT_, symObjAddr: 0x81DC, symBinAddr: 0x10003B064, symSize: 0xC8 }
  - { offsetInCU: 0x9F46D, offset: 0x42D948, size: 0x8, addend: 0x0, symName: __ZN7testing15AssertionResultlsIA17_cEERS0_RKT_, symObjAddr: 0x82A4, symBinAddr: 0x10003B12C, symSize: 0xD4 }
  - { offsetInCU: 0x9F85D, offset: 0x42DD38, size: 0x8, addend: 0x0, symName: __ZN7testing15AssertionResultlsIA9_cEERS0_RKT_, symObjAddr: 0x8378, symBinAddr: 0x10003B200, symSize: 0xD4 }
  - { offsetInCU: 0x9FC34, offset: 0x42E10F, size: 0x8, addend: 0x0, symName: __ZN7testing15AssertionResultlsIA15_cEERS0_RKT_, symObjAddr: 0x844C, symBinAddr: 0x10003B2D4, symSize: 0xD4 }
  - { offsetInCU: 0xA0024, offset: 0x42E4FF, size: 0x8, addend: 0x0, symName: __ZN7testing15AssertionResultlsIA7_cEERS0_RKT_, symObjAddr: 0x85F4, symBinAddr: 0x10003B47C, symSize: 0xD4 }
  - { offsetInCU: 0xA05F2, offset: 0x42EACD, size: 0x8, addend: 0x0, symName: __ZN7testing15AssertionResultlsIA12_cEERS0_RKT_, symObjAddr: 0x90FC, symBinAddr: 0x10003BF84, symSize: 0xD4 }
  - { offsetInCU: 0xA0AAB, offset: 0x42EF86, size: 0x8, addend: 0x0, symName: __ZN7testing8internal21UniversalTersePrinterIPKcE5PrintES3_PNSt3__113basic_ostreamIcNS5_11char_traitsIcEEEE, symObjAddr: 0x2BA18, symBinAddr: 0x10005E4BC, symSize: 0x100 }
  - { offsetInCU: 0xA11B4, offset: 0x42F68F, size: 0x8, addend: 0x0, symName: __ZN7testing8internal6String28CaseInsensitiveCStringEqualsEPKcS3_, symObjAddr: 0x9B98, symBinAddr: 0x10003CA20, symSize: 0x38 }
  - { offsetInCU: 0xA120D, offset: 0x42F6E8, size: 0x8, addend: 0x0, symName: __ZN7testing15AssertionResultlsIA13_cEERS0_RKT_, symObjAddr: 0x9D1C, symBinAddr: 0x10003CBA4, symSize: 0xD4 }
  - { offsetInCU: 0xA15FD, offset: 0x42FAD8, size: 0x8, addend: 0x0, symName: __ZN7testing15AssertionResultlsIA29_cEERS0_RKT_, symObjAddr: 0x9F3C, symBinAddr: 0x10003CDC4, symSize: 0xD4 }
  - { offsetInCU: 0xA1A05, offset: 0x42FEE0, size: 0x8, addend: 0x0, symName: __ZN7testing15AssertionResultlsIA16_cEERS0_RKT_, symObjAddr: 0x2D150, symBinAddr: 0x10005FBCC, symSize: 0xD4 }
  - { offsetInCU: 0xA1E4C, offset: 0x430327, size: 0x8, addend: 0x0, symName: __ZN7testing15AssertionResultlsIPKwEERS0_RKT_, symObjAddr: 0x2D224, symBinAddr: 0x10005FCA0, symSize: 0xC8 }
  - { offsetInCU: 0xA227A, offset: 0x430755, size: 0x8, addend: 0x0, symName: __ZN7testing15AssertionResultlsINSt3__112basic_stringIwNS2_11char_traitsIwEENS2_9allocatorIwEEEEEERS0_RKT_, symObjAddr: 0x2D2EC, symBinAddr: 0x10005FD68, symSize: 0xC8 }
  - { offsetInCU: 0xA25CE, offset: 0x430AA9, size: 0x8, addend: 0x0, symName: __ZN7testing8internal6String15FormatHexUInt32Ej, symObjAddr: 0xAC08, symBinAddr: 0x10003DA90, symSize: 0xFC }
  - { offsetInCU: 0xA298B, offset: 0x430E66, size: 0x8, addend: 0x0, symName: __ZN7testing8internal6String17WideCStringEqualsEPKwS3_, symObjAddr: 0xAE6C, symBinAddr: 0x10003DCF4, symSize: 0x38 }
  - { offsetInCU: 0xA29D6, offset: 0x430EB1, size: 0x8, addend: 0x0, symName: __ZN7testing8internal21UniversalTersePrinterIPKwE5PrintES3_PNSt3__113basic_ostreamIcNS5_11char_traitsIcEEEE, symObjAddr: 0x2BB18, symBinAddr: 0x10005E5BC, symSize: 0x12C }
  - { offsetInCU: 0xA310B, offset: 0x4315E6, size: 0x8, addend: 0x0, symName: __ZN7testing8internal6String32CaseInsensitiveWideCStringEqualsEPKwS3_, symObjAddr: 0xB25C, symBinAddr: 0x10003E0E4, symSize: 0x68 }
  - { offsetInCU: 0xA31A0, offset: 0x43167B, size: 0x8, addend: 0x0, symName: __ZN7testing8internal6String23EndsWithCaseInsensitiveERKNSt3__112basic_stringIcNS2_11char_traitsIcEENS2_9allocatorIcEEEESA_, symObjAddr: 0xB2C4, symBinAddr: 0x10003E14C, symSize: 0x98 }
  - { offsetInCU: 0xA345C, offset: 0x431937, size: 0x8, addend: 0x0, symName: __ZN7testing8internal6String15FormatIntWidth2Ei, symObjAddr: 0xB35C, symBinAddr: 0x10003E1E4, symSize: 0x160 }
  - { offsetInCU: 0xA3757, offset: 0x431C32, size: 0x8, addend: 0x0, symName: __ZN7testing8internal6String12FormatHexIntEi, symObjAddr: 0xB4BC, symBinAddr: 0x10003E344, symSize: 0x4 }
  - { offsetInCU: 0xA3776, offset: 0x431C51, size: 0x8, addend: 0x0, symName: __ZN7testing8internal6String10FormatByteEh, symObjAddr: 0xB4C0, symBinAddr: 0x10003E348, symSize: 0x190 }
  - { offsetInCU: 0xA3791, offset: 0x431C6C, size: 0x8, addend: 0x0, symName: __ZN7testing8internal6String10FormatByteEh, symObjAddr: 0xB4C0, symBinAddr: 0x10003E348, symSize: 0x190 }
  - { offsetInCU: 0xA3BAE, offset: 0x432089, size: 0x8, addend: 0x0, symName: __ZN7testing10TestResultC2Ev, symObjAddr: 0xB650, symBinAddr: 0x10003E4D8, symSize: 0x28 }
  - { offsetInCU: 0xA3C5D, offset: 0x432138, size: 0x8, addend: 0x0, symName: __ZN7testing10TestResultC1Ev, symObjAddr: 0xB678, symBinAddr: 0x10003E500, symSize: 0x28 }
  - { offsetInCU: 0xA3FC2, offset: 0x43249D, size: 0x8, addend: 0x0, symName: __ZN7testing10TestResultD2Ev, symObjAddr: 0xB6A0, symBinAddr: 0x10003E528, symSize: 0xEC }
  - { offsetInCU: 0xA48A3, offset: 0x432D7E, size: 0x8, addend: 0x0, symName: __ZN7testing10TestResultD1Ev, symObjAddr: 0xB78C, symBinAddr: 0x10003E614, symSize: 0x4 }
  - { offsetInCU: 0xA48C5, offset: 0x432DA0, size: 0x8, addend: 0x0, symName: __ZNK7testing10TestResult17GetTestPartResultEi, symObjAddr: 0xB790, symBinAddr: 0x10003E618, symSize: 0x58 }
  - { offsetInCU: 0xA48F2, offset: 0x432DCD, size: 0x8, addend: 0x0, symName: __ZNK7testing10TestResult17GetTestPartResultEi, symObjAddr: 0xB790, symBinAddr: 0x10003E618, symSize: 0x58 }
  - { offsetInCU: 0xA498A, offset: 0x432E65, size: 0x8, addend: 0x0, symName: __ZNK7testing10TestResult16total_part_countEv, symObjAddr: 0xB7E8, symBinAddr: 0x10003E670, symSize: 0x1C }
  - { offsetInCU: 0xA4995, offset: 0x432E70, size: 0x8, addend: 0x0, symName: __ZNK7testing10TestResult16total_part_countEv, symObjAddr: 0xB7E8, symBinAddr: 0x10003E670, symSize: 0x1C }
  - { offsetInCU: 0xA49B9, offset: 0x432E94, size: 0x8, addend: 0x0, symName: __ZNK7testing10TestResult16total_part_countEv, symObjAddr: 0xB7E8, symBinAddr: 0x10003E670, symSize: 0x1C }
  - { offsetInCU: 0xA4A30, offset: 0x432F0B, size: 0x8, addend: 0x0, symName: __ZNK7testing10TestResult15GetTestPropertyEi, symObjAddr: 0xB810, symBinAddr: 0x10003E698, symSize: 0x50 }
  - { offsetInCU: 0xA4AC8, offset: 0x432FA3, size: 0x8, addend: 0x0, symName: __ZNK7testing10TestResult19test_property_countEv, symObjAddr: 0xB860, symBinAddr: 0x10003E6E8, symSize: 0x1C }
  - { offsetInCU: 0xA4AD3, offset: 0x432FAE, size: 0x8, addend: 0x0, symName: __ZNKSt3__16vectorIN7testing12TestPropertyENS_9allocatorIS2_EEE20__throw_out_of_rangeB7v160006Ev, symObjAddr: 0x2D43C, symBinAddr: 0x10005FEB8, symSize: 0x14 }
  - { offsetInCU: 0xA4AFC, offset: 0x432FD7, size: 0x8, addend: 0x0, symName: __ZNSt3__16vectorIN7testing14TestPartResultENS_9allocatorIS2_EEE22__construct_one_at_endB7v160006IJRKS2_EEEvDpOT_, symObjAddr: 0x2D450, symBinAddr: 0x10005FECC, symSize: 0xB4 }
  - { offsetInCU: 0xA4B07, offset: 0x432FE2, size: 0x8, addend: 0x0, symName: __ZNK7testing10TestResult19test_property_countEv, symObjAddr: 0xB860, symBinAddr: 0x10003E6E8, symSize: 0x1C }
  - { offsetInCU: 0xA4B2B, offset: 0x433006, size: 0x8, addend: 0x0, symName: __ZNK7testing10TestResult19test_property_countEv, symObjAddr: 0xB860, symBinAddr: 0x10003E6E8, symSize: 0x1C }
  - { offsetInCU: 0xA4B6B, offset: 0x433046, size: 0x8, addend: 0x0, symName: __ZN7testing10TestResult20ClearTestPartResultsEv, symObjAddr: 0xB87C, symBinAddr: 0x10003E704, symSize: 0x84 }
  - { offsetInCU: 0xA5258, offset: 0x433733, size: 0x8, addend: 0x0, symName: __ZN7testing10TestResult14RecordPropertyERKNSt3__112basic_stringIcNS1_11char_traitsIcEENS1_9allocatorIcEEEERKNS_12TestPropertyE, symObjAddr: 0xB900, symBinAddr: 0x10003E788, symSize: 0x2FC }
  - { offsetInCU: 0xA63FE, offset: 0x4348D9, size: 0x8, addend: 0x0, symName: __ZN7testing10TestResult20ValidateTestPropertyERKNSt3__112basic_stringIcNS1_11char_traitsIcEENS1_9allocatorIcEEEERKNS_12TestPropertyE, symObjAddr: 0xBBFC, symBinAddr: 0x10003EA84, symSize: 0x6C4 }
  - { offsetInCU: 0xA85FF, offset: 0x436ADA, size: 0x8, addend: 0x0, symName: __ZNSt3__16vectorIN7testing12TestPropertyENS_9allocatorIS2_EEE21__push_back_slow_pathIRKS2_EEvOT_, symObjAddr: 0x2D868, symBinAddr: 0x1000602E4, symSize: 0x214 }
  - { offsetInCU: 0xA909F, offset: 0x43757A, size: 0x8, addend: 0x0, symName: __ZNSt3__16vectorINS_12basic_stringIcNS_11char_traitsIcEENS_9allocatorIcEEEENS4_IS6_EEEC1IPKPKcLi0EEET_SE_, symObjAddr: 0x2991C, symBinAddr: 0x10005C3D4, symSize: 0xD0 }
  - { offsetInCU: 0xA938A, offset: 0x437865, size: 0x8, addend: 0x0, symName: __ZN7testing10TestResult5ClearEv, symObjAddr: 0xC2C0, symBinAddr: 0x10003F148, symSize: 0xD0 }
  - { offsetInCU: 0xA9ACF, offset: 0x437FAA, size: 0x8, addend: 0x0, symName: __ZNK7testing10TestResult7SkippedEv, symObjAddr: 0xC390, symBinAddr: 0x10003F218, symSize: 0xCC }
  - { offsetInCU: 0xA9C2B, offset: 0x438106, size: 0x8, addend: 0x0, symName: __ZNK7testing10TestResult6FailedEv, symObjAddr: 0xC45C, symBinAddr: 0x10003F2E4, symSize: 0x88 }
  - { offsetInCU: 0xA9C36, offset: 0x438111, size: 0x8, addend: 0x0, symName: __ZNK7testing10TestResult6FailedEv, symObjAddr: 0xC45C, symBinAddr: 0x10003F2E4, symSize: 0x88 }
  - { offsetInCU: 0xA9CE9, offset: 0x4381C4, size: 0x8, addend: 0x0, symName: __ZNK7testing10TestResult15HasFatalFailureEv, symObjAddr: 0xC4E4, symBinAddr: 0x10003F36C, symSize: 0x38 }
  - { offsetInCU: 0xA9D0C, offset: 0x4381E7, size: 0x8, addend: 0x0, symName: __ZNK7testing10TestResult15HasFatalFailureEv, symObjAddr: 0xC4E4, symBinAddr: 0x10003F36C, symSize: 0x38 }
  - { offsetInCU: 0xA9D30, offset: 0x43820B, size: 0x8, addend: 0x0, symName: __ZNK7testing10TestResult15HasFatalFailureEv, symObjAddr: 0xC4E4, symBinAddr: 0x10003F36C, symSize: 0x38 }
  - { offsetInCU: 0xA9D54, offset: 0x43822F, size: 0x8, addend: 0x0, symName: __ZNK7testing10TestResult15HasFatalFailureEv, symObjAddr: 0xC4E4, symBinAddr: 0x10003F36C, symSize: 0x38 }
  - { offsetInCU: 0xA9D6E, offset: 0x438249, size: 0x8, addend: 0x0, symName: __ZNK7testing10TestResult15HasFatalFailureEv, symObjAddr: 0xC4E4, symBinAddr: 0x10003F36C, symSize: 0x38 }
  - { offsetInCU: 0xA9DE2, offset: 0x4382BD, size: 0x8, addend: 0x0, symName: __ZNK7testing10TestResult18HasNonfatalFailureEv, symObjAddr: 0xC51C, symBinAddr: 0x10003F3A4, symSize: 0x38 }
  - { offsetInCU: 0xA9E06, offset: 0x4382E1, size: 0x8, addend: 0x0, symName: __ZNK7testing10TestResult18HasNonfatalFailureEv, symObjAddr: 0xC51C, symBinAddr: 0x10003F3A4, symSize: 0x38 }
  - { offsetInCU: 0xA9E2A, offset: 0x438305, size: 0x8, addend: 0x0, symName: __ZNK7testing10TestResult18HasNonfatalFailureEv, symObjAddr: 0xC51C, symBinAddr: 0x10003F3A4, symSize: 0x38 }
  - { offsetInCU: 0xA9E44, offset: 0x43831F, size: 0x8, addend: 0x0, symName: __ZNK7testing10TestResult18HasNonfatalFailureEv, symObjAddr: 0xC51C, symBinAddr: 0x10003F3A4, symSize: 0x38 }
  - { offsetInCU: 0xA9FD8, offset: 0x4384B3, size: 0x8, addend: 0x0, symName: __ZN7testing4TestC2Ev, symObjAddr: 0xC554, symBinAddr: 0x10003F3DC, symSize: 0x54 }
  - { offsetInCU: 0xAA0C9, offset: 0x4385A4, size: 0x8, addend: 0x0, symName: __ZN7testing8internal14GTestFlagSaverC2Ev, symObjAddr: 0x29BEC, symBinAddr: 0x10005C6A4, symSize: 0x218 }
  - { offsetInCU: 0xAA8B1, offset: 0x438D8C, size: 0x8, addend: 0x0, symName: __ZN7testing4TestD2Ev, symObjAddr: 0xC5A8, symBinAddr: 0x10003F430, symSize: 0x3C }
  - { offsetInCU: 0xAA975, offset: 0x438E50, size: 0x8, addend: 0x0, symName: __ZN7testing8internal14GTestFlagSaverD2Ev, symObjAddr: 0x2DB10, symBinAddr: 0x10006058C, symSize: 0x1E4 }
  - { offsetInCU: 0xAAF7A, offset: 0x439455, size: 0x8, addend: 0x0, symName: __ZN7testing4TestD1Ev, symObjAddr: 0xC5E4, symBinAddr: 0x10003F46C, symSize: 0x4 }
  - { offsetInCU: 0xAAFA4, offset: 0x43947F, size: 0x8, addend: 0x0, symName: __ZN7testing4TestD0Ev, symObjAddr: 0xC5E8, symBinAddr: 0x10003F470, symSize: 0x4 }
  - { offsetInCU: 0xAAFCE, offset: 0x4394A9, size: 0x8, addend: 0x0, symName: __ZN7testing4Test5SetUpEv, symObjAddr: 0xC5EC, symBinAddr: 0x10003F474, symSize: 0x4 }
  - { offsetInCU: 0xAAFF4, offset: 0x4394CF, size: 0x8, addend: 0x0, symName: __ZN7testing4Test8TearDownEv, symObjAddr: 0xC5F0, symBinAddr: 0x10003F478, symSize: 0x4 }
  - { offsetInCU: 0xAB01A, offset: 0x4394F5, size: 0x8, addend: 0x0, symName: __ZN7testing4Test14RecordPropertyERKNSt3__112basic_stringIcNS1_11char_traitsIcEENS1_9allocatorIcEEEES9_, symObjAddr: 0xC5F4, symBinAddr: 0x10003F47C, symSize: 0x104 }
  - { offsetInCU: 0xAB12C, offset: 0x439607, size: 0x8, addend: 0x0, symName: __ZN7testing8UnitTest14RecordPropertyERKNSt3__112basic_stringIcNS1_11char_traitsIcEENS1_9allocatorIcEEEES9_, symObjAddr: 0xC6F8, symBinAddr: 0x10003F580, symSize: 0xB0 }
  - { offsetInCU: 0xAB5C4, offset: 0x439A9F, size: 0x8, addend: 0x0, symName: __ZN7testing8internal12UnitTestImpl14RecordPropertyERKNS_12TestPropertyE, symObjAddr: 0x1BEAC, symBinAddr: 0x10004ED34, symSize: 0xC4 }
  - { offsetInCU: 0xAB954, offset: 0x439E2F, size: 0x8, addend: 0x0, symName: __ZN7testing12TestPropertyD1Ev, symObjAddr: 0x1BF70, symBinAddr: 0x10004EDF8, symSize: 0x4C }
  - { offsetInCU: 0xABBB1, offset: 0x43A08C, size: 0x8, addend: 0x0, symName: __ZN7testing4Test14RecordPropertyERKNSt3__112basic_stringIcNS1_11char_traitsIcEENS1_9allocatorIcEEEEi, symObjAddr: 0xC7A8, symBinAddr: 0x10003F630, symSize: 0x1A4 }
  - { offsetInCU: 0xAC940, offset: 0x43AE1B, size: 0x8, addend: 0x0, symName: __ZN7testing4Test19HasSameFixtureClassEv, symObjAddr: 0xCA34, symBinAddr: 0x10003F8BC, symSize: 0x524 }
  - { offsetInCU: 0xAE275, offset: 0x43C750, size: 0x8, addend: 0x0, symName: __ZN7testing8internal26GoogleTestFailureExceptionC2ERKNS_14TestPartResultE, symObjAddr: 0xCF58, symBinAddr: 0x10003FDE0, symSize: 0x8C }
  - { offsetInCU: 0xAE607, offset: 0x43CAE2, size: 0x8, addend: 0x0, symName: __ZN7testing4Test3RunEv, symObjAddr: 0xD240, symBinAddr: 0x1000400C8, symSize: 0x224 }
  - { offsetInCU: 0xAEA30, offset: 0x43CF0B, size: 0x8, addend: 0x0, symName: __ZN7testing8internal35HandleExceptionsInMethodIfSupportedINS_4TestEvEET0_PT_MS4_FS3_vEPKc, symObjAddr: 0xD464, symBinAddr: 0x1000402EC, symSize: 0x18C }
  - { offsetInCU: 0xAEA62, offset: 0x43CF3D, size: 0x8, addend: 0x0, symName: __ZN7testing4Test15HasFatalFailureEv, symObjAddr: 0xD5F0, symBinAddr: 0x100040478, symSize: 0x70 }
  - { offsetInCU: 0xAEB5D, offset: 0x43D038, size: 0x8, addend: 0x0, symName: __ZN7testing4Test9IsSkippedEv, symObjAddr: 0xD660, symBinAddr: 0x1000404E8, symSize: 0xE0 }
  - { offsetInCU: 0xAECC7, offset: 0x43D1A2, size: 0x8, addend: 0x0, symName: __ZN7testing4Test18HasNonfatalFailureEv, symObjAddr: 0xD740, symBinAddr: 0x1000405C8, symSize: 0x70 }
  - { offsetInCU: 0xAECEB, offset: 0x43D1C6, size: 0x8, addend: 0x0, symName: __ZN7testing4Test18HasNonfatalFailureEv, symObjAddr: 0xD740, symBinAddr: 0x1000405C8, symSize: 0x70 }
  - { offsetInCU: 0xAEF22, offset: 0x43D3FD, size: 0x8, addend: 0x0, symName: __ZN7testing8TestInfoC2ERKNSt3__112basic_stringIcNS1_11char_traitsIcEENS1_9allocatorIcEEEES9_PKcSB_NS_8internal12CodeLocationEPKvPNSC_15TestFactoryBaseE, symObjAddr: 0xD7B0, symBinAddr: 0x100040638, symSize: 0x280 }
  - { offsetInCU: 0xAFBCA, offset: 0x43E0A5, size: 0x8, addend: 0x0, symName: __ZNSt3__110unique_ptrIKNS_12basic_stringIcNS_11char_traitsIcEENS_9allocatorIcEEEENS_14default_deleteIS7_EEED1B7v160006Ev, symObjAddr: 0xDA30, symBinAddr: 0x1000408B8, symSize: 0x44 }
  - { offsetInCU: 0xAFDDF, offset: 0x43E2BA, size: 0x8, addend: 0x0, symName: __ZN7testing8TestInfoC1ERKNSt3__112basic_stringIcNS1_11char_traitsIcEENS1_9allocatorIcEEEES9_PKcSB_NS_8internal12CodeLocationEPKvPNSC_15TestFactoryBaseE, symObjAddr: 0xDA74, symBinAddr: 0x1000408FC, symSize: 0x4 }
  - { offsetInCU: 0xAFE33, offset: 0x43E30E, size: 0x8, addend: 0x0, symName: __ZN7testing8TestInfoD2Ev, symObjAddr: 0xDA78, symBinAddr: 0x100040900, symSize: 0xC0 }
  - { offsetInCU: 0xAFEAF, offset: 0x43E38A, size: 0x8, addend: 0x0, symName: __ZN7testing8TestInfoD2Ev, symObjAddr: 0xDA78, symBinAddr: 0x100040900, symSize: 0xC0 }
  - { offsetInCU: 0xB05FB, offset: 0x43EAD6, size: 0x8, addend: 0x0, symName: __ZN7testing8TestInfoD1Ev, symObjAddr: 0xDB38, symBinAddr: 0x1000409C0, symSize: 0x4 }
  - { offsetInCU: 0xB061D, offset: 0x43EAF8, size: 0x8, addend: 0x0, symName: __ZN7testing8internal23MakeAndRegisterTestInfoEPKcS2_S2_S2_NS0_12CodeLocationEPKvPFvvES7_PNS0_15TestFactoryBaseE, symObjAddr: 0xDB3C, symBinAddr: 0x1000409C4, symSize: 0x298 }
  - { offsetInCU: 0xB06A2, offset: 0x43EB7D, size: 0x8, addend: 0x0, symName: __ZN7testing8internal12UnitTestImpl11AddTestInfoEPFvvES3_PNS_8TestInfoE, symObjAddr: 0xDDD4, symBinAddr: 0x100040C5C, symSize: 0x160 }
  - { offsetInCU: 0xB0DC6, offset: 0x43F2A1, size: 0x8, addend: 0x0, symName: __ZN7testing8internal8FilePath13GetCurrentDirEv, symObjAddr: 0x24D50, symBinAddr: 0x100057BD8, symSize: 0x164 }
  - { offsetInCU: 0xB1520, offset: 0x43F9FB, size: 0x8, addend: 0x0, symName: __ZN7testing8internal12UnitTestImpl12GetTestSuiteEPKcS3_PFvvES5_, symObjAddr: 0x1D9DC, symBinAddr: 0x100050864, symSize: 0x420 }
  - { offsetInCU: 0xB2BDC, offset: 0x4410B7, size: 0x8, addend: 0x0, symName: __ZN7testing9TestSuite11AddTestInfoEPNS_8TestInfoE, symObjAddr: 0xF030, symBinAddr: 0x100041EB8, symSize: 0x1A4 }
  - { offsetInCU: 0xB342E, offset: 0x441909, size: 0x8, addend: 0x0, symName: __ZN7testing9TestSuite3RunEv, symObjAddr: 0xF1D4, symBinAddr: 0x10004205C, symSize: 0x410 }
  - { offsetInCU: 0xB353B, offset: 0x441A16, size: 0x8, addend: 0x0, symName: __ZN7testing8internal12UnitTestImpl26RegisterParameterizedTestsEv, symObjAddr: 0xE5EC, symBinAddr: 0x100041474, symSize: 0x60 }
  - { offsetInCU: 0xB367E, offset: 0x441B59, size: 0x8, addend: 0x0, symName: __ZN7testing8TestInfo3RunEv, symObjAddr: 0xE64C, symBinAddr: 0x1000414D4, symSize: 0x328 }
  - { offsetInCU: 0xB3C18, offset: 0x4420F3, size: 0x8, addend: 0x0, symName: __ZN7testing8UnitTest9listenersEv, symObjAddr: 0xE974, symBinAddr: 0x1000417FC, symSize: 0xC }
  - { offsetInCU: 0xB3C3C, offset: 0x442117, size: 0x8, addend: 0x0, symName: __ZN7testing8UnitTest9listenersEv, symObjAddr: 0xE974, symBinAddr: 0x1000417FC, symSize: 0xC }
  - { offsetInCU: 0xB3C8A, offset: 0x442165, size: 0x8, addend: 0x0, symName: __ZN7testing4Test11DeleteSelf_Ev, symObjAddr: 0xEB00, symBinAddr: 0x100041988, symSize: 0x14 }
  - { offsetInCU: 0xB3CE7, offset: 0x4421C2, size: 0x8, addend: 0x0, symName: __ZN7testing8TestInfo4SkipEv, symObjAddr: 0xEB14, symBinAddr: 0x10004199C, symSize: 0x184 }
  - { offsetInCU: 0xB4574, offset: 0x442A4F, size: 0x8, addend: 0x0, symName: __ZN7testing9TestSuiteC2EPKcS2_PFvvES4_, symObjAddr: 0xECFC, symBinAddr: 0x100041B84, symSize: 0x1E8 }
  - { offsetInCU: 0xB518D, offset: 0x443668, size: 0x8, addend: 0x0, symName: __ZN7testing9TestSuiteC1EPKcS2_PFvvES4_, symObjAddr: 0xEEE4, symBinAddr: 0x100041D6C, symSize: 0x4 }
  - { offsetInCU: 0xB51CB, offset: 0x4436A6, size: 0x8, addend: 0x0, symName: __ZN7testing9TestSuiteD2Ev, symObjAddr: 0xEEE8, symBinAddr: 0x100041D70, symSize: 0xB8 }
  - { offsetInCU: 0xB5226, offset: 0x443701, size: 0x8, addend: 0x0, symName: __ZN7testing9TestSuiteD2Ev, symObjAddr: 0xEEE8, symBinAddr: 0x100041D70, symSize: 0xB8 }
  - { offsetInCU: 0xB5889, offset: 0x443D64, size: 0x8, addend: 0x0, symName: __ZN7testing9TestSuiteD1Ev, symObjAddr: 0xEFA0, symBinAddr: 0x100041E28, symSize: 0x4 }
  - { offsetInCU: 0xB58AB, offset: 0x443D86, size: 0x8, addend: 0x0, symName: __ZN7testing9TestSuiteD0Ev, symObjAddr: 0xEFA4, symBinAddr: 0x100041E2C, symSize: 0x14 }
  - { offsetInCU: 0xB58DC, offset: 0x443DB7, size: 0x8, addend: 0x0, symName: __ZN7testing9TestSuiteD0Ev, symObjAddr: 0xEFA4, symBinAddr: 0x100041E2C, symSize: 0x14 }
  - { offsetInCU: 0xB5956, offset: 0x443E31, size: 0x8, addend: 0x0, symName: __ZNK7testing9TestSuite11GetTestInfoEi, symObjAddr: 0xEFB8, symBinAddr: 0x100041E40, symSize: 0x3C }
  - { offsetInCU: 0xB598A, offset: 0x443E65, size: 0x8, addend: 0x0, symName: __ZNK7testing9TestSuite11GetTestInfoEi, symObjAddr: 0xEFB8, symBinAddr: 0x100041E40, symSize: 0x3C }
  - { offsetInCU: 0xB5A18, offset: 0x443EF3, size: 0x8, addend: 0x0, symName: __ZN7testing9TestSuite18GetMutableTestInfoEi, symObjAddr: 0xEFF4, symBinAddr: 0x100041E7C, symSize: 0x3C }
  - { offsetInCU: 0xB5A4C, offset: 0x443F27, size: 0x8, addend: 0x0, symName: __ZN7testing9TestSuite18GetMutableTestInfoEi, symObjAddr: 0xEFF4, symBinAddr: 0x100041E7C, symSize: 0x3C }
  - { offsetInCU: 0xB6152, offset: 0x44462D, size: 0x8, addend: 0x0, symName: __ZNKSt3__16vectorIPN7testing17TestEventListenerENS_9allocatorIS3_EEE20__throw_length_errorB7v160006Ev, symObjAddr: 0x2DE68, symBinAddr: 0x1000608D0, symSize: 0x14 }
  - { offsetInCU: 0xB6156, offset: 0x444631, size: 0x8, addend: 0x0, symName: __ZNKSt3__16vectorIPN7testing8TestInfoENS_9allocatorIS3_EEE20__throw_length_errorB7v160006Ev, symObjAddr: 0x2DE40, symBinAddr: 0x1000608BC, symSize: 0x14 }
  - { offsetInCU: 0xB61DD, offset: 0x4446B8, size: 0x8, addend: 0x0, symName: __ZN7testing9TestSuite3RunEv, symObjAddr: 0xF1D4, symBinAddr: 0x10004205C, symSize: 0x410 }
  - { offsetInCU: 0xB683E, offset: 0x444D19, size: 0x8, addend: 0x0, symName: __ZN7testing9TestSuite17RunSetUpTestSuiteEv, symObjAddr: 0xF770, symBinAddr: 0x1000425F8, symSize: 0x10 }
  - { offsetInCU: 0xB6871, offset: 0x444D4C, size: 0x8, addend: 0x0, symName: __ZN7testing9TestSuite20RunTearDownTestSuiteEv, symObjAddr: 0xF780, symBinAddr: 0x100042608, symSize: 0x10 }
  - { offsetInCU: 0xB68A4, offset: 0x444D7F, size: 0x8, addend: 0x0, symName: __ZN7testing9TestSuite4SkipEv, symObjAddr: 0xF790, symBinAddr: 0x100042618, symSize: 0x1C0 }
  - { offsetInCU: 0xB6B9C, offset: 0x445077, size: 0x8, addend: 0x0, symName: __ZN7testing9TestSuite11ClearResultEv, symObjAddr: 0xF950, symBinAddr: 0x1000427D8, symSize: 0x44 }
  - { offsetInCU: 0xB6C58, offset: 0x445133, size: 0x8, addend: 0x0, symName: __ZN7testing9TestSuite12ShuffleTestsEPNS_8internal6RandomE, symObjAddr: 0xF994, symBinAddr: 0x10004281C, symSize: 0x1C }
  - { offsetInCU: 0xB6CCC, offset: 0x4451A7, size: 0x8, addend: 0x0, symName: __ZN7testing9TestSuite14UnshuffleTestsEv, symObjAddr: 0xF9B0, symBinAddr: 0x100042838, symSize: 0x30 }
  - { offsetInCU: 0xB6CE5, offset: 0x4451C0, size: 0x8, addend: 0x0, symName: __ZN7testing9TestSuite14UnshuffleTestsEv, symObjAddr: 0xF9B0, symBinAddr: 0x100042838, symSize: 0x30 }
  - { offsetInCU: 0xB6DB5, offset: 0x445290, size: 0x8, addend: 0x0, symName: __ZN7testing8internal27PrettyUnitTestResultPrinter20OnTestIterationStartERKNS_8UnitTestEi, symObjAddr: 0xFC00, symBinAddr: 0x100042A88, symSize: 0x278 }
  - { offsetInCU: 0xB77A1, offset: 0x445C7C, size: 0x8, addend: 0x0, symName: __ZN7testing7MessageC2ERKS0_, symObjAddr: 0x2A3FC, symBinAddr: 0x10005CEB4, symSize: 0xE0 }
  - { offsetInCU: 0xB7C72, offset: 0x44614D, size: 0x8, addend: 0x0, symName: __ZNK7testing8UnitTest11random_seedEv, symObjAddr: 0x105C4, symBinAddr: 0x10004344C, symSize: 0xC }
  - { offsetInCU: 0xB7CB1, offset: 0x44618C, size: 0x8, addend: 0x0, symName: __ZNK7testing8UnitTest17test_to_run_countEv, symObjAddr: 0x105D0, symBinAddr: 0x100043458, symSize: 0x74 }
  - { offsetInCU: 0xB7CD5, offset: 0x4461B0, size: 0x8, addend: 0x0, symName: __ZNK7testing8UnitTest17test_to_run_countEv, symObjAddr: 0x105D0, symBinAddr: 0x100043458, symSize: 0x74 }
  - { offsetInCU: 0xB7E25, offset: 0x446300, size: 0x8, addend: 0x0, symName: __ZNK7testing8UnitTest23test_suite_to_run_countEv, symObjAddr: 0x10644, symBinAddr: 0x1000434CC, symSize: 0x34 }
  - { offsetInCU: 0xB7E49, offset: 0x446324, size: 0x8, addend: 0x0, symName: __ZNK7testing8UnitTest23test_suite_to_run_countEv, symObjAddr: 0x10644, symBinAddr: 0x1000434CC, symSize: 0x34 }
  - { offsetInCU: 0xB7F1C, offset: 0x4463F7, size: 0x8, addend: 0x0, symName: __ZN7testing8internal27PrettyUnitTestResultPrinter24OnEnvironmentsSetUpStartERKNS_8UnitTestE, symObjAddr: 0x10678, symBinAddr: 0x100043500, symSize: 0x38 }
  - { offsetInCU: 0xB7F5F, offset: 0x44643A, size: 0x8, addend: 0x0, symName: __ZN7testing8internal27PrettyUnitTestResultPrinter15OnTestCaseStartERKNS_9TestSuiteE, symObjAddr: 0x106B0, symBinAddr: 0x100043538, symSize: 0x130 }
  - { offsetInCU: 0xB7F96, offset: 0x446471, size: 0x8, addend: 0x0, symName: __ZN7testing8internal27PrettyUnitTestResultPrinter15OnTestCaseStartERKNS_9TestSuiteE, symObjAddr: 0x106B0, symBinAddr: 0x100043538, symSize: 0x130 }
  - { offsetInCU: 0xB85A4, offset: 0x446A7F, size: 0x8, addend: 0x0, symName: __ZN7testing8internal27PrettyUnitTestResultPrinter11OnTestStartERKNS_8TestInfoE, symObjAddr: 0x1095C, symBinAddr: 0x1000437E4, symSize: 0x78 }
  - { offsetInCU: 0xB8735, offset: 0x446C10, size: 0x8, addend: 0x0, symName: __ZN7testing8internal27PrettyUnitTestResultPrinter16OnTestPartResultERKNS_14TestPartResultE, symObjAddr: 0x109D4, symBinAddr: 0x10004385C, symSize: 0x74 }
  - { offsetInCU: 0xB8740, offset: 0x446C1B, size: 0x8, addend: 0x0, symName: __ZN7testing8internal27PrettyUnitTestResultPrinter16OnTestPartResultERKNS_14TestPartResultE, symObjAddr: 0x109D4, symBinAddr: 0x10004385C, symSize: 0x74 }
  - { offsetInCU: 0xB89CF, offset: 0x446EAA, size: 0x8, addend: 0x0, symName: __ZN7testing8internal27PrettyUnitTestResultPrinter9OnTestEndERKNS_8TestInfoE, symObjAddr: 0x10A48, symBinAddr: 0x1000438D0, symSize: 0x294 }
  - { offsetInCU: 0xB91CE, offset: 0x4476A9, size: 0x8, addend: 0x0, symName: __ZN7testing8internal27PrettyUnitTestResultPrinter13OnTestCaseEndERKNS_9TestSuiteE, symObjAddr: 0x10E98, symBinAddr: 0x100043D20, symSize: 0x1A0 }
  - { offsetInCU: 0xB9A13, offset: 0x447EEE, size: 0x8, addend: 0x0, symName: __ZN7testing8internal27PrettyUnitTestResultPrinter27OnEnvironmentsTearDownStartERKNS_8UnitTestE, symObjAddr: 0x11038, symBinAddr: 0x100043EC0, symSize: 0x38 }
  - { offsetInCU: 0xB9A56, offset: 0x447F31, size: 0x8, addend: 0x0, symName: __ZN7testing8internal27PrettyUnitTestResultPrinter16PrintFailedTestsERKNS_8UnitTestE, symObjAddr: 0x11070, symBinAddr: 0x100043EF8, symSize: 0x344 }
  - { offsetInCU: 0xB9B17, offset: 0x447FF2, size: 0x8, addend: 0x0, symName: __ZN7testing8internal27PrettyUnitTestResultPrinter16PrintFailedTestsERKNS_8UnitTestE, symObjAddr: 0x11070, symBinAddr: 0x100043EF8, symSize: 0x344 }
  - { offsetInCU: 0xBA2FD, offset: 0x4487D8, size: 0x8, addend: 0x0, symName: __ZNK7testing8UnitTest17failed_test_countEv, symObjAddr: 0x113B4, symBinAddr: 0x10004423C, symSize: 0x110 }
  - { offsetInCU: 0xBA310, offset: 0x4487EB, size: 0x8, addend: 0x0, symName: __ZNK7testing8UnitTest17failed_test_countEv, symObjAddr: 0x113B4, symBinAddr: 0x10004423C, symSize: 0x110 }
  - { offsetInCU: 0xBA50A, offset: 0x4489E5, size: 0x8, addend: 0x0, symName: __ZNK7testing8UnitTest22total_test_suite_countEv, symObjAddr: 0x114C4, symBinAddr: 0x10004434C, symSize: 0x14 }
  - { offsetInCU: 0xBA52E, offset: 0x448A09, size: 0x8, addend: 0x0, symName: __ZNK7testing8UnitTest22total_test_suite_countEv, symObjAddr: 0x114C4, symBinAddr: 0x10004434C, symSize: 0x14 }
  - { offsetInCU: 0xBA552, offset: 0x448A2D, size: 0x8, addend: 0x0, symName: __ZNK7testing8UnitTest22total_test_suite_countEv, symObjAddr: 0x114C4, symBinAddr: 0x10004434C, symSize: 0x14 }
  - { offsetInCU: 0xBA5CF, offset: 0x448AAA, size: 0x8, addend: 0x0, symName: __ZNK7testing8UnitTest12GetTestSuiteEi, symObjAddr: 0x114D8, symBinAddr: 0x100044360, symSize: 0x38 }
  - { offsetInCU: 0xBA67A, offset: 0x448B55, size: 0x8, addend: 0x0, symName: __ZN7testing8internal27PrettyUnitTestResultPrinter21PrintFailedTestSuitesERKNS_8UnitTestE, symObjAddr: 0x11510, symBinAddr: 0x100044398, symSize: 0x1A4 }
  - { offsetInCU: 0xBA96D, offset: 0x448E48, size: 0x8, addend: 0x0, symName: __ZN7testing8internal27PrettyUnitTestResultPrinter17PrintSkippedTestsERKNS_8UnitTestE, symObjAddr: 0x116B4, symBinAddr: 0x10004453C, symSize: 0x310 }
  - { offsetInCU: 0xBA999, offset: 0x448E74, size: 0x8, addend: 0x0, symName: __ZN7testing8internal27PrettyUnitTestResultPrinter17PrintSkippedTestsERKNS_8UnitTestE, symObjAddr: 0x116B4, symBinAddr: 0x10004453C, symSize: 0x310 }
  - { offsetInCU: 0xBB0C5, offset: 0x4495A0, size: 0x8, addend: 0x0, symName: __ZNK7testing8UnitTest18skipped_test_countEv, symObjAddr: 0x119C4, symBinAddr: 0x10004484C, symSize: 0x8 }
  - { offsetInCU: 0xBB0D8, offset: 0x4495B3, size: 0x8, addend: 0x0, symName: __ZNK7testing8UnitTest18skipped_test_countEv, symObjAddr: 0x119C4, symBinAddr: 0x10004484C, symSize: 0x8 }
  - { offsetInCU: 0xBB0FC, offset: 0x4495D7, size: 0x8, addend: 0x0, symName: __ZNK7testing8UnitTest18skipped_test_countEv, symObjAddr: 0x119C4, symBinAddr: 0x10004484C, symSize: 0x8 }
  - { offsetInCU: 0xBB11A, offset: 0x4495F5, size: 0x8, addend: 0x0, symName: __ZN7testing8internal27PrettyUnitTestResultPrinter18OnTestIterationEndERKNS_8UnitTestEi, symObjAddr: 0x119CC, symBinAddr: 0x100044854, symSize: 0x62C }
  - { offsetInCU: 0xBB21A, offset: 0x4496F5, size: 0x8, addend: 0x0, symName: __ZN7testing8internal27PrettyUnitTestResultPrinter18OnTestIterationEndERKNS_8UnitTestEi, symObjAddr: 0x119CC, symBinAddr: 0x100044854, symSize: 0x62C }
  - { offsetInCU: 0xBC8A8, offset: 0x44AD83, size: 0x8, addend: 0x0, symName: __ZNK7testing8UnitTest12elapsed_timeEv, symObjAddr: 0x11FF8, symBinAddr: 0x100044E80, symSize: 0xC }
  - { offsetInCU: 0xBC8CC, offset: 0x44ADA7, size: 0x8, addend: 0x0, symName: __ZNK7testing8UnitTest12elapsed_timeEv, symObjAddr: 0x11FF8, symBinAddr: 0x100044E80, symSize: 0xC }
  - { offsetInCU: 0xBC904, offset: 0x44ADDF, size: 0x8, addend: 0x0, symName: __ZNK7testing8UnitTest21successful_test_countEv, symObjAddr: 0x12004, symBinAddr: 0x100044E8C, symSize: 0xB0 }
  - { offsetInCU: 0xBCABA, offset: 0x44AF95, size: 0x8, addend: 0x0, symName: __ZNK7testing8UnitTest6PassedEv, symObjAddr: 0x120B4, symBinAddr: 0x100044F3C, symSize: 0xF0 }
  - { offsetInCU: 0xBCCB7, offset: 0x44B192, size: 0x8, addend: 0x0, symName: __ZNK7testing8UnitTest30reportable_disabled_test_countEv, symObjAddr: 0x121A4, symBinAddr: 0x10004502C, symSize: 0x98 }
  - { offsetInCU: 0xBCCC2, offset: 0x44B19D, size: 0x8, addend: 0x0, symName: __ZNK7testing8UnitTest30reportable_disabled_test_countEv, symObjAddr: 0x121A4, symBinAddr: 0x10004502C, symSize: 0x98 }
  - { offsetInCU: 0xBCCE6, offset: 0x44B1C1, size: 0x8, addend: 0x0, symName: __ZNK7testing8UnitTest30reportable_disabled_test_countEv, symObjAddr: 0x121A4, symBinAddr: 0x10004502C, symSize: 0x98 }
  - { offsetInCU: 0xBCE53, offset: 0x44B32E, size: 0x8, addend: 0x0, symName: __ZN7testing8internal26BriefUnitTestResultPrinter16OnTestPartResultERKNS_14TestPartResultE, symObjAddr: 0x1223C, symBinAddr: 0x1000450C4, symSize: 0x74 }
  - { offsetInCU: 0xBD0BB, offset: 0x44B596, size: 0x8, addend: 0x0, symName: __ZN7testing8internal26BriefUnitTestResultPrinter9OnTestEndERKNS_8TestInfoE, symObjAddr: 0x122B0, symBinAddr: 0x100045138, symSize: 0x1C8 }
  - { offsetInCU: 0xBD6FD, offset: 0x44BBD8, size: 0x8, addend: 0x0, symName: __ZN7testing8internal26BriefUnitTestResultPrinter18OnTestIterationEndERKNS_8UnitTestEi, symObjAddr: 0x12478, symBinAddr: 0x100045300, symSize: 0x554 }
  - { offsetInCU: 0xBEC3B, offset: 0x44D116, size: 0x8, addend: 0x0, symName: __ZN7testing8internal17TestEventRepeaterD2Ev, symObjAddr: 0x129CC, symBinAddr: 0x100045854, symSize: 0x70 }
  - { offsetInCU: 0xBEE54, offset: 0x44D32F, size: 0x8, addend: 0x0, symName: __ZN7testing8internal17TestEventRepeaterD1Ev, symObjAddr: 0x12A3C, symBinAddr: 0x1000458C4, symSize: 0x70 }
  - { offsetInCU: 0xBF08A, offset: 0x44D565, size: 0x8, addend: 0x0, symName: __ZN7testing8internal17TestEventRepeaterD0Ev, symObjAddr: 0x12AAC, symBinAddr: 0x100045934, symSize: 0x70 }
  - { offsetInCU: 0xBF633, offset: 0x44DB0E, size: 0x8, addend: 0x0, symName: __ZN7testing8internal17TestEventRepeater6AppendEPNS_17TestEventListenerE, symObjAddr: 0x12B1C, symBinAddr: 0x1000459A4, symSize: 0xF0 }
  - { offsetInCU: 0xBFA68, offset: 0x44DF43, size: 0x8, addend: 0x0, symName: __ZN7testing8internal17TestEventRepeater7ReleaseEPNS_17TestEventListenerE, symObjAddr: 0x12C0C, symBinAddr: 0x100045A94, symSize: 0x8C }
  - { offsetInCU: 0xBFA73, offset: 0x44DF4E, size: 0x8, addend: 0x0, symName: __ZNKSt3__16vectorIPN7testing17TestEventListenerENS_9allocatorIS3_EEE20__throw_length_errorB7v160006Ev, symObjAddr: 0x2DE68, symBinAddr: 0x1000608D0, symSize: 0x14 }
  - { offsetInCU: 0xBFA9C, offset: 0x44DF77, size: 0x8, addend: 0x0, symName: __ZNKSt3__16vectorIPN7testing11EnvironmentENS_9allocatorIS3_EEE20__throw_length_errorB7v160006Ev, symObjAddr: 0x2DE7C, symBinAddr: 0x1000608E4, symSize: 0x14 }
  - { offsetInCU: 0xBFBE8, offset: 0x44E0C3, size: 0x8, addend: 0x0, symName: __ZN7testing8internal17TestEventRepeater7ReleaseEPNS_17TestEventListenerE, symObjAddr: 0x12C0C, symBinAddr: 0x100045A94, symSize: 0x8C }
  - { offsetInCU: 0xBFDD9, offset: 0x44E2B4, size: 0x8, addend: 0x0, symName: __ZN7testing8internal17TestEventRepeater18OnTestProgramStartERKNS_8UnitTestE, symObjAddr: 0x12C98, symBinAddr: 0x100045B20, symSize: 0x68 }
  - { offsetInCU: 0xBFE59, offset: 0x44E334, size: 0x8, addend: 0x0, symName: __ZN7testing8internal17TestEventRepeater24OnEnvironmentsSetUpStartERKNS_8UnitTestE, symObjAddr: 0x12D00, symBinAddr: 0x100045B88, symSize: 0x68 }
  - { offsetInCU: 0xBFED9, offset: 0x44E3B4, size: 0x8, addend: 0x0, symName: __ZN7testing8internal17TestEventRepeater15OnTestCaseStartERKNS_9TestSuiteE, symObjAddr: 0x12D68, symBinAddr: 0x100045BF0, symSize: 0x68 }
  - { offsetInCU: 0xBFF59, offset: 0x44E434, size: 0x8, addend: 0x0, symName: __ZN7testing8internal17TestEventRepeater16OnTestSuiteStartERKNS_9TestSuiteE, symObjAddr: 0x12DD0, symBinAddr: 0x100045C58, symSize: 0x68 }
  - { offsetInCU: 0xBFFD9, offset: 0x44E4B4, size: 0x8, addend: 0x0, symName: __ZN7testing8internal17TestEventRepeater11OnTestStartERKNS_8TestInfoE, symObjAddr: 0x12E38, symBinAddr: 0x100045CC0, symSize: 0x68 }
  - { offsetInCU: 0xC0059, offset: 0x44E534, size: 0x8, addend: 0x0, symName: __ZN7testing8internal17TestEventRepeater16OnTestPartResultERKNS_14TestPartResultE, symObjAddr: 0x12EA0, symBinAddr: 0x100045D28, symSize: 0x68 }
  - { offsetInCU: 0xC00D9, offset: 0x44E5B4, size: 0x8, addend: 0x0, symName: __ZN7testing8internal17TestEventRepeater27OnEnvironmentsTearDownStartERKNS_8UnitTestE, symObjAddr: 0x12F08, symBinAddr: 0x100045D90, symSize: 0x68 }
  - { offsetInCU: 0xC017D, offset: 0x44E658, size: 0x8, addend: 0x0, symName: __ZN7testing8internal17TestEventRepeater22OnEnvironmentsSetUpEndERKNS_8UnitTestE, symObjAddr: 0x12F70, symBinAddr: 0x100045DF8, symSize: 0x68 }
  - { offsetInCU: 0xC021A, offset: 0x44E6F5, size: 0x8, addend: 0x0, symName: __ZN7testing8internal17TestEventRepeater25OnEnvironmentsTearDownEndERKNS_8UnitTestE, symObjAddr: 0x12FD8, symBinAddr: 0x100045E60, symSize: 0x68 }
  - { offsetInCU: 0xC02B7, offset: 0x44E792, size: 0x8, addend: 0x0, symName: __ZN7testing8internal17TestEventRepeater9OnTestEndERKNS_8TestInfoE, symObjAddr: 0x13040, symBinAddr: 0x100045EC8, symSize: 0x68 }
  - { offsetInCU: 0xC0354, offset: 0x44E82F, size: 0x8, addend: 0x0, symName: __ZN7testing8internal17TestEventRepeater13OnTestCaseEndERKNS_9TestSuiteE, symObjAddr: 0x130A8, symBinAddr: 0x100045F30, symSize: 0x68 }
  - { offsetInCU: 0xC03F1, offset: 0x44E8CC, size: 0x8, addend: 0x0, symName: __ZN7testing8internal17TestEventRepeater14OnTestSuiteEndERKNS_9TestSuiteE, symObjAddr: 0x13110, symBinAddr: 0x100045F98, symSize: 0x68 }
  - { offsetInCU: 0xC048E, offset: 0x44E969, size: 0x8, addend: 0x0, symName: __ZN7testing8internal17TestEventRepeater16OnTestProgramEndERKNS_8UnitTestE, symObjAddr: 0x13178, symBinAddr: 0x100046000, symSize: 0x68 }
  - { offsetInCU: 0xC052B, offset: 0x44EA06, size: 0x8, addend: 0x0, symName: __ZN7testing8internal17TestEventRepeater20OnTestIterationStartERKNS_8UnitTestEi, symObjAddr: 0x131E0, symBinAddr: 0x100046068, symSize: 0x70 }
  - { offsetInCU: 0xC05C1, offset: 0x44EA9C, size: 0x8, addend: 0x0, symName: __ZN7testing8internal17TestEventRepeater18OnTestIterationEndERKNS_8UnitTestEi, symObjAddr: 0x13250, symBinAddr: 0x1000460D8, symSize: 0x70 }
  - { offsetInCU: 0xC0674, offset: 0x44EB4F, size: 0x8, addend: 0x0, symName: __ZN7testing8internal24XmlUnitTestResultPrinterC2EPKc, symObjAddr: 0x132C0, symBinAddr: 0x100046148, symSize: 0x138 }
  - { offsetInCU: 0xC0CC1, offset: 0x44F19C, size: 0x8, addend: 0x0, symName: __ZN7testing8internal24XmlUnitTestResultPrinterC1EPKc, symObjAddr: 0x133F8, symBinAddr: 0x100046280, symSize: 0x4 }
  - { offsetInCU: 0xC0CEA, offset: 0x44F1C5, size: 0x8, addend: 0x0, symName: __ZN7testing8internal24XmlUnitTestResultPrinter18OnTestIterationEndERKNS_8UnitTestEi, symObjAddr: 0x133FC, symBinAddr: 0x100046284, symSize: 0x108 }
  - { offsetInCU: 0xC0D05, offset: 0x44F1E0, size: 0x8, addend: 0x0, symName: __ZN7testing8internal24XmlUnitTestResultPrinter18OnTestIterationEndERKNS_8UnitTestEi, symObjAddr: 0x133FC, symBinAddr: 0x100046284, symSize: 0x108 }
  - { offsetInCU: 0xC10EA, offset: 0x44F5C5, size: 0x8, addend: 0x0, symName: __ZN7testing8internal24XmlUnitTestResultPrinter16PrintXmlUnitTestEPNSt3__113basic_ostreamIcNS2_11char_traitsIcEEEERKNS_8UnitTestE, symObjAddr: 0x1366C, symBinAddr: 0x1000464F4, symSize: 0x8AC }
  - { offsetInCU: 0xC4BD3, offset: 0x4530AE, size: 0x8, addend: 0x0, symName: __ZNK7testing8internal8FilePath14RemoveFileNameEv, symObjAddr: 0x250A0, symBinAddr: 0x100057F28, symSize: 0x188 }
  - { offsetInCU: 0xC5687, offset: 0x453B62, size: 0x8, addend: 0x0, symName: __ZNK7testing8internal8FilePath28CreateDirectoriesRecursivelyEv, symObjAddr: 0x253FC, symBinAddr: 0x100058284, symSize: 0x1AC }
  - { offsetInCU: 0xC6057, offset: 0x454532, size: 0x8, addend: 0x0, symName: __ZN7testing8internal24XmlUnitTestResultPrinter18OutputXmlAttributeEPNSt3__113basic_ostreamIcNS2_11char_traitsIcEEEERKNS2_12basic_stringIcS5_NS2_9allocatorIcEEEESD_SD_, symObjAddr: 0x14FB0, symBinAddr: 0x100047E38, symSize: 0x2DC }
  - { offsetInCU: 0xC6C2C, offset: 0x455107, size: 0x8, addend: 0x0, symName: __ZN7testing8internal24XmlUnitTestResultPrinter29TestPropertiesAsXmlAttributesERKNS_10TestResultE, symObjAddr: 0x17904, symBinAddr: 0x10004A78C, symSize: 0x2F0 }
  - { offsetInCU: 0xC7B9A, offset: 0x456075, size: 0x8, addend: 0x0, symName: __ZN7testing8internal24XmlUnitTestResultPrinter17PrintXmlTestSuiteEPNSt3__113basic_ostreamIcNS2_11char_traitsIcEEEERKNS_9TestSuiteE, symObjAddr: 0x16F0C, symBinAddr: 0x100049D94, symSize: 0x9F8 }
  - { offsetInCU: 0xCB867, offset: 0x459D42, size: 0x8, addend: 0x0, symName: __ZN7testing8internal24XmlUnitTestResultPrinter23ListTestsMatchingFilterERKNSt3__16vectorIPNS_9TestSuiteENS2_9allocatorIS5_EEEE, symObjAddr: 0x13F18, symBinAddr: 0x100046DA0, symSize: 0x108 }
  - { offsetInCU: 0xCBC44, offset: 0x45A11F, size: 0x8, addend: 0x0, symName: __ZN7testing8internal24XmlUnitTestResultPrinter17PrintXmlTestsListEPNSt3__113basic_ostreamIcNS2_11char_traitsIcEEEERKNS2_6vectorIPNS_9TestSuiteENS2_9allocatorISA_EEEE, symObjAddr: 0x14020, symBinAddr: 0x100046EA8, symSize: 0x32C }
  - { offsetInCU: 0xCD10A, offset: 0x45B5E5, size: 0x8, addend: 0x0, symName: __ZN7testing8internal24XmlUnitTestResultPrinter9EscapeXmlERKNSt3__112basic_stringIcNS2_11char_traitsIcEENS2_9allocatorIcEEEEb, symObjAddr: 0x1434C, symBinAddr: 0x1000471D4, symSize: 0x2E0 }
  - { offsetInCU: 0xCD98C, offset: 0x45BE67, size: 0x8, addend: 0x0, symName: __ZN7testing8internal24XmlUnitTestResultPrinter26RemoveInvalidXmlCharactersERKNSt3__112basic_stringIcNS2_11char_traitsIcEENS2_9allocatorIcEEEE, symObjAddr: 0x1462C, symBinAddr: 0x1000474B4, symSize: 0x108 }
  - { offsetInCU: 0xCDC6E, offset: 0x45C149, size: 0x8, addend: 0x0, symName: __ZN7testing8internal24XmlUnitTestResultPrinter21OutputXmlCDataSectionEPNSt3__113basic_ostreamIcNS2_11char_traitsIcEEEEPKc, symObjAddr: 0x14EF4, symBinAddr: 0x100047D7C, symSize: 0xBC }
  - { offsetInCU: 0xCDE1B, offset: 0x45C2F6, size: 0x8, addend: 0x0, symName: __ZN7testing8internal24XmlUnitTestResultPrinter18OutputXmlAttributeEPNSt3__113basic_ostreamIcNS2_11char_traitsIcEEEERKNS2_12basic_stringIcS5_NS2_9allocatorIcEEEESD_SD_, symObjAddr: 0x14FB0, symBinAddr: 0x100047E38, symSize: 0x2DC }
  - { offsetInCU: 0xCDE95, offset: 0x45C370, size: 0x8, addend: 0x0, symName: __ZN7testing8internal24XmlUnitTestResultPrinter17OutputXmlTestInfoEPNSt3__113basic_ostreamIcNS2_11char_traitsIcEEEEPKcRKNS_8TestInfoE, symObjAddr: 0x15448, symBinAddr: 0x1000482D0, symSize: 0x12F0 }
  - { offsetInCU: 0xD696F, offset: 0x464E4A, size: 0x8, addend: 0x0, symName: __ZN7testing8internal24XmlUnitTestResultPrinter23OutputXmlTestPropertiesEPNSt3__113basic_ostreamIcNS2_11char_traitsIcEEEERKNS_10TestResultE, symObjAddr: 0x16A18, symBinAddr: 0x1000498A0, symSize: 0x4F4 }
  - { offsetInCU: 0xD86C3, offset: 0x466B9E, size: 0x8, addend: 0x0, symName: __ZNK7testing8UnitTest21reportable_test_countEv, symObjAddr: 0x17BF4, symBinAddr: 0x10004AA7C, symSize: 0x90 }
  - { offsetInCU: 0xD86E7, offset: 0x466BC2, size: 0x8, addend: 0x0, symName: __ZNK7testing8UnitTest21reportable_test_countEv, symObjAddr: 0x17BF4, symBinAddr: 0x10004AA7C, symSize: 0x90 }
  - { offsetInCU: 0xD8840, offset: 0x466D1B, size: 0x8, addend: 0x0, symName: __ZNK7testing8UnitTest15start_timestampEv, symObjAddr: 0x17C84, symBinAddr: 0x10004AB0C, symSize: 0xC }
  - { offsetInCU: 0xD8864, offset: 0x466D3F, size: 0x8, addend: 0x0, symName: __ZNK7testing8UnitTest15start_timestampEv, symObjAddr: 0x17C84, symBinAddr: 0x10004AB0C, symSize: 0xC }
  - { offsetInCU: 0xD889C, offset: 0x466D77, size: 0x8, addend: 0x0, symName: __ZNK7testing8UnitTest18ad_hoc_test_resultEv, symObjAddr: 0x17C90, symBinAddr: 0x10004AB18, symSize: 0xC }
  - { offsetInCU: 0xD88C0, offset: 0x466D9B, size: 0x8, addend: 0x0, symName: __ZNK7testing8UnitTest18ad_hoc_test_resultEv, symObjAddr: 0x17C90, symBinAddr: 0x10004AB18, symSize: 0xC }
  - { offsetInCU: 0xD88F8, offset: 0x466DD3, size: 0x8, addend: 0x0, symName: __ZN7testing8internal25JsonUnitTestResultPrinterC2EPKc, symObjAddr: 0x17C9C, symBinAddr: 0x10004AB24, symSize: 0x138 }
  - { offsetInCU: 0xD8F46, offset: 0x467421, size: 0x8, addend: 0x0, symName: __ZN7testing8internal25JsonUnitTestResultPrinterC1EPKc, symObjAddr: 0x17DD4, symBinAddr: 0x10004AC5C, symSize: 0x4 }
  - { offsetInCU: 0xD8F6F, offset: 0x46744A, size: 0x8, addend: 0x0, symName: __ZN7testing8internal25JsonUnitTestResultPrinter18OnTestIterationEndERKNS_8UnitTestEi, symObjAddr: 0x17DD8, symBinAddr: 0x10004AC60, symSize: 0x108 }
  - { offsetInCU: 0xD8F8A, offset: 0x467465, size: 0x8, addend: 0x0, symName: __ZN7testing8internal25JsonUnitTestResultPrinter18OnTestIterationEndERKNS_8UnitTestEi, symObjAddr: 0x17DD8, symBinAddr: 0x10004AC60, symSize: 0x108 }
  - { offsetInCU: 0xD936F, offset: 0x46784A, size: 0x8, addend: 0x0, symName: __ZN7testing8internal25JsonUnitTestResultPrinter17PrintJsonUnitTestEPNSt3__113basic_ostreamIcNS2_11char_traitsIcEEEERKNS_8UnitTestE, symObjAddr: 0x17EE0, symBinAddr: 0x10004AD68, symSize: 0x750 }
  - { offsetInCU: 0xDC769, offset: 0x46AC44, size: 0x8, addend: 0x0, symName: __ZN7testing8internal25JsonUnitTestResultPrinter13OutputJsonKeyEPNSt3__113basic_ostreamIcNS2_11char_traitsIcEEEERKNS2_12basic_stringIcS5_NS2_9allocatorIcEEEESD_iSD_b, symObjAddr: 0x18BB8, symBinAddr: 0x10004BA40, symSize: 0x380 }
  - { offsetInCU: 0xDD518, offset: 0x46B9F3, size: 0x8, addend: 0x0, symName: __ZN7testing8internal25JsonUnitTestResultPrinter13OutputJsonKeyEPNSt3__113basic_ostreamIcNS2_11char_traitsIcEEEERKNS2_12basic_stringIcS5_NS2_9allocatorIcEEEESD_SD_SD_b, symObjAddr: 0x18890, symBinAddr: 0x10004B718, symSize: 0x328 }
  - { offsetInCU: 0xDE1B5, offset: 0x46C690, size: 0x8, addend: 0x0, symName: __ZN7testing8internal25JsonUnitTestResultPrinter20TestPropertiesAsJsonERKNS_10TestResultERKNSt3__112basic_stringIcNS5_11char_traitsIcEENS5_9allocatorIcEEEE, symObjAddr: 0x1A6BC, symBinAddr: 0x10004D544, symSize: 0x328 }
  - { offsetInCU: 0xDF23E, offset: 0x46D719, size: 0x8, addend: 0x0, symName: __ZN7testing8internal25JsonUnitTestResultPrinter18PrintJsonTestSuiteEPNSt3__113basic_ostreamIcNS2_11char_traitsIcEEEERKNS_9TestSuiteE, symObjAddr: 0x1A9E4, symBinAddr: 0x10004D86C, symSize: 0x81C }
  - { offsetInCU: 0xE2811, offset: 0x470CEC, size: 0x8, addend: 0x0, symName: __ZN7testing8internal25JsonUnitTestResultPrinter10EscapeJsonERKNSt3__112basic_stringIcNS2_11char_traitsIcEENS2_9allocatorIcEEEE, symObjAddr: 0x18630, symBinAddr: 0x10004B4B8, symSize: 0x260 }
  - { offsetInCU: 0xE2FC9, offset: 0x4714A4, size: 0x8, addend: 0x0, symName: __ZN7testing8internal25JsonUnitTestResultPrinter18OutputJsonTestInfoEPNSt3__113basic_ostreamIcNS2_11char_traitsIcEEEEPKcRKNS_8TestInfoE, symObjAddr: 0x18F38, symBinAddr: 0x10004BDC0, symSize: 0xF48 }
  - { offsetInCU: 0xE9FD3, offset: 0x4784AE, size: 0x8, addend: 0x0, symName: __ZN7testing8internal25JsonUnitTestResultPrinter17PrintJsonTestListEPNSt3__113basic_ostreamIcNS2_11char_traitsIcEEEERKNS2_6vectorIPNS_9TestSuiteENS2_9allocatorISA_EEEE, symObjAddr: 0x1B200, symBinAddr: 0x10004E088, symSize: 0x334 }
  - { offsetInCU: 0xEB6E9, offset: 0x479BC4, size: 0x8, addend: 0x0, symName: __ZN7testing8internal18OsStackTraceGetter17CurrentStackTraceEii, symObjAddr: 0x1B534, symBinAddr: 0x10004E3BC, symSize: 0xC }
  - { offsetInCU: 0xEB729, offset: 0x479C04, size: 0x8, addend: 0x0, symName: __ZN7testing8internal18OsStackTraceGetter17CurrentStackTraceEii, symObjAddr: 0x1B534, symBinAddr: 0x10004E3BC, symSize: 0xC }
  - { offsetInCU: 0xEB745, offset: 0x479C20, size: 0x8, addend: 0x0, symName: __ZN7testing8internal18OsStackTraceGetter17CurrentStackTraceEii, symObjAddr: 0x1B534, symBinAddr: 0x10004E3BC, symSize: 0xC }
  - { offsetInCU: 0xEB761, offset: 0x479C3C, size: 0x8, addend: 0x0, symName: __ZN7testing8internal18OsStackTraceGetter17CurrentStackTraceEii, symObjAddr: 0x1B534, symBinAddr: 0x10004E3BC, symSize: 0xC }
  - { offsetInCU: 0xEB78C, offset: 0x479C67, size: 0x8, addend: 0x0, symName: __ZN7testing8internal18OsStackTraceGetter17CurrentStackTraceEii, symObjAddr: 0x1B534, symBinAddr: 0x10004E3BC, symSize: 0xC }
  - { offsetInCU: 0xEB7CD, offset: 0x479CA8, size: 0x8, addend: 0x0, symName: __ZN7testing8internal18OsStackTraceGetter16UponLeavingGTestEv, symObjAddr: 0x1B540, symBinAddr: 0x10004E3C8, symSize: 0x4 }
  - { offsetInCU: 0xEB85B, offset: 0x479D36, size: 0x8, addend: 0x0, symName: __ZN7testing18TestEventListenersC2Ev, symObjAddr: 0x1B544, symBinAddr: 0x10004E3CC, symSize: 0x4C }
  - { offsetInCU: 0xEB912, offset: 0x479DED, size: 0x8, addend: 0x0, symName: __ZN7testing18TestEventListenersC1Ev, symObjAddr: 0x1B590, symBinAddr: 0x10004E418, symSize: 0x4C }
  - { offsetInCU: 0xEB9C9, offset: 0x479EA4, size: 0x8, addend: 0x0, symName: __ZN7testing18TestEventListenersD2Ev, symObjAddr: 0x1B5DC, symBinAddr: 0x10004E464, symSize: 0x34 }
  - { offsetInCU: 0xEBA14, offset: 0x479EEF, size: 0x8, addend: 0x0, symName: __ZN7testing18TestEventListenersD1Ev, symObjAddr: 0x1B610, symBinAddr: 0x10004E498, symSize: 0x34 }
  - { offsetInCU: 0xEBA5F, offset: 0x479F3A, size: 0x8, addend: 0x0, symName: __ZN7testing18TestEventListeners6AppendEPNS_17TestEventListenerE, symObjAddr: 0x1B644, symBinAddr: 0x10004E4CC, symSize: 0x8 }
  - { offsetInCU: 0xEBA8A, offset: 0x479F65, size: 0x8, addend: 0x0, symName: __ZN7testing18TestEventListeners7ReleaseEPNS_17TestEventListenerE, symObjAddr: 0x1B64C, symBinAddr: 0x10004E4D4, symSize: 0xB0 }
  - { offsetInCU: 0xEBAD0, offset: 0x479FAB, size: 0x8, addend: 0x0, symName: __ZN7testing18TestEventListeners7ReleaseEPNS_17TestEventListenerE, symObjAddr: 0x1B64C, symBinAddr: 0x10004E4D4, symSize: 0xB0 }
  - { offsetInCU: 0xEBD31, offset: 0x47A20C, size: 0x8, addend: 0x0, symName: __ZN7testing18TestEventListeners23SetDefaultResultPrinterEPNS_17TestEventListenerE, symObjAddr: 0x1B6FC, symBinAddr: 0x10004E584, symSize: 0xE0 }
  - { offsetInCU: 0xEBFA9, offset: 0x47A484, size: 0x8, addend: 0x0, symName: __ZN7testing18TestEventListeners22SetDefaultXmlGeneratorEPNS_17TestEventListenerE, symObjAddr: 0x1B7DC, symBinAddr: 0x10004E664, symSize: 0xF4 }
  - { offsetInCU: 0xEC23D, offset: 0x47A718, size: 0x8, addend: 0x0, symName: __ZNK7testing18TestEventListeners22EventForwardingEnabledEv, symObjAddr: 0x1B8D0, symBinAddr: 0x10004E758, symSize: 0xC }
  - { offsetInCU: 0xEC2A6, offset: 0x47A781, size: 0x8, addend: 0x0, symName: __ZN7testing18TestEventListeners23SuppressEventForwardingEv, symObjAddr: 0x1B8DC, symBinAddr: 0x10004E764, symSize: 0xC }
  - { offsetInCU: 0xEC306, offset: 0x47A7E1, size: 0x8, addend: 0x0, symName: __ZN7testing8UnitTestD1Ev, symObjAddr: 0x1B964, symBinAddr: 0x10004E7EC, symSize: 0x48 }
  - { offsetInCU: 0xEC39B, offset: 0x47A876, size: 0x8, addend: 0x0, symName: __ZNK7testing8UnitTest27successful_test_suite_countEv, symObjAddr: 0x1B9AC, symBinAddr: 0x10004E834, symSize: 0x6C }
  - { offsetInCU: 0xEC4F1, offset: 0x47A9CC, size: 0x8, addend: 0x0, symName: __ZNK7testing8UnitTest23failed_test_suite_countEv, symObjAddr: 0x1BA18, symBinAddr: 0x10004E8A0, symSize: 0x6C }
  - { offsetInCU: 0xEC620, offset: 0x47AAFB, size: 0x8, addend: 0x0, symName: __ZNK7testing8UnitTest26successful_test_case_countEv, symObjAddr: 0x1BA84, symBinAddr: 0x10004E90C, symSize: 0x6C }
  - { offsetInCU: 0xEC776, offset: 0x47AC51, size: 0x8, addend: 0x0, symName: __ZNK7testing8UnitTest22failed_test_case_countEv, symObjAddr: 0x1BAF0, symBinAddr: 0x10004E978, symSize: 0x6C }
  - { offsetInCU: 0xEC8A5, offset: 0x47AD80, size: 0x8, addend: 0x0, symName: __ZNK7testing8UnitTest21total_test_case_countEv, symObjAddr: 0x1BB5C, symBinAddr: 0x10004E9E4, symSize: 0x14 }
  - { offsetInCU: 0xEC8D1, offset: 0x47ADAC, size: 0x8, addend: 0x0, symName: __ZNK7testing8UnitTest21total_test_case_countEv, symObjAddr: 0x1BB5C, symBinAddr: 0x10004E9E4, symSize: 0x14 }
  - { offsetInCU: 0xEC92A, offset: 0x47AE05, size: 0x8, addend: 0x0, symName: __ZNK7testing8UnitTest22test_case_to_run_countEv, symObjAddr: 0x1BB70, symBinAddr: 0x10004E9F8, symSize: 0x34 }
  - { offsetInCU: 0xEC956, offset: 0x47AE31, size: 0x8, addend: 0x0, symName: __ZNK7testing8UnitTest22test_case_to_run_countEv, symObjAddr: 0x1BB70, symBinAddr: 0x10004E9F8, symSize: 0x34 }
  - { offsetInCU: 0xECA42, offset: 0x47AF1D, size: 0x8, addend: 0x0, symName: __ZNK7testing8UnitTest19disabled_test_countEv, symObjAddr: 0x1BBA4, symBinAddr: 0x10004EA2C, symSize: 0x74 }
  - { offsetInCU: 0xECA6E, offset: 0x47AF49, size: 0x8, addend: 0x0, symName: __ZNK7testing8UnitTest19disabled_test_countEv, symObjAddr: 0x1BBA4, symBinAddr: 0x10004EA2C, symSize: 0x74 }
  - { offsetInCU: 0xECBBA, offset: 0x47B095, size: 0x8, addend: 0x0, symName: __ZNK7testing8UnitTest16total_test_countEv, symObjAddr: 0x1BC18, symBinAddr: 0x10004EAA0, symSize: 0x40 }
  - { offsetInCU: 0xECBE6, offset: 0x47B0C1, size: 0x8, addend: 0x0, symName: __ZNK7testing8UnitTest16total_test_countEv, symObjAddr: 0x1BC18, symBinAddr: 0x10004EAA0, symSize: 0x40 }
  - { offsetInCU: 0xECCBC, offset: 0x47B197, size: 0x8, addend: 0x0, symName: __ZNK7testing8UnitTest6FailedEv, symObjAddr: 0x1BC58, symBinAddr: 0x10004EAE0, symSize: 0xEC }
  - { offsetInCU: 0xECEAA, offset: 0x47B385, size: 0x8, addend: 0x0, symName: __ZNK7testing8UnitTest11GetTestCaseEi, symObjAddr: 0x1BD44, symBinAddr: 0x10004EBCC, symSize: 0x38 }
  - { offsetInCU: 0xECED7, offset: 0x47B3B2, size: 0x8, addend: 0x0, symName: __ZNK7testing8UnitTest11GetTestCaseEi, symObjAddr: 0x1BD44, symBinAddr: 0x10004EBCC, symSize: 0x38 }
  - { offsetInCU: 0xED008, offset: 0x47B4E3, size: 0x8, addend: 0x0, symName: __ZN7testing8UnitTest19GetMutableTestSuiteEi, symObjAddr: 0x1BD7C, symBinAddr: 0x10004EC04, symSize: 0x40 }
  - { offsetInCU: 0xED043, offset: 0x47B51E, size: 0x8, addend: 0x0, symName: __ZN7testing8UnitTest19GetMutableTestSuiteEi, symObjAddr: 0x1BD7C, symBinAddr: 0x10004EC04, symSize: 0x40 }
  - { offsetInCU: 0xED4C5, offset: 0x47B9A0, size: 0x8, addend: 0x0, symName: __ZN7testing8UnitTest14AddEnvironmentEPNS_11EnvironmentE, symObjAddr: 0x1BDBC, symBinAddr: 0x10004EC44, symSize: 0xEC }
  - { offsetInCU: 0xED8F3, offset: 0x47BDCE, size: 0x8, addend: 0x0, symName: __ZN7testing8internal26GoogleTestFailureExceptionD1Ev, symObjAddr: 0x1BEA8, symBinAddr: 0x10004ED30, symSize: 0x4 }
  - { offsetInCU: 0xED8FE, offset: 0x47BDD9, size: 0x8, addend: 0x0, symName: __ZNKSt3__16vectorIPN7testing11EnvironmentENS_9allocatorIS3_EEE20__throw_length_errorB7v160006Ev, symObjAddr: 0x2DE7C, symBinAddr: 0x1000608E4, symSize: 0x14 }
  - { offsetInCU: 0xED927, offset: 0x47BE02, size: 0x8, addend: 0x0, symName: __ZNSt3__16vectorIN7testing8internal9TraceInfoENS_9allocatorIS3_EEE21__push_back_slow_pathIRKS3_EEvOT_, symObjAddr: 0x2DE90, symBinAddr: 0x1000608F8, symSize: 0x1AC }
  - { offsetInCU: 0xED94E, offset: 0x47BE29, size: 0x8, addend: 0x0, symName: __ZN7testing8internal26GoogleTestFailureExceptionD1Ev, symObjAddr: 0x1BEA8, symBinAddr: 0x10004ED30, symSize: 0x4 }
  - { offsetInCU: 0xED970, offset: 0x47BE4B, size: 0x8, addend: 0x0, symName: __ZN7testing8internal26GoogleTestFailureExceptionD1Ev, symObjAddr: 0x1BEA8, symBinAddr: 0x10004ED30, symSize: 0x4 }
  - { offsetInCU: 0xEDA09, offset: 0x47BEE4, size: 0x8, addend: 0x0, symName: __ZN7testing8UnitTest3RunEv, symObjAddr: 0x1BFBC, symBinAddr: 0x10004EE44, symSize: 0xB4 }
  - { offsetInCU: 0xEDBA8, offset: 0x47C083, size: 0x8, addend: 0x0, symName: __ZN7testing8internal23ScopedPrematureExitFileC2EPKc, symObjAddr: 0x2A17C, symBinAddr: 0x10005CC34, symSize: 0x11C }
  - { offsetInCU: 0xEE12A, offset: 0x47C605, size: 0x8, addend: 0x0, symName: __ZN7testing8internal23ScopedPrematureExitFileD2Ev, symObjAddr: 0x2A298, symBinAddr: 0x10005CD50, symSize: 0xF8 }
  - { offsetInCU: 0xEE6DE, offset: 0x47CBB9, size: 0x8, addend: 0x0, symName: __ZN7testing8internal12UnitTestImpl11RunAllTestsEv, symObjAddr: 0x1C1F0, symBinAddr: 0x10004F078, symSize: 0x964 }
  - { offsetInCU: 0xEFFC0, offset: 0x47E49B, size: 0x8, addend: 0x0, symName: __ZNK7testing8UnitTest18current_test_suiteEv, symObjAddr: 0x1CB54, symBinAddr: 0x10004F9DC, symSize: 0x40 }
  - { offsetInCU: 0xEFFD3, offset: 0x47E4AE, size: 0x8, addend: 0x0, symName: __ZN7testing8internal12UnitTestImpl19PostFlagParsingInitEv, symObjAddr: 0x1D844, symBinAddr: 0x1000506CC, symSize: 0x198 }
  - { offsetInCU: 0xF05C8, offset: 0x47EAA3, size: 0x8, addend: 0x0, symName: __ZN7testing8internal12UnitTestImpl11FilterTestsENS1_18ReactionToShardingE, symObjAddr: 0x1E0AC, symBinAddr: 0x100050F34, symSize: 0x3C0 }
  - { offsetInCU: 0xF1608, offset: 0x47FAE3, size: 0x8, addend: 0x0, symName: __ZN7testing8internal12UnitTestImpl23ListTestsMatchingFilterEv, symObjAddr: 0x1E46C, symBinAddr: 0x1000512F4, symSize: 0x6A8 }
  - { offsetInCU: 0xF3192, offset: 0x48166D, size: 0x8, addend: 0x0, symName: __ZNK7testing8UnitTest18current_test_suiteEv, symObjAddr: 0x1CB54, symBinAddr: 0x10004F9DC, symSize: 0x40 }
  - { offsetInCU: 0xF3267, offset: 0x481742, size: 0x8, addend: 0x0, symName: __ZNK7testing8UnitTest17current_test_caseEv, symObjAddr: 0x1CB94, symBinAddr: 0x10004FA1C, symSize: 0x40 }
  - { offsetInCU: 0xF333C, offset: 0x481817, size: 0x8, addend: 0x0, symName: __ZNK7testing8UnitTest17current_test_infoEv, symObjAddr: 0x1CBD4, symBinAddr: 0x10004FA5C, symSize: 0x40 }
  - { offsetInCU: 0xF3427, offset: 0x481902, size: 0x8, addend: 0x0, symName: __ZN7testing8UnitTest27parameterized_test_registryEv, symObjAddr: 0x1CC14, symBinAddr: 0x10004FA9C, symSize: 0xC }
  - { offsetInCU: 0xF346E, offset: 0x481949, size: 0x8, addend: 0x0, symName: __ZN7testing8UnitTestC2Ev, symObjAddr: 0x1CC20, symBinAddr: 0x10004FAA8, symSize: 0x7C }
  - { offsetInCU: 0xF352A, offset: 0x481A05, size: 0x8, addend: 0x0, symName: __ZN7testing8internal12UnitTestImplC1EPNS_8UnitTestE, symObjAddr: 0x1CC9C, symBinAddr: 0x10004FB24, symSize: 0x4 }
  - { offsetInCU: 0xF3553, offset: 0x481A2E, size: 0x8, addend: 0x0, symName: __ZN7testing8UnitTestD2Ev, symObjAddr: 0x1CCA0, symBinAddr: 0x10004FB28, symSize: 0x48 }
  - { offsetInCU: 0xF356E, offset: 0x481A49, size: 0x8, addend: 0x0, symName: __ZN7testing8UnitTestD2Ev, symObjAddr: 0x1CCA0, symBinAddr: 0x10004FB28, symSize: 0x48 }
  - { offsetInCU: 0xF35EA, offset: 0x481AC5, size: 0x8, addend: 0x0, symName: __ZN7testing8UnitTestD0Ev, symObjAddr: 0x1CCE8, symBinAddr: 0x10004FB70, symSize: 0x48 }
  - { offsetInCU: 0xF381A, offset: 0x481CF5, size: 0x8, addend: 0x0, symName: __ZN7testing8UnitTest14PushGTestTraceERKNS_8internal9TraceInfoE, symObjAddr: 0x1CD30, symBinAddr: 0x10004FBB8, symSize: 0xB4 }
  - { offsetInCU: 0xF3AC2, offset: 0x481F9D, size: 0x8, addend: 0x0, symName: __ZNSt3__16vectorIN7testing8internal9TraceInfoENS_9allocatorIS3_EEE21__push_back_slow_pathIRKS3_EEvOT_, symObjAddr: 0x2DE90, symBinAddr: 0x1000608F8, symSize: 0x1AC }
  - { offsetInCU: 0xF42F6, offset: 0x4827D1, size: 0x8, addend: 0x0, symName: __ZN7testing8UnitTest13PopGTestTraceEv, symObjAddr: 0x1CDE4, symBinAddr: 0x10004FC6C, symSize: 0x80 }
  - { offsetInCU: 0xF5212, offset: 0x4836ED, size: 0x8, addend: 0x0, symName: __ZN7testing8internal11ThreadLocalIPNS_31TestPartResultReporterInterfaceEE9CreateKeyEv, symObjAddr: 0x2E0AC, symBinAddr: 0x100060B14, symSize: 0xA0 }
  - { offsetInCU: 0xF538B, offset: 0x483866, size: 0x8, addend: 0x0, symName: __ZN7testing8internal11ThreadLocalINSt3__16vectorINS0_9TraceInfoENS2_9allocatorIS4_EEEEE9CreateKeyEv, symObjAddr: 0x2E1A8, symBinAddr: 0x100060C10, symSize: 0xA0 }
  - { offsetInCU: 0xF5504, offset: 0x4839DF, size: 0x8, addend: 0x0, symName: __ZN7testing8internal11ThreadLocalINSt3__16vectorINS0_9TraceInfoENS2_9allocatorIS4_EEEEED2Ev, symObjAddr: 0x2E480, symBinAddr: 0x100060EE8, symSize: 0xBC }
  - { offsetInCU: 0xF571E, offset: 0x483BF9, size: 0x8, addend: 0x0, symName: __ZNSt3__110unique_ptrIN7testing8internal24InternalRunDeathTestFlagENS_14default_deleteIS3_EEED1B7v160006Ev, symObjAddr: 0x1D1E4, symBinAddr: 0x10005006C, symSize: 0x54 }
  - { offsetInCU: 0xF590F, offset: 0x483DEA, size: 0x8, addend: 0x0, symName: __ZNSt3__16__treeINS_12basic_stringIcNS_11char_traitsIcEENS_9allocatorIcEEEENS_4lessIS6_EENS4_IS6_EEE7destroyEPNS_11__tree_nodeIS6_PvEE, symObjAddr: 0x2E430, symBinAddr: 0x100060E98, symSize: 0x50 }
  - { offsetInCU: 0xF5B88, offset: 0x484063, size: 0x8, addend: 0x0, symName: __ZNSt3__16__treeINS_12__value_typeINS_12basic_stringIcNS_11char_traitsIcEENS_9allocatorIcEEEEN7testing8internal34TypeParameterizedTestSuiteRegistry30TypeParameterizedTestSuiteInfoEEENS_19__map_value_compareIS7_SC_NS_4lessIS7_EELb1EEENS5_ISC_EEE7destroyEPNS_11__tree_nodeISC_PvEE, symObjAddr: 0x2A390, symBinAddr: 0x10005CE48, symSize: 0x6C }
  - { offsetInCU: 0xF5F86, offset: 0x484461, size: 0x8, addend: 0x0, symName: __ZN7testing8internal30ParameterizedTestSuiteRegistryD1Ev, symObjAddr: 0x1D238, symBinAddr: 0x1000500C0, symSize: 0x64 }
  - { offsetInCU: 0xF618C, offset: 0x484667, size: 0x8, addend: 0x0, symName: __ZN7testing8internal11ThreadLocalIPNS_31TestPartResultReporterInterfaceEED2Ev, symObjAddr: 0x2E374, symBinAddr: 0x100060DDC, symSize: 0xBC }
  - { offsetInCU: 0xF65BB, offset: 0x484A96, size: 0x8, addend: 0x0, symName: __ZN7testing8internal38DefaultPerThreadTestPartResultReporterD1Ev, symObjAddr: 0x1D29C, symBinAddr: 0x100050124, symSize: 0x4 }
  - { offsetInCU: 0xF65E7, offset: 0x484AC2, size: 0x8, addend: 0x0, symName: __ZN7testing8internal35DefaultGlobalTestPartResultReporterD1Ev, symObjAddr: 0x1D2A0, symBinAddr: 0x100050128, symSize: 0x4 }
  - { offsetInCU: 0xF6663, offset: 0x484B3E, size: 0x8, addend: 0x0, symName: __ZN7testing8internal12UnitTestImplD2Ev, symObjAddr: 0x1D2A4, symBinAddr: 0x10005012C, symSize: 0x1B4 }
  - { offsetInCU: 0xF740C, offset: 0x4858E7, size: 0x8, addend: 0x0, symName: __ZN7testing8internal12UnitTestImplD1Ev, symObjAddr: 0x1D458, symBinAddr: 0x1000502E0, symSize: 0x4 }
  - { offsetInCU: 0xF742E, offset: 0x485909, size: 0x8, addend: 0x0, symName: __ZN7testing8internal12UnitTestImplD0Ev, symObjAddr: 0x1D45C, symBinAddr: 0x1000502E4, symSize: 0x14 }
  - { offsetInCU: 0xF745F, offset: 0x48593A, size: 0x8, addend: 0x0, symName: __ZN7testing8internal12UnitTestImplD0Ev, symObjAddr: 0x1D45C, symBinAddr: 0x1000502E4, symSize: 0x14 }
  - { offsetInCU: 0xF74D6, offset: 0x4859B1, size: 0x8, addend: 0x0, symName: __ZN7testing8internal12UnitTestImpl32SuppressTestEventsIfInSubprocessEv, symObjAddr: 0x1D470, symBinAddr: 0x1000502F8, symSize: 0x14 }
  - { offsetInCU: 0xF74F8, offset: 0x4859D3, size: 0x8, addend: 0x0, symName: __ZN7testing8internal12UnitTestImpl32SuppressTestEventsIfInSubprocessEv, symObjAddr: 0x1D470, symBinAddr: 0x1000502F8, symSize: 0x14 }
  - { offsetInCU: 0xF75DA, offset: 0x485AB5, size: 0x8, addend: 0x0, symName: __ZN7testing8internal12UnitTestImpl18ConfigureXmlOutputEv, symObjAddr: 0x1D484, symBinAddr: 0x10005030C, symSize: 0x3C0 }
  - { offsetInCU: 0xF8832, offset: 0x486D0D, size: 0x8, addend: 0x0, symName: __ZNSt3__16vectorIPN7testing9TestSuiteENS_9allocatorIS3_EEE6insertENS_11__wrap_iterIPKS3_EERS8_, symObjAddr: 0x1DDFC, symBinAddr: 0x100050C84, symSize: 0x22C }
  - { offsetInCU: 0xF92D9, offset: 0x4877B4, size: 0x8, addend: 0x0, symName: __ZNKSt3__16vectorIPN7testing9TestSuiteENS_9allocatorIS3_EEE20__throw_length_errorB7v160006Ev, symObjAddr: 0x2E53C, symBinAddr: 0x100060FA4, symSize: 0x14 }
  - { offsetInCU: 0xF9302, offset: 0x4877DD, size: 0x8, addend: 0x0, symName: __ZN7testing8internal18StreamableToStringIPcEENSt3__112basic_stringIcNS3_11char_traitsIcEENS3_9allocatorIcEEEERKT_, symObjAddr: 0x2E550, symBinAddr: 0x100060FB8, symSize: 0xC8 }
  - { offsetInCU: 0xF964A, offset: 0x487B25, size: 0x8, addend: 0x0, symName: __ZN7testing8internal12UnitTestImpl12ShuffleTestsEv, symObjAddr: 0x1EB14, symBinAddr: 0x10005199C, symSize: 0x94 }
  - { offsetInCU: 0xF97CA, offset: 0x487CA5, size: 0x8, addend: 0x0, symName: __ZN7testing8internal12UnitTestImpl14UnshuffleTestsEv, symObjAddr: 0x1ECEC, symBinAddr: 0x100051B74, symSize: 0x6C }
  - { offsetInCU: 0xF98C2, offset: 0x487D9D, size: 0x8, addend: 0x0, symName: __ZN7testing8internal24XmlUnitTestResultPrinterD1Ev, symObjAddr: 0x1F150, symBinAddr: 0x100051FD8, symSize: 0x3C }
  - { offsetInCU: 0xF9A25, offset: 0x487F00, size: 0x8, addend: 0x0, symName: __ZN7testing8internal25JsonUnitTestResultPrinterD1Ev, symObjAddr: 0x1F18C, symBinAddr: 0x100052014, symSize: 0x3C }
  - { offsetInCU: 0xF9B88, offset: 0x488063, size: 0x8, addend: 0x0, symName: __ZN7testing8internal12UnitTestImpl25set_os_stack_trace_getterEPNS0_27OsStackTraceGetterInterfaceE, symObjAddr: 0x1F1C8, symBinAddr: 0x100052050, symSize: 0x40 }
  - { offsetInCU: 0xF9C99, offset: 0x488174, size: 0x8, addend: 0x0, symName: __ZN7testing11ScopedTrace9PushTraceEPKciNSt3__112basic_stringIcNS3_11char_traitsIcEENS3_9allocatorIcEEEE, symObjAddr: 0x20074, symBinAddr: 0x100052EFC, symSize: 0xE8 }
  - { offsetInCU: 0xFA047, offset: 0x488522, size: 0x8, addend: 0x0, symName: __ZN7testing11ScopedTraceD2Ev, symObjAddr: 0x2015C, symBinAddr: 0x100052FE4, symSize: 0xA0 }
  - { offsetInCU: 0xFA09D, offset: 0x488578, size: 0x8, addend: 0x0, symName: __ZN7testing11ScopedTraceD1Ev, symObjAddr: 0x201FC, symBinAddr: 0x100053084, symSize: 0x4 }
  - { offsetInCU: 0xFA0CB, offset: 0x4885A6, size: 0x8, addend: 0x0, symName: __ZN7testing8internal16InDeathTestChildEv, symObjAddr: 0x20200, symBinAddr: 0x100053088, symSize: 0x94 }
  - { offsetInCU: 0xFA0DF, offset: 0x4885BA, size: 0x8, addend: 0x0, symName: __ZN7testing14ExitedWithCodeC2Ei, symObjAddr: 0x20294, symBinAddr: 0x10005311C, symSize: 0x8 }
  - { offsetInCU: 0xFA133, offset: 0x48860E, size: 0x8, addend: 0x0, symName: __ZN7testing14ExitedWithCodeC1Ei, symObjAddr: 0x2029C, symBinAddr: 0x100053124, symSize: 0x8 }
  - { offsetInCU: 0xFA16E, offset: 0x488649, size: 0x8, addend: 0x0, symName: __ZN7testing14ExitedWithCodeC1Ei, symObjAddr: 0x2029C, symBinAddr: 0x100053124, symSize: 0x8 }
  - { offsetInCU: 0xFA18F, offset: 0x48866A, size: 0x8, addend: 0x0, symName: __ZNK7testing14ExitedWithCodeclEi, symObjAddr: 0x202A4, symBinAddr: 0x10005312C, symSize: 0x24 }
  - { offsetInCU: 0xFA1C9, offset: 0x4886A4, size: 0x8, addend: 0x0, symName: __ZN7testing14KilledBySignalC2Ei, symObjAddr: 0x202C8, symBinAddr: 0x100053150, symSize: 0x8 }
  - { offsetInCU: 0xFA21D, offset: 0x4886F8, size: 0x8, addend: 0x0, symName: __ZN7testing14KilledBySignalC1Ei, symObjAddr: 0x202D0, symBinAddr: 0x100053158, symSize: 0x8 }
  - { offsetInCU: 0xFA258, offset: 0x488733, size: 0x8, addend: 0x0, symName: __ZN7testing14KilledBySignalC1Ei, symObjAddr: 0x202D0, symBinAddr: 0x100053158, symSize: 0x8 }
  - { offsetInCU: 0xFA279, offset: 0x488754, size: 0x8, addend: 0x0, symName: __ZNK7testing14KilledBySignalclEi, symObjAddr: 0x202D8, symBinAddr: 0x100053160, symSize: 0x2C }
  - { offsetInCU: 0xFA2D9, offset: 0x4887B4, size: 0x8, addend: 0x0, symName: __ZN7testing8internal9DeathTestC2Ev, symObjAddr: 0x203C4, symBinAddr: 0x10005324C, symSize: 0xAC }
  - { offsetInCU: 0xFA964, offset: 0x488E3F, size: 0x8, addend: 0x0, symName: __ZN7testing8internal9DeathTest6CreateEPKcNS_7MatcherIRKNSt3__112basic_stringIcNS5_11char_traitsIcEENS5_9allocatorIcEEEEEES3_iPPS1_, symObjAddr: 0x20500, symBinAddr: 0x100053388, symSize: 0xE4 }
  - { offsetInCU: 0xFABC2, offset: 0x48909D, size: 0x8, addend: 0x0, symName: __ZN7testing7MatcherIRKNSt3__112basic_stringIcNS1_11char_traitsIcEENS1_9allocatorIcEEEEED1Ev, symObjAddr: 0x205E4, symBinAddr: 0x10005346C, symSize: 0x60 }
  - { offsetInCU: 0xFACC3, offset: 0x48919E, size: 0x8, addend: 0x0, symName: __ZN7testing8internal9DeathTest11LastMessageEv, symObjAddr: 0x20644, symBinAddr: 0x1000534CC, symSize: 0x1C }
  - { offsetInCU: 0xFACDD, offset: 0x4891B8, size: 0x8, addend: 0x0, symName: __ZN7testing8internal9DeathTest11LastMessageEv, symObjAddr: 0x20644, symBinAddr: 0x1000534CC, symSize: 0x1C }
  - { offsetInCU: 0xFACFB, offset: 0x4891D6, size: 0x8, addend: 0x0, symName: __ZN7testing8internal9DeathTest11LastMessageEv, symObjAddr: 0x20644, symBinAddr: 0x1000534CC, symSize: 0x1C }
  - { offsetInCU: 0xFAD19, offset: 0x4891F4, size: 0x8, addend: 0x0, symName: __ZN7testing8internal9DeathTest11LastMessageEv, symObjAddr: 0x20644, symBinAddr: 0x1000534CC, symSize: 0x1C }
  - { offsetInCU: 0xFAD37, offset: 0x489212, size: 0x8, addend: 0x0, symName: __ZN7testing8internal9DeathTest11LastMessageEv, symObjAddr: 0x20644, symBinAddr: 0x1000534CC, symSize: 0x1C }
  - { offsetInCU: 0xFAD56, offset: 0x489231, size: 0x8, addend: 0x0, symName: __ZN7testing8internal9DeathTest27set_last_death_test_messageERKNSt3__112basic_stringIcNS2_11char_traitsIcEENS2_9allocatorIcEEEE, symObjAddr: 0x20660, symBinAddr: 0x1000534E8, symSize: 0x10 }
  - { offsetInCU: 0xFAE15, offset: 0x4892F0, size: 0x8, addend: 0x0, symName: __ZN7testing8internal13DeathTestImpl26ReadAndInterpretStatusByteEv, symObjAddr: 0x20670, symBinAddr: 0x1000534F8, symSize: 0x748 }
  - { offsetInCU: 0xFCB20, offset: 0x48AFFB, size: 0x8, addend: 0x0, symName: __ZN7testing8internal13DeathTestImpl12GetErrorLogsEv, symObjAddr: 0x20DB8, symBinAddr: 0x100053C40, symSize: 0x68 }
  - { offsetInCU: 0xFCD71, offset: 0x48B24C, size: 0x8, addend: 0x0, symName: __ZN7testing8internal14CapturedStream17GetCapturedStringEv, symObjAddr: 0x2B3E4, symBinAddr: 0x10005DE88, symSize: 0x118 }
  - { offsetInCU: 0xFD0B5, offset: 0x48B590, size: 0x8, addend: 0x0, symName: __ZN7testing8internal13DeathTestImpl5AbortENS0_9DeathTest11AbortReasonE, symObjAddr: 0x20E88, symBinAddr: 0x100053D10, symSize: 0x35C }
  - { offsetInCU: 0xFE568, offset: 0x48CA43, size: 0x8, addend: 0x0, symName: __ZN7testing8internal13DeathTestImpl6PassedEb, symObjAddr: 0x211E4, symBinAddr: 0x10005406C, symSize: 0x790 }
  - { offsetInCU: 0x10080C, offset: 0x48ECE7, size: 0x8, addend: 0x0, symName: __ZNSt3__119basic_ostringstreamIcNS_11char_traitsIcEENS_9allocatorIcEEED1Ev, symObjAddr: 0x21B00, symBinAddr: 0x100054988, symSize: 0x84 }
  - { offsetInCU: 0x1009F8, offset: 0x48EED3, size: 0x8, addend: 0x0, symName: __ZN7testing8internal16ForkingDeathTestC2EPKcNS_7MatcherIRKNSt3__112basic_stringIcNS5_11char_traitsIcEENS5_9allocatorIcEEEEEE, symObjAddr: 0x21B84, symBinAddr: 0x100054A0C, symSize: 0xB4 }
  - { offsetInCU: 0x100C00, offset: 0x48F0DB, size: 0x8, addend: 0x0, symName: __ZN7testing8internal13DeathTestImplC2EPKcNS_7MatcherIRKNSt3__112basic_stringIcNS5_11char_traitsIcEENS5_9allocatorIcEEEEEE, symObjAddr: 0x21C38, symBinAddr: 0x100054AC0, symSize: 0x114 }
  - { offsetInCU: 0x1011C2, offset: 0x48F69D, size: 0x8, addend: 0x0, symName: __ZN7testing8internal16ForkingDeathTest4WaitEv, symObjAddr: 0x21D4C, symBinAddr: 0x100054BD4, symSize: 0x364 }
  - { offsetInCU: 0x1024E5, offset: 0x4909C0, size: 0x8, addend: 0x0, symName: __ZN7testing8internal15NoExecDeathTest10AssumeRoleEv, symObjAddr: 0x220B0, symBinAddr: 0x100054F38, symSize: 0xC28 }
  - { offsetInCU: 0x10543C, offset: 0x493917, size: 0x8, addend: 0x0, symName: __ZN7testing8internal13ExecDeathTest10AssumeRoleEv, symObjAddr: 0x22D50, symBinAddr: 0x100055BD8, symSize: 0x1560 }
  - { offsetInCU: 0x10CE7A, offset: 0x49B355, size: 0x8, addend: 0x0, symName: __ZN7testing8internal9ArgumentsC2Ev, symObjAddr: 0x2A5A0, symBinAddr: 0x10005D058, symSize: 0x114 }
  - { offsetInCU: 0x10D471, offset: 0x49B94C, size: 0x8, addend: 0x0, symName: __ZNSt3__16vectorIPcNS_9allocatorIS1_EEE6insertENS_11__wrap_iterIPKS1_EEOS1_, symObjAddr: 0x2A6C8, symBinAddr: 0x10005D16C, symSize: 0x214 }
  - { offsetInCU: 0x10DEFA, offset: 0x49C3D5, size: 0x8, addend: 0x0, symName: __ZN7testing8internal9ArgumentsD1Ev, symObjAddr: 0x242B0, symBinAddr: 0x100057138, symSize: 0x50 }
  - { offsetInCU: 0x10E1B7, offset: 0x49C692, size: 0x8, addend: 0x0, symName: __ZN7testing8internal23DefaultDeathTestFactory6CreateEPKcNS_7MatcherIRKNSt3__112basic_stringIcNS5_11char_traitsIcEENS5_9allocatorIcEEEEEES3_iPPNS0_9DeathTestE, symObjAddr: 0x24300, symBinAddr: 0x100057188, symSize: 0x66C }
  - { offsetInCU: 0x10FFB2, offset: 0x49E48D, size: 0x8, addend: 0x0, symName: __ZN7testing8internal15NoExecDeathTestC2EPKcNS_7MatcherIRKNSt3__112basic_stringIcNS5_11char_traitsIcEENS5_9allocatorIcEEEEEE, symObjAddr: 0x2B178, symBinAddr: 0x10005DC1C, symSize: 0x10C }
  - { offsetInCU: 0x11033A, offset: 0x49E815, size: 0x8, addend: 0x0, symName: __ZN7testing8internal13ExecDeathTestC2EPKcNS_7MatcherIRKNSt3__112basic_stringIcNS5_11char_traitsIcEENS5_9allocatorIcEEEEEES3_i, symObjAddr: 0x2B054, symBinAddr: 0x10005DAF8, symSize: 0x124 }
  - { offsetInCU: 0x11081C, offset: 0x49ECF7, size: 0x8, addend: 0x0, symName: __ZNK7testing8internal8FilePath15RemoveExtensionEPKc, symObjAddr: 0x24EB4, symBinAddr: 0x100057D3C, symSize: 0x1D0 }
  - { offsetInCU: 0x1113BE, offset: 0x49F899, size: 0x8, addend: 0x0, symName: __ZNK7testing8internal8FilePath21FindLastPathSeparatorEv, symObjAddr: 0x25084, symBinAddr: 0x100057F0C, symSize: 0x1C }
  - { offsetInCU: 0x11143D, offset: 0x49F918, size: 0x8, addend: 0x0, symName: __ZNK7testing8internal8FilePath21FindLastPathSeparatorEv, symObjAddr: 0x25084, symBinAddr: 0x100057F0C, symSize: 0x1C }
  - { offsetInCU: 0x111498, offset: 0x49F973, size: 0x8, addend: 0x0, symName: __ZNK7testing8internal8FilePath21FileOrDirectoryExistsEv, symObjAddr: 0x25340, symBinAddr: 0x1000581C8, symSize: 0x34 }
  - { offsetInCU: 0x111589, offset: 0x49FA64, size: 0x8, addend: 0x0, symName: __ZNK7testing8internal8FilePath15DirectoryExistsEv, symObjAddr: 0x25374, symBinAddr: 0x1000581FC, symSize: 0x44 }
  - { offsetInCU: 0x1116A8, offset: 0x49FB83, size: 0x8, addend: 0x0, symName: __ZNK7testing8internal8FilePath15IsRootDirectoryEv, symObjAddr: 0x253B8, symBinAddr: 0x100058240, symSize: 0x44 }
  - { offsetInCU: 0x1116FE, offset: 0x49FBD9, size: 0x8, addend: 0x0, symName: __ZNK7testing8internal8FilePath15IsRootDirectoryEv, symObjAddr: 0x253B8, symBinAddr: 0x100058240, symSize: 0x44 }
  - { offsetInCU: 0x111854, offset: 0x49FD2F, size: 0x8, addend: 0x0, symName: __ZNK7testing8internal8FilePath12CreateFolderEv, symObjAddr: 0x255A8, symBinAddr: 0x100058430, symSize: 0x78 }
  - { offsetInCU: 0x112098, offset: 0x4A0573, size: 0x8, addend: 0x0, symName: __ZN7testing7MatcherIRKNSt3__112basic_stringIcNS1_11char_traitsIcEENS1_9allocatorIcEEEEEC2ES9_, symObjAddr: 0x25764, symBinAddr: 0x1000585EC, symSize: 0x174 }
  - { offsetInCU: 0x1129BF, offset: 0x4A0E9A, size: 0x8, addend: 0x0, symName: __ZN7testing8internal11MatcherBaseIRKNSt3__112basic_stringIcNS2_11char_traitsIcEENS2_9allocatorIcEEEEED2Ev, symObjAddr: 0x258D8, symBinAddr: 0x100058760, symSize: 0x60 }
  - { offsetInCU: 0x112A86, offset: 0x4A0F61, size: 0x8, addend: 0x0, symName: __ZN7testing7MatcherIRKNSt3__112basic_stringIcNS1_11char_traitsIcEENS1_9allocatorIcEEEEEC1ES9_, symObjAddr: 0x25938, symBinAddr: 0x1000587C0, symSize: 0x4 }
  - { offsetInCU: 0x112AC1, offset: 0x4A0F9C, size: 0x8, addend: 0x0, symName: __ZN7testing7MatcherIRKNSt3__112basic_stringIcNS1_11char_traitsIcEENS1_9allocatorIcEEEEEC2EPKc, symObjAddr: 0x2593C, symBinAddr: 0x1000587C4, symSize: 0x1E4 }
  - { offsetInCU: 0x112ADC, offset: 0x4A0FB7, size: 0x8, addend: 0x0, symName: __ZN7testing7MatcherIRKNSt3__112basic_stringIcNS1_11char_traitsIcEENS1_9allocatorIcEEEEEC2EPKc, symObjAddr: 0x2593C, symBinAddr: 0x1000587C4, symSize: 0x1E4 }
  - { offsetInCU: 0x113777, offset: 0x4A1C52, size: 0x8, addend: 0x0, symName: __ZN7testing7MatcherIRKNSt3__112basic_stringIcNS1_11char_traitsIcEENS1_9allocatorIcEEEEEC1EPKc, symObjAddr: 0x25B20, symBinAddr: 0x1000589A8, symSize: 0x4 }
  - { offsetInCU: 0x1137B2, offset: 0x4A1C8D, size: 0x8, addend: 0x0, symName: __ZN7testing7MatcherINSt3__112basic_stringIcNS1_11char_traitsIcEENS1_9allocatorIcEEEEEC2ERKS7_, symObjAddr: 0x25B24, symBinAddr: 0x1000589AC, symSize: 0x174 }
  - { offsetInCU: 0x1138CC, offset: 0x4A1DA7, size: 0x8, addend: 0x0, symName: __ZN7testing7MatcherINSt3__112basic_stringIcNS1_11char_traitsIcEENS1_9allocatorIcEEEEEC2ERKS7_, symObjAddr: 0x25B24, symBinAddr: 0x1000589AC, symSize: 0x174 }
  - { offsetInCU: 0x1141F3, offset: 0x4A26CE, size: 0x8, addend: 0x0, symName: __ZN7testing8internal11MatcherBaseINSt3__112basic_stringIcNS2_11char_traitsIcEENS2_9allocatorIcEEEEED2Ev, symObjAddr: 0x25CF8, symBinAddr: 0x100058B80, symSize: 0x60 }
  - { offsetInCU: 0x1142F1, offset: 0x4A27CC, size: 0x8, addend: 0x0, symName: __ZN7testing7MatcherINSt3__112basic_stringIcNS1_11char_traitsIcEENS1_9allocatorIcEEEEED1Ev, symObjAddr: 0x25C98, symBinAddr: 0x100058B20, symSize: 0x60 }
  - { offsetInCU: 0x1143F2, offset: 0x4A28CD, size: 0x8, addend: 0x0, symName: __ZN7testing7MatcherINSt3__112basic_stringIcNS1_11char_traitsIcEENS1_9allocatorIcEEEEEC1ERKS7_, symObjAddr: 0x25D58, symBinAddr: 0x100058BE0, symSize: 0x4 }
  - { offsetInCU: 0x11442D, offset: 0x4A2908, size: 0x8, addend: 0x0, symName: __ZN7testing7MatcherINSt3__112basic_stringIcNS1_11char_traitsIcEENS1_9allocatorIcEEEEEC2EPKc, symObjAddr: 0x25D5C, symBinAddr: 0x100058BE4, symSize: 0x1E4 }
  - { offsetInCU: 0x114448, offset: 0x4A2923, size: 0x8, addend: 0x0, symName: __ZN7testing7MatcherINSt3__112basic_stringIcNS1_11char_traitsIcEENS1_9allocatorIcEEEEEC2EPKc, symObjAddr: 0x25D5C, symBinAddr: 0x100058BE4, symSize: 0x1E4 }
  - { offsetInCU: 0x1150E3, offset: 0x4A35BE, size: 0x8, addend: 0x0, symName: __ZN7testing7MatcherINSt3__112basic_stringIcNS1_11char_traitsIcEENS1_9allocatorIcEEEEEC1EPKc, symObjAddr: 0x25F40, symBinAddr: 0x100058DC8, symSize: 0x4 }
  - { offsetInCU: 0x11511E, offset: 0x4A35F9, size: 0x8, addend: 0x0, symName: __ZN7testing8internal2RED2Ev, symObjAddr: 0x25F44, symBinAddr: 0x100058DCC, symSize: 0x44 }
  - { offsetInCU: 0x11519D, offset: 0x4A3678, size: 0x8, addend: 0x0, symName: __ZN7testing8internal2RED2Ev, symObjAddr: 0x25F44, symBinAddr: 0x100058DCC, symSize: 0x44 }
  - { offsetInCU: 0x11521D, offset: 0x4A36F8, size: 0x8, addend: 0x0, symName: __ZN7testing8internal2RED1Ev, symObjAddr: 0x25F88, symBinAddr: 0x100058E10, symSize: 0x44 }
  - { offsetInCU: 0x11528A, offset: 0x4A3765, size: 0x8, addend: 0x0, symName: __ZN7testing8internal2RE9FullMatchEPKcRKS1_, symObjAddr: 0x25FCC, symBinAddr: 0x100058E54, symSize: 0x4C }
  - { offsetInCU: 0x11535B, offset: 0x4A3836, size: 0x8, addend: 0x0, symName: __ZN7testing8internal2RE12PartialMatchEPKcRKS1_, symObjAddr: 0x26018, symBinAddr: 0x100058EA0, symSize: 0x4C }
  - { offsetInCU: 0x11540A, offset: 0x4A38E5, size: 0x8, addend: 0x0, symName: __ZN7testing8internal2RE4InitEPKc, symObjAddr: 0x26064, symBinAddr: 0x100058EEC, symSize: 0x31C }
  - { offsetInCU: 0x11654C, offset: 0x4A4A27, size: 0x8, addend: 0x0, symName: __ZN7testing8internal14CapturedStreamC2Ei, symObjAddr: 0x2B284, symBinAddr: 0x10005DD28, symSize: 0x160 }
  - { offsetInCU: 0x1169A4, offset: 0x4A4E7F, size: 0x8, addend: 0x0, symName: __ZNSt3__16vectorINS_12basic_stringIcNS_11char_traitsIcEENS_9allocatorIcEEEENS4_IS6_EEEC2INS_11__wrap_iterIPKS6_EELi0EEET_SE_, symObjAddr: 0x2F0B4, symBinAddr: 0x100061B1C, symSize: 0x118 }
  - { offsetInCU: 0x116E31, offset: 0x4A530C, size: 0x8, addend: 0x0, symName: __ZN7testing14TestPartResult14ExtractSummaryEPKc, symObjAddr: 0x27ACC, symBinAddr: 0x10005A954, symSize: 0x120 }
  - { offsetInCU: 0x1173E6, offset: 0x4A58C1, size: 0x8, addend: 0x0, symName: __ZN7testinglsERNSt3__113basic_ostreamIcNS0_11char_traitsIcEEEERKNS_14TestPartResultE, symObjAddr: 0x27BEC, symBinAddr: 0x10005AA74, symSize: 0x1D4 }
  - { offsetInCU: 0x11741C, offset: 0x4A58F7, size: 0x8, addend: 0x0, symName: __ZNK7testing19TestPartResultArray17GetTestPartResultEi, symObjAddr: 0x27DC0, symBinAddr: 0x10005AC48, symSize: 0x58 }
  - { offsetInCU: 0x117495, offset: 0x4A5970, size: 0x8, addend: 0x0, symName: __ZNK7testing19TestPartResultArray4sizeEv, symObjAddr: 0x27E18, symBinAddr: 0x10005ACA0, symSize: 0x1C }
  - { offsetInCU: 0x1174A0, offset: 0x4A597B, size: 0x8, addend: 0x0, symName: __ZNK7testing19TestPartResultArray4sizeEv, symObjAddr: 0x27E18, symBinAddr: 0x10005ACA0, symSize: 0x1C }
  - { offsetInCU: 0x1174C4, offset: 0x4A599F, size: 0x8, addend: 0x0, symName: __ZNK7testing19TestPartResultArray4sizeEv, symObjAddr: 0x27E18, symBinAddr: 0x10005ACA0, symSize: 0x1C }
  - { offsetInCU: 0x1174FB, offset: 0x4A59D6, size: 0x8, addend: 0x0, symName: __ZN7testing8internal24HasNewFatalFailureHelperC2Ev, symObjAddr: 0x27E34, symBinAddr: 0x10005ACBC, symSize: 0x54 }
  - { offsetInCU: 0x11762C, offset: 0x4A5B07, size: 0x8, addend: 0x0, symName: __ZN7testing8internal24HasNewFatalFailureHelperC1Ev, symObjAddr: 0x27E88, symBinAddr: 0x10005AD10, symSize: 0x54 }
  - { offsetInCU: 0x117762, offset: 0x4A5C3D, size: 0x8, addend: 0x0, symName: __ZN7testing8internal24HasNewFatalFailureHelperD2Ev, symObjAddr: 0x27EDC, symBinAddr: 0x10005AD64, symSize: 0x44 }
  - { offsetInCU: 0x11781B, offset: 0x4A5CF6, size: 0x8, addend: 0x0, symName: __ZN7testing8internal24HasNewFatalFailureHelperD1Ev, symObjAddr: 0x27F20, symBinAddr: 0x10005ADA8, symSize: 0x44 }
  - { offsetInCU: 0x1178EA, offset: 0x4A5DC5, size: 0x8, addend: 0x0, symName: __ZN7testing8internal24HasNewFatalFailureHelperD0Ev, symObjAddr: 0x27F64, symBinAddr: 0x10005ADEC, symSize: 0x44 }
  - { offsetInCU: 0x1179BE, offset: 0x4A5E99, size: 0x8, addend: 0x0, symName: __ZN7testing8internal24HasNewFatalFailureHelper20ReportTestPartResultERKNS_14TestPartResultE, symObjAddr: 0x27FA8, symBinAddr: 0x10005AE30, symSize: 0x24 }
  - { offsetInCU: 0x1179F7, offset: 0x4A5ED2, size: 0x8, addend: 0x0, symName: __ZN7testing8internal24HasNewFatalFailureHelper20ReportTestPartResultERKNS_14TestPartResultE, symObjAddr: 0x27FA8, symBinAddr: 0x10005AE30, symSize: 0x24 }
  - { offsetInCU: 0x117A12, offset: 0x4A5EED, size: 0x8, addend: 0x0, symName: __ZN7testing8internal20TypedTestSuitePState25VerifyRegisteredTestNamesEPKcS3_iS3_, symObjAddr: 0x27FCC, symBinAddr: 0x10005AE54, symSize: 0x88C }
  - { offsetInCU: 0x117E53, offset: 0x4A632E, size: 0x8, addend: 0x0, symName: __ZN7testing8internal20TypedTestSuitePState25VerifyRegisteredTestNamesEPKcS3_iS3_, symObjAddr: 0x27FCC, symBinAddr: 0x10005AE54, symSize: 0x88C }
  - { offsetInCU: 0x11AC66, offset: 0x4A9141, size: 0x8, addend: 0x0, symName: __ZNSt3__16__treeINS_12basic_stringIcNS_11char_traitsIcEENS_9allocatorIcEEEENS_4lessIS6_EENS4_IS6_EEE25__emplace_unique_key_argsIS6_JRKS6_EEENS_4pairINS_15__tree_iteratorIS6_PNS_11__tree_nodeIS6_PvEElEEbEERKT_DpOT0_, symObjAddr: 0x2F358, symBinAddr: 0x100061DC0, symSize: 0xBC }
  - { offsetInCU: 0x11AFAC, offset: 0x4A9487, size: 0x8, addend: 0x0, symName: __ZNKSt3__16__treeINS_12__value_typeINS_12basic_stringIcNS_11char_traitsIcEENS_9allocatorIcEEEEN7testing8internal12CodeLocationEEENS_19__map_value_compareIS7_SB_NS_4lessIS7_EELb1EEENS5_ISB_EEE14__count_uniqueIS7_EEmRKT_, symObjAddr: 0x2B90C, symBinAddr: 0x10005E3B0, symSize: 0x10C }
  - { offsetInCU: 0x11B298, offset: 0x4A9773, size: 0x8, addend: 0x0, symName: __ZN7testing8internal18OsStackTraceGetterD1Ev, symObjAddr: 0x28858, symBinAddr: 0x10005B6E0, symSize: 0x4 }
  - { offsetInCU: 0x11B2C4, offset: 0x4A979F, size: 0x8, addend: 0x0, symName: __ZN7testing8internal18OsStackTraceGetterD0Ev, symObjAddr: 0x2885C, symBinAddr: 0x10005B6E4, symSize: 0x4 }
  - { offsetInCU: 0x11B2F0, offset: 0x4A97CB, size: 0x8, addend: 0x0, symName: __ZN7testing8internal35DefaultGlobalTestPartResultReporterD0Ev, symObjAddr: 0x28860, symBinAddr: 0x10005B6E8, symSize: 0x4 }
  - { offsetInCU: 0x11B31C, offset: 0x4A97F7, size: 0x8, addend: 0x0, symName: __ZN7testing8internal38DefaultPerThreadTestPartResultReporterD0Ev, symObjAddr: 0x28864, symBinAddr: 0x10005B6EC, symSize: 0x4 }
  - { offsetInCU: 0x11B348, offset: 0x4A9823, size: 0x8, addend: 0x0, symName: __ZN7testing8internal27PrettyUnitTestResultPrinterD1Ev, symObjAddr: 0x28870, symBinAddr: 0x10005B6F0, symSize: 0x4 }
  - { offsetInCU: 0x11B374, offset: 0x4A984F, size: 0x8, addend: 0x0, symName: __ZN7testing8internal27PrettyUnitTestResultPrinterD0Ev, symObjAddr: 0x28874, symBinAddr: 0x10005B6F4, symSize: 0x4 }
  - { offsetInCU: 0x11B3A0, offset: 0x4A987B, size: 0x8, addend: 0x0, symName: __ZN7testing8internal27PrettyUnitTestResultPrinter18OnTestProgramStartERKNS_8UnitTestE, symObjAddr: 0x28878, symBinAddr: 0x10005B6F8, symSize: 0x4 }
  - { offsetInCU: 0x11B3D0, offset: 0x4A98AB, size: 0x8, addend: 0x0, symName: __ZN7testing8internal27PrettyUnitTestResultPrinter22OnEnvironmentsSetUpEndERKNS_8UnitTestE, symObjAddr: 0x2887C, symBinAddr: 0x10005B6FC, symSize: 0x4 }
  - { offsetInCU: 0x11B400, offset: 0x4A98DB, size: 0x8, addend: 0x0, symName: __ZN7testing17TestEventListener16OnTestSuiteStartERKNS_9TestSuiteE, symObjAddr: 0x28880, symBinAddr: 0x10005B700, symSize: 0x4 }
  - { offsetInCU: 0x11B430, offset: 0x4A990B, size: 0x8, addend: 0x0, symName: __ZN7testing17TestEventListener14OnTestSuiteEndERKNS_9TestSuiteE, symObjAddr: 0x28884, symBinAddr: 0x10005B704, symSize: 0x4 }
  - { offsetInCU: 0x11B460, offset: 0x4A993B, size: 0x8, addend: 0x0, symName: __ZN7testing8internal27PrettyUnitTestResultPrinter25OnEnvironmentsTearDownEndERKNS_8UnitTestE, symObjAddr: 0x28888, symBinAddr: 0x10005B708, symSize: 0x4 }
  - { offsetInCU: 0x11B490, offset: 0x4A996B, size: 0x8, addend: 0x0, symName: __ZN7testing8internal27PrettyUnitTestResultPrinter16OnTestProgramEndERKNS_8UnitTestE, symObjAddr: 0x2888C, symBinAddr: 0x10005B70C, symSize: 0x4 }
  - { offsetInCU: 0x11B4C0, offset: 0x4A999B, size: 0x8, addend: 0x0, symName: __ZN7testing8internal26BriefUnitTestResultPrinterD1Ev, symObjAddr: 0x28890, symBinAddr: 0x10005B710, symSize: 0x4 }
  - { offsetInCU: 0x11B4EC, offset: 0x4A99C7, size: 0x8, addend: 0x0, symName: __ZN7testing8internal26BriefUnitTestResultPrinterD0Ev, symObjAddr: 0x28894, symBinAddr: 0x10005B714, symSize: 0x4 }
  - { offsetInCU: 0x11B518, offset: 0x4A99F3, size: 0x8, addend: 0x0, symName: __ZN7testing8internal26BriefUnitTestResultPrinter18OnTestProgramStartERKNS_8UnitTestE, symObjAddr: 0x28898, symBinAddr: 0x10005B718, symSize: 0x4 }
  - { offsetInCU: 0x11B548, offset: 0x4A9A23, size: 0x8, addend: 0x0, symName: __ZN7testing8internal26BriefUnitTestResultPrinter20OnTestIterationStartERKNS_8UnitTestEi, symObjAddr: 0x2889C, symBinAddr: 0x10005B71C, symSize: 0x4 }
  - { offsetInCU: 0x11B583, offset: 0x4A9A5E, size: 0x8, addend: 0x0, symName: __ZN7testing8internal26BriefUnitTestResultPrinter24OnEnvironmentsSetUpStartERKNS_8UnitTestE, symObjAddr: 0x288A0, symBinAddr: 0x10005B720, symSize: 0x4 }
  - { offsetInCU: 0x11B5B3, offset: 0x4A9A8E, size: 0x8, addend: 0x0, symName: __ZN7testing8internal26BriefUnitTestResultPrinter22OnEnvironmentsSetUpEndERKNS_8UnitTestE, symObjAddr: 0x288A4, symBinAddr: 0x10005B724, symSize: 0x4 }
  - { offsetInCU: 0x11B5E3, offset: 0x4A9ABE, size: 0x8, addend: 0x0, symName: __ZN7testing8internal26BriefUnitTestResultPrinter15OnTestCaseStartERKNS_9TestSuiteE, symObjAddr: 0x288A8, symBinAddr: 0x10005B728, symSize: 0x4 }
  - { offsetInCU: 0x11B613, offset: 0x4A9AEE, size: 0x8, addend: 0x0, symName: __ZN7testing8internal26BriefUnitTestResultPrinter11OnTestStartERKNS_8TestInfoE, symObjAddr: 0x288AC, symBinAddr: 0x10005B72C, symSize: 0x4 }
  - { offsetInCU: 0x11B643, offset: 0x4A9B1E, size: 0x8, addend: 0x0, symName: __ZN7testing8internal26BriefUnitTestResultPrinter13OnTestCaseEndERKNS_9TestSuiteE, symObjAddr: 0x288B0, symBinAddr: 0x10005B730, symSize: 0x4 }
  - { offsetInCU: 0x11B673, offset: 0x4A9B4E, size: 0x8, addend: 0x0, symName: __ZN7testing8internal26BriefUnitTestResultPrinter27OnEnvironmentsTearDownStartERKNS_8UnitTestE, symObjAddr: 0x288B4, symBinAddr: 0x10005B734, symSize: 0x4 }
  - { offsetInCU: 0x11B6A3, offset: 0x4A9B7E, size: 0x8, addend: 0x0, symName: __ZN7testing8internal26BriefUnitTestResultPrinter25OnEnvironmentsTearDownEndERKNS_8UnitTestE, symObjAddr: 0x288B8, symBinAddr: 0x10005B738, symSize: 0x4 }
  - { offsetInCU: 0x11B6D3, offset: 0x4A9BAE, size: 0x8, addend: 0x0, symName: __ZN7testing8internal26BriefUnitTestResultPrinter16OnTestProgramEndERKNS_8UnitTestE, symObjAddr: 0x288BC, symBinAddr: 0x10005B73C, symSize: 0x4 }
  - { offsetInCU: 0x11B703, offset: 0x4A9BDE, size: 0x8, addend: 0x0, symName: __ZN7testing8internal24XmlUnitTestResultPrinterD0Ev, symObjAddr: 0x288C0, symBinAddr: 0x10005B740, symSize: 0x3C }
  - { offsetInCU: 0x11B88F, offset: 0x4A9D6A, size: 0x8, addend: 0x0, symName: __ZN7testing22EmptyTestEventListener18OnTestProgramStartERKNS_8UnitTestE, symObjAddr: 0x288FC, symBinAddr: 0x10005B77C, symSize: 0x4 }
  - { offsetInCU: 0x11B8BF, offset: 0x4A9D9A, size: 0x8, addend: 0x0, symName: __ZN7testing22EmptyTestEventListener20OnTestIterationStartERKNS_8UnitTestEi, symObjAddr: 0x28900, symBinAddr: 0x10005B780, symSize: 0x4 }
  - { offsetInCU: 0x11B8FA, offset: 0x4A9DD5, size: 0x8, addend: 0x0, symName: __ZN7testing22EmptyTestEventListener24OnEnvironmentsSetUpStartERKNS_8UnitTestE, symObjAddr: 0x28904, symBinAddr: 0x10005B784, symSize: 0x4 }
  - { offsetInCU: 0x11B92A, offset: 0x4A9E05, size: 0x8, addend: 0x0, symName: __ZN7testing22EmptyTestEventListener22OnEnvironmentsSetUpEndERKNS_8UnitTestE, symObjAddr: 0x28908, symBinAddr: 0x10005B788, symSize: 0x4 }
  - { offsetInCU: 0x11B95A, offset: 0x4A9E35, size: 0x8, addend: 0x0, symName: __ZN7testing22EmptyTestEventListener16OnTestSuiteStartERKNS_9TestSuiteE, symObjAddr: 0x2890C, symBinAddr: 0x10005B78C, symSize: 0x4 }
  - { offsetInCU: 0x11B98A, offset: 0x4A9E65, size: 0x8, addend: 0x0, symName: __ZN7testing22EmptyTestEventListener15OnTestCaseStartERKNS_9TestSuiteE, symObjAddr: 0x28910, symBinAddr: 0x10005B790, symSize: 0x4 }
  - { offsetInCU: 0x11B9BA, offset: 0x4A9E95, size: 0x8, addend: 0x0, symName: __ZN7testing22EmptyTestEventListener11OnTestStartERKNS_8TestInfoE, symObjAddr: 0x28914, symBinAddr: 0x10005B794, symSize: 0x4 }
  - { offsetInCU: 0x11B9EA, offset: 0x4A9EC5, size: 0x8, addend: 0x0, symName: __ZN7testing22EmptyTestEventListener16OnTestPartResultERKNS_14TestPartResultE, symObjAddr: 0x28918, symBinAddr: 0x10005B798, symSize: 0x4 }
  - { offsetInCU: 0x11BA1A, offset: 0x4A9EF5, size: 0x8, addend: 0x0, symName: __ZN7testing22EmptyTestEventListener9OnTestEndERKNS_8TestInfoE, symObjAddr: 0x2891C, symBinAddr: 0x10005B79C, symSize: 0x4 }
  - { offsetInCU: 0x11BA4A, offset: 0x4A9F25, size: 0x8, addend: 0x0, symName: __ZN7testing22EmptyTestEventListener14OnTestSuiteEndERKNS_9TestSuiteE, symObjAddr: 0x28920, symBinAddr: 0x10005B7A0, symSize: 0x4 }
  - { offsetInCU: 0x11BA7A, offset: 0x4A9F55, size: 0x8, addend: 0x0, symName: __ZN7testing22EmptyTestEventListener13OnTestCaseEndERKNS_9TestSuiteE, symObjAddr: 0x28924, symBinAddr: 0x10005B7A4, symSize: 0x4 }
  - { offsetInCU: 0x11BAAA, offset: 0x4A9F85, size: 0x8, addend: 0x0, symName: __ZN7testing22EmptyTestEventListener27OnEnvironmentsTearDownStartERKNS_8UnitTestE, symObjAddr: 0x28928, symBinAddr: 0x10005B7A8, symSize: 0x4 }
  - { offsetInCU: 0x11BADA, offset: 0x4A9FB5, size: 0x8, addend: 0x0, symName: __ZN7testing22EmptyTestEventListener25OnEnvironmentsTearDownEndERKNS_8UnitTestE, symObjAddr: 0x2892C, symBinAddr: 0x10005B7AC, symSize: 0x4 }
  - { offsetInCU: 0x11BB0A, offset: 0x4A9FE5, size: 0x8, addend: 0x0, symName: __ZN7testing22EmptyTestEventListener16OnTestProgramEndERKNS_8UnitTestE, symObjAddr: 0x28930, symBinAddr: 0x10005B7B0, symSize: 0x4 }
  - { offsetInCU: 0x11BB3A, offset: 0x4AA015, size: 0x8, addend: 0x0, symName: __ZN7testing8internal25JsonUnitTestResultPrinterD0Ev, symObjAddr: 0x28934, symBinAddr: 0x10005B7B4, symSize: 0x3C }
  - { offsetInCU: 0x11BCC6, offset: 0x4AA1A1, size: 0x8, addend: 0x0, symName: __ZN7testing8internal23DefaultDeathTestFactoryD1Ev, symObjAddr: 0x28970, symBinAddr: 0x10005B7F0, symSize: 0x4 }
  - { offsetInCU: 0x11BCF1, offset: 0x4AA1CC, size: 0x8, addend: 0x0, symName: __ZN7testing8internal23DefaultDeathTestFactoryD0Ev, symObjAddr: 0x28974, symBinAddr: 0x10005B7F4, symSize: 0x4 }
  - { offsetInCU: 0x11BD1C, offset: 0x4AA1F7, size: 0x8, addend: 0x0, symName: __ZN7testing8internal13DeathTestImplD1Ev, symObjAddr: 0x28978, symBinAddr: 0x100064070, symSize: 0x4 }
  - { offsetInCU: 0x11BD45, offset: 0x4AA220, size: 0x8, addend: 0x0, symName: __ZN7testing8internal13DeathTestImplD0Ev, symObjAddr: 0x2897C, symBinAddr: 0x100064074, symSize: 0x4 }
  - { offsetInCU: 0x11BD6E, offset: 0x4AA249, size: 0x8, addend: 0x0, symName: __ZN7testing8internal16ForkingDeathTestD1Ev, symObjAddr: 0x28980, symBinAddr: 0x100064078, symSize: 0x4 }
  - { offsetInCU: 0x11BD9A, offset: 0x4AA275, size: 0x8, addend: 0x0, symName: __ZN7testing8internal16ForkingDeathTestD0Ev, symObjAddr: 0x28984, symBinAddr: 0x10006407C, symSize: 0x4 }
  - { offsetInCU: 0x11BE00, offset: 0x4AA2DB, size: 0x8, addend: 0x0, symName: __ZN7testing8internal15NoExecDeathTestD1Ev, symObjAddr: 0x28988, symBinAddr: 0x10005B7F8, symSize: 0x4 }
  - { offsetInCU: 0x11BE22, offset: 0x4AA2FD, size: 0x8, addend: 0x0, symName: __ZN7testing8internal15NoExecDeathTestD1Ev, symObjAddr: 0x28988, symBinAddr: 0x10005B7F8, symSize: 0x4 }
  - { offsetInCU: 0x11BE3E, offset: 0x4AA319, size: 0x8, addend: 0x0, symName: __ZN7testing8internal15NoExecDeathTestD1Ev, symObjAddr: 0x28988, symBinAddr: 0x10005B7F8, symSize: 0x4 }
  - { offsetInCU: 0x11BE5C, offset: 0x4AA337, size: 0x8, addend: 0x0, symName: __ZN7testing8internal15NoExecDeathTestD0Ev, symObjAddr: 0x2898C, symBinAddr: 0x10005B7FC, symSize: 0x14 }
  - { offsetInCU: 0x11BE70, offset: 0x4AA34B, size: 0x8, addend: 0x0, symName: __ZN7testing8internal13DeathTestImplD2Ev, symObjAddr: 0x2B6EC, symBinAddr: 0x10005E190, symSize: 0x220 }
  - { offsetInCU: 0x11C79F, offset: 0x4AAC7A, size: 0x8, addend: 0x0, symName: __ZN7testing8internal15NoExecDeathTestD0Ev, symObjAddr: 0x2898C, symBinAddr: 0x10005B7FC, symSize: 0x14 }
  - { offsetInCU: 0x11C854, offset: 0x4AAD2F, size: 0x8, addend: 0x0, symName: __ZN7testing8internal13ExecDeathTestD1Ev, symObjAddr: 0x289A0, symBinAddr: 0x10005B810, symSize: 0x4 }
  - { offsetInCU: 0x11C876, offset: 0x4AAD51, size: 0x8, addend: 0x0, symName: __ZN7testing8internal13ExecDeathTestD1Ev, symObjAddr: 0x289A0, symBinAddr: 0x10005B810, symSize: 0x4 }
  - { offsetInCU: 0x11C892, offset: 0x4AAD6D, size: 0x8, addend: 0x0, symName: __ZN7testing8internal13ExecDeathTestD1Ev, symObjAddr: 0x289A0, symBinAddr: 0x10005B810, symSize: 0x4 }
  - { offsetInCU: 0x11C8B0, offset: 0x4AAD8B, size: 0x8, addend: 0x0, symName: __ZN7testing8internal13ExecDeathTestD0Ev, symObjAddr: 0x289A4, symBinAddr: 0x10005B814, symSize: 0x14 }
  - { offsetInCU: 0x11C8E1, offset: 0x4AADBC, size: 0x8, addend: 0x0, symName: __ZN7testing8internal13ExecDeathTestD0Ev, symObjAddr: 0x289A4, symBinAddr: 0x10005B814, symSize: 0x14 }
  - { offsetInCU: 0x11C995, offset: 0x4AAE70, size: 0x8, addend: 0x0, symName: __ZN7testing8internal26GoogleTestFailureExceptionD0Ev, symObjAddr: 0x289B8, symBinAddr: 0x10005B828, symSize: 0x14 }
  - { offsetInCU: 0x11C9F8, offset: 0x4AAED3, size: 0x8, addend: 0x0, symName: __ZN7testing8internal9DeathTestD1Ev, symObjAddr: 0x289CC, symBinAddr: 0x100064080, symSize: 0x4 }
  - { offsetInCU: 0x11CA21, offset: 0x4AAEFC, size: 0x8, addend: 0x0, symName: __ZN7testing8internal9DeathTestD0Ev, symObjAddr: 0x289D0, symBinAddr: 0x100064084, symSize: 0x4 }
  - { offsetInCU: 0x11CA4A, offset: 0x4AAF25, size: 0x8, addend: 0x0, symName: __ZN7testing7MatcherIRKNSt3__112basic_stringIcNS1_11char_traitsIcEENS1_9allocatorIcEEEEED0Ev, symObjAddr: 0x289D4, symBinAddr: 0x10005B83C, symSize: 0x60 }
  - { offsetInCU: 0x11CB91, offset: 0x4AB06C, size: 0x8, addend: 0x0, symName: __ZN7testing7MatcherINSt3__112basic_stringIcNS1_11char_traitsIcEENS1_9allocatorIcEEEEED0Ev, symObjAddr: 0x28A34, symBinAddr: 0x10005B89C, symSize: 0x60 }
  - { offsetInCU: 0x11D1BF, offset: 0x4AB69A, size: 0x8, addend: 0x0, symName: __ZNSt3__16__treeINS_12__value_typeINS_12basic_stringIcNS_11char_traitsIcEENS_9allocatorIcEEEEmEENS_19__map_value_compareIS7_S8_NS_4lessIS7_EELb1EEENS5_IS8_EEE12__find_equalIS7_EERPNS_16__tree_node_baseIPvEERPNS_15__tree_end_nodeISJ_EERKT_, symObjAddr: 0x290FC, symBinAddr: 0x10005BF64, symSize: 0x124 }
  - { offsetInCU: 0x11D914, offset: 0x4ABDEF, size: 0x8, addend: 0x0, symName: __ZNKSt3__16vectorINS_12basic_stringIcNS_11char_traitsIcEENS_9allocatorIcEEEENS4_IS6_EEE20__throw_length_errorB7v160006Ev, symObjAddr: 0x29A68, symBinAddr: 0x10005C520, symSize: 0x14 }
  - { offsetInCU: 0x11D93D, offset: 0x4ABE18, size: 0x8, addend: 0x0, symName: __ZNSt3__130__uninitialized_allocator_copyB7v160006INS_9allocatorINS_12basic_stringIcNS_11char_traitsIcEENS1_IcEEEEEEPKPKcSB_PS6_EET2_RT_T0_T1_SD_, symObjAddr: 0x29A7C, symBinAddr: 0x10005C534, symSize: 0x108 }
  - { offsetInCU: 0x11D948, offset: 0x4ABE23, size: 0x8, addend: 0x0, symName: __ZNSt3__16vectorINS_12basic_stringIcNS_11char_traitsIcEENS_9allocatorIcEEEENS4_IS6_EEEC1IPKPKcLi0EEET_SE_.cold.1, symObjAddr: 0x2F414, symBinAddr: 0x100064088, symSize: 0x60 }
  - { offsetInCU: 0x11DBE7, offset: 0x4AC0C2, size: 0x8, addend: 0x0, symName: __ZNSt3__128__exception_guard_exceptionsINS_6vectorINS_12basic_stringIcNS_11char_traitsIcEENS_9allocatorIcEEEENS5_IS7_EEE16__destroy_vectorEED1B7v160006Ev, symObjAddr: 0x299EC, symBinAddr: 0x10005C4A4, symSize: 0x7C }
  - { offsetInCU: 0x11DF62, offset: 0x4AC43D, size: 0x8, addend: 0x0, symName: __ZNSt3__128__exception_guard_exceptionsINS_29_AllocatorDestroyRangeReverseINS_9allocatorINS_12basic_stringIcNS_11char_traitsIcEENS2_IcEEEEEEPS7_EEED1B7v160006Ev, symObjAddr: 0x29B84, symBinAddr: 0x10005C63C, symSize: 0x68 }
  - { offsetInCU: 0x11E36E, offset: 0x4AC849, size: 0x8, addend: 0x0, symName: __ZN7testing8internal11MatcherBaseIRKNSt3__112basic_stringIcNS2_11char_traitsIcEENS2_9allocatorIcEEEEED1Ev, symObjAddr: 0x2A4E0, symBinAddr: 0x10005CF98, symSize: 0x60 }
  - { offsetInCU: 0x11E46C, offset: 0x4AC947, size: 0x8, addend: 0x0, symName: __ZN7testing8internal11MatcherBaseIRKNSt3__112basic_stringIcNS2_11char_traitsIcEENS2_9allocatorIcEEEEED0Ev, symObjAddr: 0x2A540, symBinAddr: 0x10005CFF8, symSize: 0x60 }
  - { offsetInCU: 0x11E911, offset: 0x4ACDEC, size: 0x8, addend: 0x0, symName: __ZNSt3__16vectorIPcNS_9allocatorIS1_EEE6insertENS_11__wrap_iterIPKS1_EEOS1_, symObjAddr: 0x2A6C8, symBinAddr: 0x10005D16C, symSize: 0x214 }
  - { offsetInCU: 0x11EF0A, offset: 0x4AD3E5, size: 0x8, addend: 0x0, symName: __ZNKSt3__112basic_stringIwNS_11char_traitsIwEENS_9allocatorIwEEE20__throw_length_errorB7v160006Ev, symObjAddr: 0x2BC44, symBinAddr: 0x10005E6E8, symSize: 0x14 }
  - { offsetInCU: 0x11EF33, offset: 0x4AD40E, size: 0x8, addend: 0x0, symName: __ZN7testing8internal11MatcherBaseINSt3__112basic_stringIcNS2_11char_traitsIcEENS2_9allocatorIcEEEEED1Ev, symObjAddr: 0x2BC58, symBinAddr: 0x10005E6FC, symSize: 0x60 }
  - { offsetInCU: 0x11EF3E, offset: 0x4AD419, size: 0x8, addend: 0x0, symName: __ZN7testing8internal11MatcherBaseINSt3__112basic_stringIcNS2_11char_traitsIcEENS2_9allocatorIcEEEEED1Ev, symObjAddr: 0x2BC58, symBinAddr: 0x10005E6FC, symSize: 0x60 }
  - { offsetInCU: 0x11F03C, offset: 0x4AD517, size: 0x8, addend: 0x0, symName: __ZN7testing8internal11MatcherBaseINSt3__112basic_stringIcNS2_11char_traitsIcEENS2_9allocatorIcEEEEED0Ev, symObjAddr: 0x2BCB8, symBinAddr: 0x10005E75C, symSize: 0x60 }
  - { offsetInCU: 0x11F1A8, offset: 0x4AD683, size: 0x8, addend: 0x0, symName: '__ZZN7testing12RegisterTestIJEZNS_8internal23InsertSyntheticTestCaseERKNSt3__112basic_stringIcNS2_11char_traitsIcEENS2_9allocatorIcEEEENS1_12CodeLocationEbE3$_0EEPNS_8TestInfoEPKcSG_SG_SG_SG_iT0_EN11FactoryImplD1Ev', symObjAddr: 0x2BFA0, symBinAddr: 0x10005EA44, symSize: 0x58 }
  - { offsetInCU: 0x11F48C, offset: 0x4AD967, size: 0x8, addend: 0x0, symName: '__ZZN7testing12RegisterTestIJEZNS_8internal23InsertSyntheticTestCaseERKNSt3__112basic_stringIcNS2_11char_traitsIcEENS2_9allocatorIcEEEENS1_12CodeLocationEbE3$_0EEPNS_8TestInfoEPKcSG_SG_SG_SG_iT0_EN11FactoryImplD0Ev', symObjAddr: 0x2BFF8, symBinAddr: 0x10005EA9C, symSize: 0x58 }
  - { offsetInCU: 0x11F7A7, offset: 0x4ADC82, size: 0x8, addend: 0x0, symName: '__ZZN7testing12RegisterTestIJEZNS_8internal23InsertSyntheticTestCaseERKNSt3__112basic_stringIcNS2_11char_traitsIcEENS2_9allocatorIcEEEENS1_12CodeLocationEbE3$_0EEPNS_8TestInfoEPKcSG_SG_SG_SG_iT0_EN11FactoryImpl10CreateTestEv', symObjAddr: 0x2C050, symBinAddr: 0x10005EAF4, symSize: 0x98 }
  - { offsetInCU: 0x11FA5B, offset: 0x4ADF36, size: 0x8, addend: 0x0, symName: __ZN7testing8internal12_GLOBAL__N_111FailureTestC1ERKNS0_12CodeLocationENSt3__112basic_stringIcNS6_11char_traitsIcEENS6_9allocatorIcEEEEb, symObjAddr: 0x2C0E8, symBinAddr: 0x10005EB8C, symSize: 0xC4 }
  - { offsetInCU: 0x11FDB3, offset: 0x4AE28E, size: 0x8, addend: 0x0, symName: __ZN7testing8internal12_GLOBAL__N_111FailureTestD1Ev, symObjAddr: 0x2C1AC, symBinAddr: 0x10005EC50, symSize: 0x74 }
  - { offsetInCU: 0x120120, offset: 0x4AE5FB, size: 0x8, addend: 0x0, symName: __ZN7testing8internal12_GLOBAL__N_111FailureTestD0Ev, symObjAddr: 0x2C220, symBinAddr: 0x10005ECC4, symSize: 0x74 }
  - { offsetInCU: 0x120493, offset: 0x4AE96E, size: 0x8, addend: 0x0, symName: __ZN7testing8internal12_GLOBAL__N_111FailureTest8TestBodyEv, symObjAddr: 0x2C294, symBinAddr: 0x10005ED38, symSize: 0x1E4 }
  - { offsetInCU: 0x120E3A, offset: 0x4AF315, size: 0x8, addend: 0x0, symName: '__ZZN7testing12RegisterTestIJEZNS_8internal34TypeParameterizedTestSuiteRegistry22CheckForInstantiationsEvE3$_1EEPNS_8TestInfoEPKcS7_S7_S7_S7_iT0_EN11FactoryImplD1Ev', symObjAddr: 0x2C700, symBinAddr: 0x10005F1A4, symSize: 0x70 }
  - { offsetInCU: 0x121283, offset: 0x4AF75E, size: 0x8, addend: 0x0, symName: '__ZZN7testing12RegisterTestIJEZNS_8internal34TypeParameterizedTestSuiteRegistry22CheckForInstantiationsEvE3$_1EEPNS_8TestInfoEPKcS7_S7_S7_S7_iT0_EN11FactoryImplD0Ev', symObjAddr: 0x2C770, symBinAddr: 0x10005F214, symSize: 0x70 }
  - { offsetInCU: 0x1216FD, offset: 0x4AFBD8, size: 0x8, addend: 0x0, symName: '__ZZN7testing12RegisterTestIJEZNS_8internal34TypeParameterizedTestSuiteRegistry22CheckForInstantiationsEvE3$_1EEPNS_8TestInfoEPKcS7_S7_S7_S7_iT0_EN11FactoryImpl10CreateTestEv', symObjAddr: 0x2C7E0, symBinAddr: 0x10005F284, symSize: 0x98 }
  - { offsetInCU: 0x121FEB, offset: 0x4B04C6, size: 0x8, addend: 0x0, symName: __ZNKSt3__16vectorINS0_IdNS_9allocatorIdEEEENS1_IS3_EEE20__throw_length_errorB7v160006Ev, symObjAddr: 0x2CE78, symBinAddr: 0x10005F908, symSize: 0x14 }
  - { offsetInCU: 0x122014, offset: 0x4B04EF, size: 0x8, addend: 0x0, symName: __ZNKSt3__16vectorIN7testing8internal13edit_distance8EditTypeENS_9allocatorIS4_EEE20__throw_length_errorB7v160006Ev, symObjAddr: 0x2CE8C, symBinAddr: 0x10005F91C, symSize: 0x14 }
  - { offsetInCU: 0x12201F, offset: 0x4B04FA, size: 0x8, addend: 0x0, symName: __ZNSt3__128__exception_guard_exceptionsINS_6vectorINS1_IdNS_9allocatorIdEEEENS2_IS4_EEE16__destroy_vectorEED1B7v160006Ev, symObjAddr: 0x2CDF8, symBinAddr: 0x10005F888, symSize: 0x80 }
  - { offsetInCU: 0x122665, offset: 0x4B0B40, size: 0x8, addend: 0x0, symName: __ZNKSt3__16vectorINS0_IN7testing8internal13edit_distance8EditTypeENS_9allocatorIS4_EEEENS5_IS7_EEE20__throw_length_errorB7v160006Ev, symObjAddr: 0x2D060, symBinAddr: 0x10005FAF0, symSize: 0x14 }
  - { offsetInCU: 0x122699, offset: 0x4B0B74, size: 0x8, addend: 0x0, symName: __ZNSt3__128__exception_guard_exceptionsINS_6vectorINS1_IN7testing8internal13edit_distance8EditTypeENS_9allocatorIS5_EEEENS6_IS8_EEE16__destroy_vectorEED1B7v160006Ev, symObjAddr: 0x2CFE0, symBinAddr: 0x10005FA70, symSize: 0x80 }
  - { offsetInCU: 0x1229F5, offset: 0x4B0ED0, size: 0x8, addend: 0x0, symName: __ZNSt12out_of_rangeC1B7v160006EPKc, symObjAddr: 0x2D418, symBinAddr: 0x10005FE94, symSize: 0x24 }
  - { offsetInCU: 0x122F4B, offset: 0x4B1426, size: 0x8, addend: 0x0, symName: __ZNKSt3__16vectorIN7testing14TestPartResultENS_9allocatorIS2_EEE20__throw_length_errorB7v160006Ev, symObjAddr: 0x2D840, symBinAddr: 0x1000602BC, symSize: 0x14 }
  - { offsetInCU: 0x122F74, offset: 0x4B144F, size: 0x8, addend: 0x0, symName: __ZNKSt3__112basic_stringIcNS_11char_traitsIcEENS_9allocatorIcEEE20__throw_out_of_rangeB7v160006Ev, symObjAddr: 0x2D854, symBinAddr: 0x1000602D0, symSize: 0x14 }
  - { offsetInCU: 0x122F7F, offset: 0x4B145A, size: 0x8, addend: 0x0, symName: __ZNSt3__114__split_bufferIN7testing14TestPartResultERNS_9allocatorIS2_EEED1Ev, symObjAddr: 0x2D7A8, symBinAddr: 0x100060224, symSize: 0x98 }
  - { offsetInCU: 0x123782, offset: 0x4B1C5D, size: 0x8, addend: 0x0, symName: __ZNKSt3__16vectorIN7testing12TestPropertyENS_9allocatorIS2_EEE20__throw_length_errorB7v160006Ev, symObjAddr: 0x2DAFC, symBinAddr: 0x100060578, symSize: 0x14 }
  - { offsetInCU: 0x1237AB, offset: 0x4B1C86, size: 0x8, addend: 0x0, symName: __ZN7testing8internal14GTestFlagSaverD2Ev, symObjAddr: 0x2DB10, symBinAddr: 0x10006058C, symSize: 0x1E4 }
  - { offsetInCU: 0x1237B6, offset: 0x4B1C91, size: 0x8, addend: 0x0, symName: __ZNSt3__114__split_bufferIN7testing12TestPropertyERNS_9allocatorIS2_EEED1Ev, symObjAddr: 0x2DA7C, symBinAddr: 0x1000604F8, symSize: 0x80 }
  - { offsetInCU: 0x123F2B, offset: 0x4B2406, size: 0x8, addend: 0x0, symName: __ZNKSt3__16vectorIN7testing8internal9TraceInfoENS_9allocatorIS3_EEE20__throw_length_errorB7v160006Ev, symObjAddr: 0x2E098, symBinAddr: 0x100060B00, symSize: 0x14 }
  - { offsetInCU: 0x123F54, offset: 0x4B242F, size: 0x8, addend: 0x0, symName: __ZN7testing8internal11ThreadLocalIPNS_31TestPartResultReporterInterfaceEE9CreateKeyEv, symObjAddr: 0x2E0AC, symBinAddr: 0x100060B14, symSize: 0xA0 }
  - { offsetInCU: 0x123F5F, offset: 0x4B243A, size: 0x8, addend: 0x0, symName: __ZNSt3__114__split_bufferIN7testing8internal9TraceInfoERNS_9allocatorIS3_EEED1Ev, symObjAddr: 0x2E03C, symBinAddr: 0x100060AA4, symSize: 0x5C }
  - { offsetInCU: 0x124227, offset: 0x4B2702, size: 0x8, addend: 0x0, symName: _DeleteThreadLocalValue, symObjAddr: 0x2E14C, symBinAddr: 0x100060BB4, symSize: 0x14 }
  - { offsetInCU: 0x124250, offset: 0x4B272B, size: 0x8, addend: 0x0, symName: __ZN7testing8internal11ThreadLocalIPNS_31TestPartResultReporterInterfaceEE26InstanceValueHolderFactoryD1Ev, symObjAddr: 0x2E160, symBinAddr: 0x100060BC8, symSize: 0x4 }
  - { offsetInCU: 0x12427C, offset: 0x4B2757, size: 0x8, addend: 0x0, symName: __ZN7testing8internal11ThreadLocalIPNS_31TestPartResultReporterInterfaceEE26InstanceValueHolderFactoryD0Ev, symObjAddr: 0x2E164, symBinAddr: 0x100060BCC, symSize: 0x4 }
  - { offsetInCU: 0x1242F4, offset: 0x4B27CF, size: 0x8, addend: 0x0, symName: __ZNK7testing8internal11ThreadLocalIPNS_31TestPartResultReporterInterfaceEE26InstanceValueHolderFactory13MakeNewHolderEv, symObjAddr: 0x2E168, symBinAddr: 0x100060BD0, symSize: 0x38 }
  - { offsetInCU: 0x124367, offset: 0x4B2842, size: 0x8, addend: 0x0, symName: __ZN7testing8internal11ThreadLocalIPNS_31TestPartResultReporterInterfaceEE11ValueHolderD1Ev, symObjAddr: 0x2E1A0, symBinAddr: 0x100060C08, symSize: 0x4 }
  - { offsetInCU: 0x124393, offset: 0x4B286E, size: 0x8, addend: 0x0, symName: __ZN7testing8internal11ThreadLocalIPNS_31TestPartResultReporterInterfaceEE11ValueHolderD0Ev, symObjAddr: 0x2E1A4, symBinAddr: 0x100060C0C, symSize: 0x4 }
  - { offsetInCU: 0x1243BF, offset: 0x4B289A, size: 0x8, addend: 0x0, symName: __ZN7testing8internal11ThreadLocalINSt3__16vectorINS0_9TraceInfoENS2_9allocatorIS4_EEEEE25DefaultValueHolderFactoryD1Ev, symObjAddr: 0x2E248, symBinAddr: 0x100060CB0, symSize: 0x4 }
  - { offsetInCU: 0x1243EB, offset: 0x4B28C6, size: 0x8, addend: 0x0, symName: __ZN7testing8internal11ThreadLocalINSt3__16vectorINS0_9TraceInfoENS2_9allocatorIS4_EEEEE25DefaultValueHolderFactoryD0Ev, symObjAddr: 0x2E24C, symBinAddr: 0x100060CB4, symSize: 0x4 }
  - { offsetInCU: 0x12447F, offset: 0x4B295A, size: 0x8, addend: 0x0, symName: __ZNK7testing8internal11ThreadLocalINSt3__16vectorINS0_9TraceInfoENS2_9allocatorIS4_EEEEE25DefaultValueHolderFactory13MakeNewHolderEv, symObjAddr: 0x2E250, symBinAddr: 0x100060CB8, symSize: 0x2C }
  - { offsetInCU: 0x1245A1, offset: 0x4B2A7C, size: 0x8, addend: 0x0, symName: __ZN7testing8internal11ThreadLocalINSt3__16vectorINS0_9TraceInfoENS2_9allocatorIS4_EEEEE11ValueHolderD1Ev, symObjAddr: 0x2E27C, symBinAddr: 0x100060CE4, symSize: 0x7C }
  - { offsetInCU: 0x1248E6, offset: 0x4B2DC1, size: 0x8, addend: 0x0, symName: __ZN7testing8internal11ThreadLocalINSt3__16vectorINS0_9TraceInfoENS2_9allocatorIS4_EEEEE11ValueHolderD0Ev, symObjAddr: 0x2E2F8, symBinAddr: 0x100060D60, symSize: 0x7C }
  - { offsetInCU: 0x124E1E, offset: 0x4B32F9, size: 0x8, addend: 0x0, symName: __ZN7testing8internal24DummyMatchResultListenerD1Ev, symObjAddr: 0x2EE34, symBinAddr: 0x10006189C, symSize: 0x4 }
  - { offsetInCU: 0x124E49, offset: 0x4B3324, size: 0x8, addend: 0x0, symName: __ZN7testing8internal24DummyMatchResultListenerD0Ev, symObjAddr: 0x2EE38, symBinAddr: 0x1000618A0, symSize: 0x4 }
  - { offsetInCU: 0x124E91, offset: 0x4B336C, size: 0x8, addend: 0x0, symName: __ZN7testing8internal14ComparisonBaseINS0_9EqMatcherINSt3__112basic_stringIcNS3_11char_traitsIcEENS3_9allocatorIcEEEEEES9_NS0_5AnyEqEE4ImplIRKS9_S9_ED1Ev, symObjAddr: 0x2EE3C, symBinAddr: 0x1000618A4, symSize: 0x40 }
  - { offsetInCU: 0x125011, offset: 0x4B34EC, size: 0x8, addend: 0x0, symName: __ZN7testing8internal14ComparisonBaseINS0_9EqMatcherINSt3__112basic_stringIcNS3_11char_traitsIcEENS3_9allocatorIcEEEEEES9_NS0_5AnyEqEE4ImplIRKS9_S9_ED0Ev, symObjAddr: 0x2EE7C, symBinAddr: 0x1000618E4, symSize: 0x40 }
  - { offsetInCU: 0x12519D, offset: 0x4B3678, size: 0x8, addend: 0x0, symName: __ZNK7testing8internal14ComparisonBaseINS0_9EqMatcherINSt3__112basic_stringIcNS3_11char_traitsIcEENS3_9allocatorIcEEEEEES9_NS0_5AnyEqEE4ImplIRKS9_S9_E10DescribeToEPNS3_13basic_ostreamIcS6_EE, symObjAddr: 0x2EEBC, symBinAddr: 0x100061924, symSize: 0x4C }
  - { offsetInCU: 0x1252C0, offset: 0x4B379B, size: 0x8, addend: 0x0, symName: __ZNK7testing8internal14ComparisonBaseINS0_9EqMatcherINSt3__112basic_stringIcNS3_11char_traitsIcEENS3_9allocatorIcEEEEEES9_NS0_5AnyEqEE4ImplIRKS9_S9_E18DescribeNegationToEPNS3_13basic_ostreamIcS6_EE, symObjAddr: 0x2EF08, symBinAddr: 0x100061970, symSize: 0x4C }
  - { offsetInCU: 0x1252D9, offset: 0x4B37B4, size: 0x8, addend: 0x0, symName: __ZNK7testing8internal14ComparisonBaseINS0_9EqMatcherINSt3__112basic_stringIcNS3_11char_traitsIcEENS3_9allocatorIcEEEEEES9_NS0_5AnyEqEE4ImplIRKS9_S9_E18DescribeNegationToEPNS3_13basic_ostreamIcS6_EE, symObjAddr: 0x2EF08, symBinAddr: 0x100061970, symSize: 0x4C }
  - { offsetInCU: 0x1253FC, offset: 0x4B38D7, size: 0x8, addend: 0x0, symName: __ZNK7testing8internal14ComparisonBaseINS0_9EqMatcherINSt3__112basic_stringIcNS3_11char_traitsIcEENS3_9allocatorIcEEEEEES9_NS0_5AnyEqEE4ImplIRKS9_S9_E15MatchAndExplainESF_PNS_19MatchResultListenerE, symObjAddr: 0x2EF54, symBinAddr: 0x1000619BC, symSize: 0xB4 }
  - { offsetInCU: 0x125464, offset: 0x4B393F, size: 0x8, addend: 0x0, symName: __ZNK7testing8internal14ComparisonBaseINS0_9EqMatcherINSt3__112basic_stringIcNS3_11char_traitsIcEENS3_9allocatorIcEEEEEES9_NS0_5AnyEqEE4ImplIRKS9_S9_E15MatchAndExplainESF_PNS_19MatchResultListenerE, symObjAddr: 0x2EF54, symBinAddr: 0x1000619BC, symSize: 0xB4 }
  - { offsetInCU: 0x125672, offset: 0x4B3B4D, size: 0x8, addend: 0x0, symName: __ZNSt3__120__shared_ptr_pointerIPKN7testing16MatcherInterfaceIRKNS_12basic_stringIcNS_11char_traitsIcEENS_9allocatorIcEEEEEENS_10shared_ptrISC_E27__shared_ptr_default_deleteISC_SC_EENS6_ISC_EEED1Ev, symObjAddr: 0x2F008, symBinAddr: 0x100061A70, symSize: 0x4 }
  - { offsetInCU: 0x125694, offset: 0x4B3B6F, size: 0x8, addend: 0x0, symName: __ZNSt3__120__shared_ptr_pointerIPKN7testing16MatcherInterfaceIRKNS_12basic_stringIcNS_11char_traitsIcEENS_9allocatorIcEEEEEENS_10shared_ptrISC_E27__shared_ptr_default_deleteISC_SC_EENS6_ISC_EEED1Ev, symObjAddr: 0x2F008, symBinAddr: 0x100061A70, symSize: 0x4 }
  - { offsetInCU: 0x1256CA, offset: 0x4B3BA5, size: 0x8, addend: 0x0, symName: __ZNSt3__120__shared_ptr_pointerIPKN7testing16MatcherInterfaceIRKNS_12basic_stringIcNS_11char_traitsIcEENS_9allocatorIcEEEEEENS_10shared_ptrISC_E27__shared_ptr_default_deleteISC_SC_EENS6_ISC_EEED0Ev, symObjAddr: 0x2F00C, symBinAddr: 0x100061A74, symSize: 0x14 }
  - { offsetInCU: 0x12572D, offset: 0x4B3C08, size: 0x8, addend: 0x0, symName: __ZNSt3__120__shared_ptr_pointerIPKN7testing16MatcherInterfaceIRKNS_12basic_stringIcNS_11char_traitsIcEENS_9allocatorIcEEEEEENS_10shared_ptrISC_E27__shared_ptr_default_deleteISC_SC_EENS6_ISC_EEE16__on_zero_sharedEv, symObjAddr: 0x2F020, symBinAddr: 0x100061A88, symSize: 0x18 }
  - { offsetInCU: 0x12577D, offset: 0x4B3C58, size: 0x8, addend: 0x0, symName: __ZNKSt3__120__shared_ptr_pointerIPKN7testing16MatcherInterfaceIRKNS_12basic_stringIcNS_11char_traitsIcEENS_9allocatorIcEEEEEENS_10shared_ptrISC_E27__shared_ptr_default_deleteISC_SC_EENS6_ISC_EEE13__get_deleterERKSt9type_info, symObjAddr: 0x2F038, symBinAddr: 0x100061AA0, symSize: 0x78 }
  - { offsetInCU: 0x12586A, offset: 0x4B3D45, size: 0x8, addend: 0x0, symName: __ZNSt3__120__shared_ptr_pointerIPKN7testing16MatcherInterfaceIRKNS_12basic_stringIcNS_11char_traitsIcEENS_9allocatorIcEEEEEENS_10shared_ptrISC_E27__shared_ptr_default_deleteISC_SC_EENS6_ISC_EEE21__on_zero_shared_weakEv, symObjAddr: 0x2F0B0, symBinAddr: 0x100061B18, symSize: 0x4 }
  - { offsetInCU: 0x12589E, offset: 0x4B3D79, size: 0x8, addend: 0x0, symName: __ZNSt3__120__shared_ptr_pointerIPKN7testing16MatcherInterfaceIRKNS_12basic_stringIcNS_11char_traitsIcEENS_9allocatorIcEEEEEENS_10shared_ptrISC_E27__shared_ptr_default_deleteISC_SC_EENS6_ISC_EEE21__on_zero_shared_weakEv, symObjAddr: 0x2F0B0, symBinAddr: 0x100061B18, symSize: 0x4 }
  - { offsetInCU: 0x1258C0, offset: 0x4B3D9B, size: 0x8, addend: 0x0, symName: __ZNSt3__120__shared_ptr_pointerIPKN7testing16MatcherInterfaceIRKNS_12basic_stringIcNS_11char_traitsIcEENS_9allocatorIcEEEEEENS_10shared_ptrISC_E27__shared_ptr_default_deleteISC_SC_EENS6_ISC_EEE21__on_zero_shared_weakEv, symObjAddr: 0x2F0B0, symBinAddr: 0x100061B18, symSize: 0x4 }
  - { offsetInCU: 0x1258EB, offset: 0x4B3DC6, size: 0x8, addend: 0x0, symName: __ZNSt3__120__shared_ptr_pointerIPKN7testing16MatcherInterfaceIRKNS_12basic_stringIcNS_11char_traitsIcEENS_9allocatorIcEEEEEENS_10shared_ptrISC_E27__shared_ptr_default_deleteISC_SC_EENS6_ISC_EEE21__on_zero_shared_weakEv, symObjAddr: 0x2F0B0, symBinAddr: 0x100061B18, symSize: 0x4 }
  - { offsetInCU: 0x125911, offset: 0x4B3DEC, size: 0x8, addend: 0x0, symName: __ZNSt3__120__shared_ptr_pointerIPKN7testing16MatcherInterfaceIRKNS_12basic_stringIcNS_11char_traitsIcEENS_9allocatorIcEEEEEENS_10shared_ptrISC_E27__shared_ptr_default_deleteISC_SC_EENS6_ISC_EEE21__on_zero_shared_weakEv, symObjAddr: 0x2F0B0, symBinAddr: 0x100061B18, symSize: 0x4 }
...
